
Elevator_R02.elf:     file format elf32-littlearm

Sections:
Idx Name          Size      VMA       LMA       File off  Algn
  0 .isr_vector   00000198  08000000  08000000  00001000  2**0
                  CONTENTS, ALLOC, LOAD, READONLY, DATA
  1 .text         0000670c  080001a0  080001a0  000011a0  2**4
                  CONTENTS, ALLOC, LOAD, READONLY, CODE
  2 .rodata       00000434  080068ac  080068ac  000078ac  2**2
                  CONTENTS, ALLOC, LOAD, READONLY, DATA
  3 .ARM.extab    00000000  08006ce0  08006ce0  00008100  2**0
                  CONTENTS, READONLY
  4 .ARM          00000008  08006ce0  08006ce0  00007ce0  2**2
                  CONTENTS, ALLOC, LOAD, READONLY, DATA
  5 .preinit_array 00000000  08006ce8  08006ce8  00008100  2**0
                  CONTENTS, ALLOC, LOAD, DATA
  6 .init_array   00000004  08006ce8  08006ce8  00007ce8  2**2
                  CONTENTS, ALLOC, LOAD, READONLY, DATA
  7 .fini_array   00000004  08006cec  08006cec  00007cec  2**2
                  CONTENTS, ALLOC, LOAD, READONLY, DATA
  8 .data         00000100  20000000  08006cf0  00008000  2**2
                  CONTENTS, ALLOC, LOAD, DATA
  9 .bss          00000338  20000100  08006df0  00008100  2**2
                  ALLOC
 10 ._user_heap_stack 00000600  20000438  08006df0  00008438  2**0
                  ALLOC
 11 .ARM.attributes 00000030  00000000  00000000  00008100  2**0
                  CONTENTS, READONLY
 12 .debug_info   00013dae  00000000  00000000  00008130  2**0
                  CONTENTS, READONLY, DEBUGGING, OCTETS
 13 .debug_abbrev 000039b9  00000000  00000000  0001bede  2**0
                  CONTENTS, READONLY, DEBUGGING, OCTETS
 14 .debug_aranges 00001290  00000000  00000000  0001f898  2**3
                  CONTENTS, READONLY, DEBUGGING, OCTETS
 15 .debug_rnglists 00000e95  00000000  00000000  00020b28  2**0
                  CONTENTS, READONLY, DEBUGGING, OCTETS
 16 .debug_macro  00019144  00000000  00000000  000219bd  2**0
                  CONTENTS, READONLY, DEBUGGING, OCTETS
 17 .debug_line   00018bff  00000000  00000000  0003ab01  2**0
                  CONTENTS, READONLY, DEBUGGING, OCTETS
 18 .debug_str    0009250a  00000000  00000000  00053700  2**0
                  CONTENTS, READONLY, DEBUGGING, OCTETS
 19 .comment      00000043  00000000  00000000  000e5c0a  2**0
                  CONTENTS, READONLY
 20 .debug_frame  00005140  00000000  00000000  000e5c50  2**2
                  CONTENTS, READONLY, DEBUGGING, OCTETS
 21 .debug_line_str 0000006a  00000000  00000000  000ead90  2**0
                  CONTENTS, READONLY, DEBUGGING, OCTETS

Disassembly of section .text:

080001a0 <__do_global_dtors_aux>:
 80001a0:	b510      	push	{r4, lr}
 80001a2:	4c05      	ldr	r4, [pc, #20]	@ (80001b8 <__do_global_dtors_aux+0x18>)
 80001a4:	7823      	ldrb	r3, [r4, #0]
 80001a6:	b933      	cbnz	r3, 80001b6 <__do_global_dtors_aux+0x16>
 80001a8:	4b04      	ldr	r3, [pc, #16]	@ (80001bc <__do_global_dtors_aux+0x1c>)
 80001aa:	b113      	cbz	r3, 80001b2 <__do_global_dtors_aux+0x12>
 80001ac:	4804      	ldr	r0, [pc, #16]	@ (80001c0 <__do_global_dtors_aux+0x20>)
 80001ae:	f3af 8000 	nop.w
 80001b2:	2301      	movs	r3, #1
 80001b4:	7023      	strb	r3, [r4, #0]
 80001b6:	bd10      	pop	{r4, pc}
 80001b8:	20000100 	.word	0x20000100
 80001bc:	00000000 	.word	0x00000000
 80001c0:	08006894 	.word	0x08006894

080001c4 <frame_dummy>:
 80001c4:	b508      	push	{r3, lr}
 80001c6:	4b03      	ldr	r3, [pc, #12]	@ (80001d4 <frame_dummy+0x10>)
 80001c8:	b11b      	cbz	r3, 80001d2 <frame_dummy+0xe>
 80001ca:	4903      	ldr	r1, [pc, #12]	@ (80001d8 <frame_dummy+0x14>)
 80001cc:	4803      	ldr	r0, [pc, #12]	@ (80001dc <frame_dummy+0x18>)
 80001ce:	f3af 8000 	nop.w
 80001d2:	bd08      	pop	{r3, pc}
 80001d4:	00000000 	.word	0x00000000
 80001d8:	20000104 	.word	0x20000104
 80001dc:	08006894 	.word	0x08006894

080001e0 <memchr>:
 80001e0:	f001 01ff 	and.w	r1, r1, #255	@ 0xff
 80001e4:	2a10      	cmp	r2, #16
 80001e6:	db2b      	blt.n	8000240 <memchr+0x60>
 80001e8:	f010 0f07 	tst.w	r0, #7
 80001ec:	d008      	beq.n	8000200 <memchr+0x20>
 80001ee:	f810 3b01 	ldrb.w	r3, [r0], #1
 80001f2:	3a01      	subs	r2, #1
 80001f4:	428b      	cmp	r3, r1
 80001f6:	d02d      	beq.n	8000254 <memchr+0x74>
 80001f8:	f010 0f07 	tst.w	r0, #7
 80001fc:	b342      	cbz	r2, 8000250 <memchr+0x70>
 80001fe:	d1f6      	bne.n	80001ee <memchr+0xe>
 8000200:	b4f0      	push	{r4, r5, r6, r7}
 8000202:	ea41 2101 	orr.w	r1, r1, r1, lsl #8
 8000206:	ea41 4101 	orr.w	r1, r1, r1, lsl #16
 800020a:	f022 0407 	bic.w	r4, r2, #7
 800020e:	f07f 0700 	mvns.w	r7, #0
 8000212:	2300      	movs	r3, #0
 8000214:	e8f0 5602 	ldrd	r5, r6, [r0], #8
 8000218:	3c08      	subs	r4, #8
 800021a:	ea85 0501 	eor.w	r5, r5, r1
 800021e:	ea86 0601 	eor.w	r6, r6, r1
 8000222:	fa85 f547 	uadd8	r5, r5, r7
 8000226:	faa3 f587 	sel	r5, r3, r7
 800022a:	fa86 f647 	uadd8	r6, r6, r7
 800022e:	faa5 f687 	sel	r6, r5, r7
 8000232:	b98e      	cbnz	r6, 8000258 <memchr+0x78>
 8000234:	d1ee      	bne.n	8000214 <memchr+0x34>
 8000236:	bcf0      	pop	{r4, r5, r6, r7}
 8000238:	f001 01ff 	and.w	r1, r1, #255	@ 0xff
 800023c:	f002 0207 	and.w	r2, r2, #7
 8000240:	b132      	cbz	r2, 8000250 <memchr+0x70>
 8000242:	f810 3b01 	ldrb.w	r3, [r0], #1
 8000246:	3a01      	subs	r2, #1
 8000248:	ea83 0301 	eor.w	r3, r3, r1
 800024c:	b113      	cbz	r3, 8000254 <memchr+0x74>
 800024e:	d1f8      	bne.n	8000242 <memchr+0x62>
 8000250:	2000      	movs	r0, #0
 8000252:	4770      	bx	lr
 8000254:	3801      	subs	r0, #1
 8000256:	4770      	bx	lr
 8000258:	2d00      	cmp	r5, #0
 800025a:	bf06      	itte	eq
 800025c:	4635      	moveq	r5, r6
 800025e:	3803      	subeq	r0, #3
 8000260:	3807      	subne	r0, #7
 8000262:	f015 0f01 	tst.w	r5, #1
 8000266:	d107      	bne.n	8000278 <memchr+0x98>
 8000268:	3001      	adds	r0, #1
 800026a:	f415 7f80 	tst.w	r5, #256	@ 0x100
 800026e:	bf02      	ittt	eq
 8000270:	3001      	addeq	r0, #1
 8000272:	f415 3fc0 	tsteq.w	r5, #98304	@ 0x18000
 8000276:	3001      	addeq	r0, #1
 8000278:	bcf0      	pop	{r4, r5, r6, r7}
 800027a:	3801      	subs	r0, #1
 800027c:	4770      	bx	lr
 800027e:	bf00      	nop

08000280 <__aeabi_uldivmod>:
 8000280:	b953      	cbnz	r3, 8000298 <__aeabi_uldivmod+0x18>
 8000282:	b94a      	cbnz	r2, 8000298 <__aeabi_uldivmod+0x18>
 8000284:	2900      	cmp	r1, #0
 8000286:	bf08      	it	eq
 8000288:	2800      	cmpeq	r0, #0
 800028a:	bf1c      	itt	ne
 800028c:	f04f 31ff 	movne.w	r1, #4294967295	@ 0xffffffff
 8000290:	f04f 30ff 	movne.w	r0, #4294967295	@ 0xffffffff
 8000294:	f000 b988 	b.w	80005a8 <__aeabi_idiv0>
 8000298:	f1ad 0c08 	sub.w	ip, sp, #8
 800029c:	e96d ce04 	strd	ip, lr, [sp, #-16]!
 80002a0:	f000 f806 	bl	80002b0 <__udivmoddi4>
 80002a4:	f8dd e004 	ldr.w	lr, [sp, #4]
 80002a8:	e9dd 2302 	ldrd	r2, r3, [sp, #8]
 80002ac:	b004      	add	sp, #16
 80002ae:	4770      	bx	lr

080002b0 <__udivmoddi4>:
 80002b0:	e92d 47f0 	stmdb	sp!, {r4, r5, r6, r7, r8, r9, sl, lr}
 80002b4:	9d08      	ldr	r5, [sp, #32]
 80002b6:	468e      	mov	lr, r1
 80002b8:	4604      	mov	r4, r0
 80002ba:	4688      	mov	r8, r1
 80002bc:	2b00      	cmp	r3, #0
 80002be:	d14a      	bne.n	8000356 <__udivmoddi4+0xa6>
 80002c0:	428a      	cmp	r2, r1
 80002c2:	4617      	mov	r7, r2
 80002c4:	d962      	bls.n	800038c <__udivmoddi4+0xdc>
 80002c6:	fab2 f682 	clz	r6, r2
 80002ca:	b14e      	cbz	r6, 80002e0 <__udivmoddi4+0x30>
 80002cc:	f1c6 0320 	rsb	r3, r6, #32
 80002d0:	fa01 f806 	lsl.w	r8, r1, r6
 80002d4:	fa20 f303 	lsr.w	r3, r0, r3
 80002d8:	40b7      	lsls	r7, r6
 80002da:	ea43 0808 	orr.w	r8, r3, r8
 80002de:	40b4      	lsls	r4, r6
 80002e0:	ea4f 4e17 	mov.w	lr, r7, lsr #16
 80002e4:	fa1f fc87 	uxth.w	ip, r7
 80002e8:	fbb8 f1fe 	udiv	r1, r8, lr
 80002ec:	0c23      	lsrs	r3, r4, #16
 80002ee:	fb0e 8811 	mls	r8, lr, r1, r8
 80002f2:	ea43 4308 	orr.w	r3, r3, r8, lsl #16
 80002f6:	fb01 f20c 	mul.w	r2, r1, ip
 80002fa:	429a      	cmp	r2, r3
 80002fc:	d909      	bls.n	8000312 <__udivmoddi4+0x62>
 80002fe:	18fb      	adds	r3, r7, r3
 8000300:	f101 30ff 	add.w	r0, r1, #4294967295	@ 0xffffffff
 8000304:	f080 80ea 	bcs.w	80004dc <__udivmoddi4+0x22c>
 8000308:	429a      	cmp	r2, r3
 800030a:	f240 80e7 	bls.w	80004dc <__udivmoddi4+0x22c>
 800030e:	3902      	subs	r1, #2
 8000310:	443b      	add	r3, r7
 8000312:	1a9a      	subs	r2, r3, r2
 8000314:	b2a3      	uxth	r3, r4
 8000316:	fbb2 f0fe 	udiv	r0, r2, lr
 800031a:	fb0e 2210 	mls	r2, lr, r0, r2
 800031e:	ea43 4302 	orr.w	r3, r3, r2, lsl #16
 8000322:	fb00 fc0c 	mul.w	ip, r0, ip
 8000326:	459c      	cmp	ip, r3
 8000328:	d909      	bls.n	800033e <__udivmoddi4+0x8e>
 800032a:	18fb      	adds	r3, r7, r3
 800032c:	f100 32ff 	add.w	r2, r0, #4294967295	@ 0xffffffff
 8000330:	f080 80d6 	bcs.w	80004e0 <__udivmoddi4+0x230>
 8000334:	459c      	cmp	ip, r3
 8000336:	f240 80d3 	bls.w	80004e0 <__udivmoddi4+0x230>
 800033a:	443b      	add	r3, r7
 800033c:	3802      	subs	r0, #2
 800033e:	ea40 4001 	orr.w	r0, r0, r1, lsl #16
 8000342:	eba3 030c 	sub.w	r3, r3, ip
 8000346:	2100      	movs	r1, #0
 8000348:	b11d      	cbz	r5, 8000352 <__udivmoddi4+0xa2>
 800034a:	40f3      	lsrs	r3, r6
 800034c:	2200      	movs	r2, #0
 800034e:	e9c5 3200 	strd	r3, r2, [r5]
 8000352:	e8bd 87f0 	ldmia.w	sp!, {r4, r5, r6, r7, r8, r9, sl, pc}
 8000356:	428b      	cmp	r3, r1
 8000358:	d905      	bls.n	8000366 <__udivmoddi4+0xb6>
 800035a:	b10d      	cbz	r5, 8000360 <__udivmoddi4+0xb0>
 800035c:	e9c5 0100 	strd	r0, r1, [r5]
 8000360:	2100      	movs	r1, #0
 8000362:	4608      	mov	r0, r1
 8000364:	e7f5      	b.n	8000352 <__udivmoddi4+0xa2>
 8000366:	fab3 f183 	clz	r1, r3
 800036a:	2900      	cmp	r1, #0
 800036c:	d146      	bne.n	80003fc <__udivmoddi4+0x14c>
 800036e:	4573      	cmp	r3, lr
 8000370:	d302      	bcc.n	8000378 <__udivmoddi4+0xc8>
 8000372:	4282      	cmp	r2, r0
 8000374:	f200 8105 	bhi.w	8000582 <__udivmoddi4+0x2d2>
 8000378:	1a84      	subs	r4, r0, r2
 800037a:	eb6e 0203 	sbc.w	r2, lr, r3
 800037e:	2001      	movs	r0, #1
 8000380:	4690      	mov	r8, r2
 8000382:	2d00      	cmp	r5, #0
 8000384:	d0e5      	beq.n	8000352 <__udivmoddi4+0xa2>
 8000386:	e9c5 4800 	strd	r4, r8, [r5]
 800038a:	e7e2      	b.n	8000352 <__udivmoddi4+0xa2>
 800038c:	2a00      	cmp	r2, #0
 800038e:	f000 8090 	beq.w	80004b2 <__udivmoddi4+0x202>
 8000392:	fab2 f682 	clz	r6, r2
 8000396:	2e00      	cmp	r6, #0
 8000398:	f040 80a4 	bne.w	80004e4 <__udivmoddi4+0x234>
 800039c:	1a8a      	subs	r2, r1, r2
 800039e:	0c03      	lsrs	r3, r0, #16
 80003a0:	ea4f 4e17 	mov.w	lr, r7, lsr #16
 80003a4:	b280      	uxth	r0, r0
 80003a6:	b2bc      	uxth	r4, r7
 80003a8:	2101      	movs	r1, #1
 80003aa:	fbb2 fcfe 	udiv	ip, r2, lr
 80003ae:	fb0e 221c 	mls	r2, lr, ip, r2
 80003b2:	ea43 4302 	orr.w	r3, r3, r2, lsl #16
 80003b6:	fb04 f20c 	mul.w	r2, r4, ip
 80003ba:	429a      	cmp	r2, r3
 80003bc:	d907      	bls.n	80003ce <__udivmoddi4+0x11e>
 80003be:	18fb      	adds	r3, r7, r3
 80003c0:	f10c 38ff 	add.w	r8, ip, #4294967295	@ 0xffffffff
 80003c4:	d202      	bcs.n	80003cc <__udivmoddi4+0x11c>
 80003c6:	429a      	cmp	r2, r3
 80003c8:	f200 80e0 	bhi.w	800058c <__udivmoddi4+0x2dc>
 80003cc:	46c4      	mov	ip, r8
 80003ce:	1a9b      	subs	r3, r3, r2
 80003d0:	fbb3 f2fe 	udiv	r2, r3, lr
 80003d4:	fb0e 3312 	mls	r3, lr, r2, r3
 80003d8:	ea40 4303 	orr.w	r3, r0, r3, lsl #16
 80003dc:	fb02 f404 	mul.w	r4, r2, r4
 80003e0:	429c      	cmp	r4, r3
 80003e2:	d907      	bls.n	80003f4 <__udivmoddi4+0x144>
 80003e4:	18fb      	adds	r3, r7, r3
 80003e6:	f102 30ff 	add.w	r0, r2, #4294967295	@ 0xffffffff
 80003ea:	d202      	bcs.n	80003f2 <__udivmoddi4+0x142>
 80003ec:	429c      	cmp	r4, r3
 80003ee:	f200 80ca 	bhi.w	8000586 <__udivmoddi4+0x2d6>
 80003f2:	4602      	mov	r2, r0
 80003f4:	1b1b      	subs	r3, r3, r4
 80003f6:	ea42 400c 	orr.w	r0, r2, ip, lsl #16
 80003fa:	e7a5      	b.n	8000348 <__udivmoddi4+0x98>
 80003fc:	f1c1 0620 	rsb	r6, r1, #32
 8000400:	408b      	lsls	r3, r1
 8000402:	fa22 f706 	lsr.w	r7, r2, r6
 8000406:	431f      	orrs	r7, r3
 8000408:	fa0e f401 	lsl.w	r4, lr, r1
 800040c:	fa20 f306 	lsr.w	r3, r0, r6
 8000410:	fa2e fe06 	lsr.w	lr, lr, r6
 8000414:	ea4f 4917 	mov.w	r9, r7, lsr #16
 8000418:	4323      	orrs	r3, r4
 800041a:	fa00 f801 	lsl.w	r8, r0, r1
 800041e:	fa1f fc87 	uxth.w	ip, r7
 8000422:	fbbe f0f9 	udiv	r0, lr, r9
 8000426:	0c1c      	lsrs	r4, r3, #16
 8000428:	fb09 ee10 	mls	lr, r9, r0, lr
 800042c:	ea44 440e 	orr.w	r4, r4, lr, lsl #16
 8000430:	fb00 fe0c 	mul.w	lr, r0, ip
 8000434:	45a6      	cmp	lr, r4
 8000436:	fa02 f201 	lsl.w	r2, r2, r1
 800043a:	d909      	bls.n	8000450 <__udivmoddi4+0x1a0>
 800043c:	193c      	adds	r4, r7, r4
 800043e:	f100 3aff 	add.w	sl, r0, #4294967295	@ 0xffffffff
 8000442:	f080 809c 	bcs.w	800057e <__udivmoddi4+0x2ce>
 8000446:	45a6      	cmp	lr, r4
 8000448:	f240 8099 	bls.w	800057e <__udivmoddi4+0x2ce>
 800044c:	3802      	subs	r0, #2
 800044e:	443c      	add	r4, r7
 8000450:	eba4 040e 	sub.w	r4, r4, lr
 8000454:	fa1f fe83 	uxth.w	lr, r3
 8000458:	fbb4 f3f9 	udiv	r3, r4, r9
 800045c:	fb09 4413 	mls	r4, r9, r3, r4
 8000460:	ea4e 4404 	orr.w	r4, lr, r4, lsl #16
 8000464:	fb03 fc0c 	mul.w	ip, r3, ip
 8000468:	45a4      	cmp	ip, r4
 800046a:	d908      	bls.n	800047e <__udivmoddi4+0x1ce>
 800046c:	193c      	adds	r4, r7, r4
 800046e:	f103 3eff 	add.w	lr, r3, #4294967295	@ 0xffffffff
 8000472:	f080 8082 	bcs.w	800057a <__udivmoddi4+0x2ca>
 8000476:	45a4      	cmp	ip, r4
 8000478:	d97f      	bls.n	800057a <__udivmoddi4+0x2ca>
 800047a:	3b02      	subs	r3, #2
 800047c:	443c      	add	r4, r7
 800047e:	ea43 4000 	orr.w	r0, r3, r0, lsl #16
 8000482:	eba4 040c 	sub.w	r4, r4, ip
 8000486:	fba0 ec02 	umull	lr, ip, r0, r2
 800048a:	4564      	cmp	r4, ip
 800048c:	4673      	mov	r3, lr
 800048e:	46e1      	mov	r9, ip
 8000490:	d362      	bcc.n	8000558 <__udivmoddi4+0x2a8>
 8000492:	d05f      	beq.n	8000554 <__udivmoddi4+0x2a4>
 8000494:	b15d      	cbz	r5, 80004ae <__udivmoddi4+0x1fe>
 8000496:	ebb8 0203 	subs.w	r2, r8, r3
 800049a:	eb64 0409 	sbc.w	r4, r4, r9
 800049e:	fa04 f606 	lsl.w	r6, r4, r6
 80004a2:	fa22 f301 	lsr.w	r3, r2, r1
 80004a6:	431e      	orrs	r6, r3
 80004a8:	40cc      	lsrs	r4, r1
 80004aa:	e9c5 6400 	strd	r6, r4, [r5]
 80004ae:	2100      	movs	r1, #0
 80004b0:	e74f      	b.n	8000352 <__udivmoddi4+0xa2>
 80004b2:	fbb1 fcf2 	udiv	ip, r1, r2
 80004b6:	0c01      	lsrs	r1, r0, #16
 80004b8:	ea41 410e 	orr.w	r1, r1, lr, lsl #16
 80004bc:	b280      	uxth	r0, r0
 80004be:	ea40 4201 	orr.w	r2, r0, r1, lsl #16
 80004c2:	463b      	mov	r3, r7
 80004c4:	4638      	mov	r0, r7
 80004c6:	463c      	mov	r4, r7
 80004c8:	46b8      	mov	r8, r7
 80004ca:	46be      	mov	lr, r7
 80004cc:	2620      	movs	r6, #32
 80004ce:	fbb1 f1f7 	udiv	r1, r1, r7
 80004d2:	eba2 0208 	sub.w	r2, r2, r8
 80004d6:	ea41 410c 	orr.w	r1, r1, ip, lsl #16
 80004da:	e766      	b.n	80003aa <__udivmoddi4+0xfa>
 80004dc:	4601      	mov	r1, r0
 80004de:	e718      	b.n	8000312 <__udivmoddi4+0x62>
 80004e0:	4610      	mov	r0, r2
 80004e2:	e72c      	b.n	800033e <__udivmoddi4+0x8e>
 80004e4:	f1c6 0220 	rsb	r2, r6, #32
 80004e8:	fa2e f302 	lsr.w	r3, lr, r2
 80004ec:	40b7      	lsls	r7, r6
 80004ee:	40b1      	lsls	r1, r6
 80004f0:	fa20 f202 	lsr.w	r2, r0, r2
 80004f4:	ea4f 4e17 	mov.w	lr, r7, lsr #16
 80004f8:	430a      	orrs	r2, r1
 80004fa:	fbb3 f8fe 	udiv	r8, r3, lr
 80004fe:	b2bc      	uxth	r4, r7
 8000500:	fb0e 3318 	mls	r3, lr, r8, r3
 8000504:	0c11      	lsrs	r1, r2, #16
 8000506:	ea41 4103 	orr.w	r1, r1, r3, lsl #16
 800050a:	fb08 f904 	mul.w	r9, r8, r4
 800050e:	40b0      	lsls	r0, r6
 8000510:	4589      	cmp	r9, r1
 8000512:	ea4f 4310 	mov.w	r3, r0, lsr #16
 8000516:	b280      	uxth	r0, r0
 8000518:	d93e      	bls.n	8000598 <__udivmoddi4+0x2e8>
 800051a:	1879      	adds	r1, r7, r1
 800051c:	f108 3cff 	add.w	ip, r8, #4294967295	@ 0xffffffff
 8000520:	d201      	bcs.n	8000526 <__udivmoddi4+0x276>
 8000522:	4589      	cmp	r9, r1
 8000524:	d81f      	bhi.n	8000566 <__udivmoddi4+0x2b6>
 8000526:	eba1 0109 	sub.w	r1, r1, r9
 800052a:	fbb1 f9fe 	udiv	r9, r1, lr
 800052e:	fb09 f804 	mul.w	r8, r9, r4
 8000532:	fb0e 1119 	mls	r1, lr, r9, r1
 8000536:	b292      	uxth	r2, r2
 8000538:	ea42 4201 	orr.w	r2, r2, r1, lsl #16
 800053c:	4542      	cmp	r2, r8
 800053e:	d229      	bcs.n	8000594 <__udivmoddi4+0x2e4>
 8000540:	18ba      	adds	r2, r7, r2
 8000542:	f109 31ff 	add.w	r1, r9, #4294967295	@ 0xffffffff
 8000546:	d2c4      	bcs.n	80004d2 <__udivmoddi4+0x222>
 8000548:	4542      	cmp	r2, r8
 800054a:	d2c2      	bcs.n	80004d2 <__udivmoddi4+0x222>
 800054c:	f1a9 0102 	sub.w	r1, r9, #2
 8000550:	443a      	add	r2, r7
 8000552:	e7be      	b.n	80004d2 <__udivmoddi4+0x222>
 8000554:	45f0      	cmp	r8, lr
 8000556:	d29d      	bcs.n	8000494 <__udivmoddi4+0x1e4>
 8000558:	ebbe 0302 	subs.w	r3, lr, r2
 800055c:	eb6c 0c07 	sbc.w	ip, ip, r7
 8000560:	3801      	subs	r0, #1
 8000562:	46e1      	mov	r9, ip
 8000564:	e796      	b.n	8000494 <__udivmoddi4+0x1e4>
 8000566:	eba7 0909 	sub.w	r9, r7, r9
 800056a:	4449      	add	r1, r9
 800056c:	f1a8 0c02 	sub.w	ip, r8, #2
 8000570:	fbb1 f9fe 	udiv	r9, r1, lr
 8000574:	fb09 f804 	mul.w	r8, r9, r4
 8000578:	e7db      	b.n	8000532 <__udivmoddi4+0x282>
 800057a:	4673      	mov	r3, lr
 800057c:	e77f      	b.n	800047e <__udivmoddi4+0x1ce>
 800057e:	4650      	mov	r0, sl
 8000580:	e766      	b.n	8000450 <__udivmoddi4+0x1a0>
 8000582:	4608      	mov	r0, r1
 8000584:	e6fd      	b.n	8000382 <__udivmoddi4+0xd2>
 8000586:	443b      	add	r3, r7
 8000588:	3a02      	subs	r2, #2
 800058a:	e733      	b.n	80003f4 <__udivmoddi4+0x144>
 800058c:	f1ac 0c02 	sub.w	ip, ip, #2
 8000590:	443b      	add	r3, r7
 8000592:	e71c      	b.n	80003ce <__udivmoddi4+0x11e>
 8000594:	4649      	mov	r1, r9
 8000596:	e79c      	b.n	80004d2 <__udivmoddi4+0x222>
 8000598:	eba1 0109 	sub.w	r1, r1, r9
 800059c:	46c4      	mov	ip, r8
 800059e:	fbb1 f9fe 	udiv	r9, r1, lr
 80005a2:	fb09 f804 	mul.w	r8, r9, r4
 80005a6:	e7c4      	b.n	8000532 <__udivmoddi4+0x282>

080005a8 <__aeabi_idiv0>:
 80005a8:	4770      	bx	lr
 80005aa:	bf00      	nop

080005ac <App_Init>:
 80005ac:	b580      	push	{r7, lr}
 80005ae:	af00      	add	r7, sp, #0
 80005b0:	480c      	ldr	r0, [pc, #48]	@ (80005e4 <App_Init+0x38>)
 80005b2:	f001 f9af 	bl	8001914 <Log_Init>
 80005b6:	480c      	ldr	r0, [pc, #48]	@ (80005e8 <App_Init+0x3c>)
 80005b8:	f001 f9bc 	bl	8001934 <Log_Printf>
 80005bc:	f000 f838 	bl	8000630 <ButtonInit>
 80005c0:	f001 f900 	bl	80017c4 <LED_Init>
 80005c4:	f001 febc 	bl	8002340 <Servo_Init>
 80005c8:	f001 ffae 	bl	8002528 <Stepper_Init>
 80005cc:	f001 fb16 	bl	8001bfc <Photo_Init>
 80005d0:	f000 fb2e 	bl	8000c30 <Elevator_Init>
 80005d4:	4803      	ldr	r0, [pc, #12]	@ (80005e4 <App_Init+0x38>)
 80005d6:	f001 f99d 	bl	8001914 <Log_Init>
 80005da:	4802      	ldr	r0, [pc, #8]	@ (80005e4 <App_Init+0x38>)
 80005dc:	f001 fe42 	bl	8002264 <ResidentUART_Init>
 80005e0:	bf00      	nop
 80005e2:	bd80      	pop	{r7, pc}
 80005e4:	200002a4 	.word	0x200002a4
 80005e8:	080068ac 	.word	0x080068ac

080005ec <App_Task>:
 80005ec:	b580      	push	{r7, lr}
 80005ee:	b082      	sub	sp, #8
 80005f0:	af00      	add	r7, sp, #0
 80005f2:	f000 fee3 	bl	80013bc <displayScan>
 80005f6:	f001 fb53 	bl	8001ca0 <Photo_Task>
 80005fa:	f000 fb57 	bl	8000cac <Elevator_InputTask>
 80005fe:	f000 fbdf 	bl	8000dc0 <Elevator_Task>
 8000602:	f001 ffd1 	bl	80025a8 <Stepper_Task>
 8000606:	f001 fedf 	bl	80023c8 <Servo_Run>
 800060a:	f001 ff21 	bl	8002450 <Servo_IsOpened>
 800060e:	4603      	mov	r3, r0
 8000610:	71fb      	strb	r3, [r7, #7]
 8000612:	f000 fd21 	bl	8001058 <Elevator_GetCurrentFloor>
 8000616:	4603      	mov	r3, r0
 8000618:	461a      	mov	r2, r3
 800061a:	79fb      	ldrb	r3, [r7, #7]
 800061c:	4619      	mov	r1, r3
 800061e:	4610      	mov	r0, r2
 8000620:	f000 fe9a 	bl	8001358 <setFndState>
 8000624:	f001 fe3e 	bl	80022a4 <ResidentUART_Task>
 8000628:	bf00      	nop
 800062a:	3708      	adds	r7, #8
 800062c:	46bd      	mov	sp, r7
 800062e:	bd80      	pop	{r7, pc}

08000630 <ButtonInit>:
 8000630:	b580      	push	{r7, lr}
 8000632:	b084      	sub	sp, #16
 8000634:	af00      	add	r7, sp, #0
 8000636:	f002 faf9 	bl	8002c2c <HAL_GetTick>
 800063a:	60b8      	str	r0, [r7, #8]
 800063c:	2300      	movs	r3, #0
 800063e:	73fb      	strb	r3, [r7, #15]
 8000640:	e02f      	b.n	80006a2 <ButtonInit+0x72>
 8000642:	7bfb      	ldrb	r3, [r7, #15]
 8000644:	4a1b      	ldr	r2, [pc, #108]	@ (80006b4 <ButtonInit+0x84>)
 8000646:	011b      	lsls	r3, r3, #4
 8000648:	4413      	add	r3, r2
 800064a:	681a      	ldr	r2, [r3, #0]
 800064c:	7bfb      	ldrb	r3, [r7, #15]
 800064e:	4919      	ldr	r1, [pc, #100]	@ (80006b4 <ButtonInit+0x84>)
 8000650:	011b      	lsls	r3, r3, #4
 8000652:	440b      	add	r3, r1
 8000654:	3304      	adds	r3, #4
 8000656:	881b      	ldrh	r3, [r3, #0]
 8000658:	4619      	mov	r1, r3
 800065a:	4610      	mov	r0, r2
 800065c:	f002 fe1a 	bl	8003294 <HAL_GPIO_ReadPin>
 8000660:	4603      	mov	r3, r0
 8000662:	71fb      	strb	r3, [r7, #7]
 8000664:	7bfb      	ldrb	r3, [r7, #15]
 8000666:	4a13      	ldr	r2, [pc, #76]	@ (80006b4 <ButtonInit+0x84>)
 8000668:	011b      	lsls	r3, r3, #4
 800066a:	4413      	add	r3, r2
 800066c:	3307      	adds	r3, #7
 800066e:	79fa      	ldrb	r2, [r7, #7]
 8000670:	701a      	strb	r2, [r3, #0]
 8000672:	7bfb      	ldrb	r3, [r7, #15]
 8000674:	4a0f      	ldr	r2, [pc, #60]	@ (80006b4 <ButtonInit+0x84>)
 8000676:	011b      	lsls	r3, r3, #4
 8000678:	4413      	add	r3, r2
 800067a:	3308      	adds	r3, #8
 800067c:	68ba      	ldr	r2, [r7, #8]
 800067e:	601a      	str	r2, [r3, #0]
 8000680:	7bfb      	ldrb	r3, [r7, #15]
 8000682:	4a0c      	ldr	r2, [pc, #48]	@ (80006b4 <ButtonInit+0x84>)
 8000684:	011b      	lsls	r3, r3, #4
 8000686:	4413      	add	r3, r2
 8000688:	330c      	adds	r3, #12
 800068a:	79fa      	ldrb	r2, [r7, #7]
 800068c:	701a      	strb	r2, [r3, #0]
 800068e:	7bfb      	ldrb	r3, [r7, #15]
 8000690:	4a08      	ldr	r2, [pc, #32]	@ (80006b4 <ButtonInit+0x84>)
 8000692:	011b      	lsls	r3, r3, #4
 8000694:	4413      	add	r3, r2
 8000696:	330d      	adds	r3, #13
 8000698:	79fa      	ldrb	r2, [r7, #7]
 800069a:	701a      	strb	r2, [r3, #0]
 800069c:	7bfb      	ldrb	r3, [r7, #15]
 800069e:	3301      	adds	r3, #1
 80006a0:	73fb      	strb	r3, [r7, #15]
 80006a2:	7bfb      	ldrb	r3, [r7, #15]
 80006a4:	2b09      	cmp	r3, #9
 80006a6:	d9cc      	bls.n	8000642 <ButtonInit+0x12>
 80006a8:	bf00      	nop
 80006aa:	bf00      	nop
 80006ac:	3710      	adds	r7, #16
 80006ae:	46bd      	mov	sp, r7
 80006b0:	bd80      	pop	{r7, pc}
 80006b2:	bf00      	nop
 80006b4:	20000000 	.word	0x20000000

080006b8 <Button_GetPressed>:
 80006b8:	b580      	push	{r7, lr}
 80006ba:	b084      	sub	sp, #16
 80006bc:	af00      	add	r7, sp, #0
 80006be:	4603      	mov	r3, r0
 80006c0:	71fb      	strb	r3, [r7, #7]
 80006c2:	79fb      	ldrb	r3, [r7, #7]
 80006c4:	2b09      	cmp	r3, #9
 80006c6:	d901      	bls.n	80006cc <Button_GetPressed+0x14>
 80006c8:	2300      	movs	r3, #0
 80006ca:	e07d      	b.n	80007c8 <Button_GetPressed+0x110>
 80006cc:	f002 faae 	bl	8002c2c <HAL_GetTick>
 80006d0:	60f8      	str	r0, [r7, #12]
 80006d2:	79fb      	ldrb	r3, [r7, #7]
 80006d4:	4a3e      	ldr	r2, [pc, #248]	@ (80007d0 <Button_GetPressed+0x118>)
 80006d6:	011b      	lsls	r3, r3, #4
 80006d8:	4413      	add	r3, r2
 80006da:	681a      	ldr	r2, [r3, #0]
 80006dc:	79fb      	ldrb	r3, [r7, #7]
 80006de:	493c      	ldr	r1, [pc, #240]	@ (80007d0 <Button_GetPressed+0x118>)
 80006e0:	011b      	lsls	r3, r3, #4
 80006e2:	440b      	add	r3, r1
 80006e4:	3304      	adds	r3, #4
 80006e6:	881b      	ldrh	r3, [r3, #0]
 80006e8:	4619      	mov	r1, r3
 80006ea:	4610      	mov	r0, r2
 80006ec:	f002 fdd2 	bl	8003294 <HAL_GPIO_ReadPin>
 80006f0:	4603      	mov	r3, r0
 80006f2:	72fb      	strb	r3, [r7, #11]
 80006f4:	79fb      	ldrb	r3, [r7, #7]
 80006f6:	4a36      	ldr	r2, [pc, #216]	@ (80007d0 <Button_GetPressed+0x118>)
 80006f8:	011b      	lsls	r3, r3, #4
 80006fa:	4413      	add	r3, r2
 80006fc:	3307      	adds	r3, #7
 80006fe:	781b      	ldrb	r3, [r3, #0]
 8000700:	7afa      	ldrb	r2, [r7, #11]
 8000702:	429a      	cmp	r2, r3
 8000704:	d00d      	beq.n	8000722 <Button_GetPressed+0x6a>
 8000706:	79fb      	ldrb	r3, [r7, #7]
 8000708:	4a31      	ldr	r2, [pc, #196]	@ (80007d0 <Button_GetPressed+0x118>)
 800070a:	011b      	lsls	r3, r3, #4
 800070c:	4413      	add	r3, r2
 800070e:	3307      	adds	r3, #7
 8000710:	7afa      	ldrb	r2, [r7, #11]
 8000712:	701a      	strb	r2, [r3, #0]
 8000714:	79fb      	ldrb	r3, [r7, #7]
 8000716:	4a2e      	ldr	r2, [pc, #184]	@ (80007d0 <Button_GetPressed+0x118>)
 8000718:	011b      	lsls	r3, r3, #4
 800071a:	4413      	add	r3, r2
 800071c:	3308      	adds	r3, #8
 800071e:	68fa      	ldr	r2, [r7, #12]
 8000720:	601a      	str	r2, [r3, #0]
 8000722:	79fb      	ldrb	r3, [r7, #7]
 8000724:	4a2a      	ldr	r2, [pc, #168]	@ (80007d0 <Button_GetPressed+0x118>)
 8000726:	011b      	lsls	r3, r3, #4
 8000728:	4413      	add	r3, r2
 800072a:	3308      	adds	r3, #8
 800072c:	681b      	ldr	r3, [r3, #0]
 800072e:	68fa      	ldr	r2, [r7, #12]
 8000730:	1ad3      	subs	r3, r2, r3
 8000732:	2b3b      	cmp	r3, #59	@ 0x3b
 8000734:	d91c      	bls.n	8000770 <Button_GetPressed+0xb8>
 8000736:	79fb      	ldrb	r3, [r7, #7]
 8000738:	4a25      	ldr	r2, [pc, #148]	@ (80007d0 <Button_GetPressed+0x118>)
 800073a:	011b      	lsls	r3, r3, #4
 800073c:	4413      	add	r3, r2
 800073e:	330c      	adds	r3, #12
 8000740:	781b      	ldrb	r3, [r3, #0]
 8000742:	7afa      	ldrb	r2, [r7, #11]
 8000744:	429a      	cmp	r2, r3
 8000746:	d013      	beq.n	8000770 <Button_GetPressed+0xb8>
 8000748:	79fa      	ldrb	r2, [r7, #7]
 800074a:	79fb      	ldrb	r3, [r7, #7]
 800074c:	4920      	ldr	r1, [pc, #128]	@ (80007d0 <Button_GetPressed+0x118>)
 800074e:	0112      	lsls	r2, r2, #4
 8000750:	440a      	add	r2, r1
 8000752:	320c      	adds	r2, #12
 8000754:	7811      	ldrb	r1, [r2, #0]
 8000756:	4a1e      	ldr	r2, [pc, #120]	@ (80007d0 <Button_GetPressed+0x118>)
 8000758:	011b      	lsls	r3, r3, #4
 800075a:	4413      	add	r3, r2
 800075c:	330d      	adds	r3, #13
 800075e:	460a      	mov	r2, r1
 8000760:	701a      	strb	r2, [r3, #0]
 8000762:	79fb      	ldrb	r3, [r7, #7]
 8000764:	4a1a      	ldr	r2, [pc, #104]	@ (80007d0 <Button_GetPressed+0x118>)
 8000766:	011b      	lsls	r3, r3, #4
 8000768:	4413      	add	r3, r2
 800076a:	330c      	adds	r3, #12
 800076c:	7afa      	ldrb	r2, [r7, #11]
 800076e:	701a      	strb	r2, [r3, #0]
 8000770:	79fb      	ldrb	r3, [r7, #7]
 8000772:	4a17      	ldr	r2, [pc, #92]	@ (80007d0 <Button_GetPressed+0x118>)
 8000774:	011b      	lsls	r3, r3, #4
 8000776:	4413      	add	r3, r2
 8000778:	330d      	adds	r3, #13
 800077a:	781a      	ldrb	r2, [r3, #0]
 800077c:	79fb      	ldrb	r3, [r7, #7]
 800077e:	4914      	ldr	r1, [pc, #80]	@ (80007d0 <Button_GetPressed+0x118>)
 8000780:	011b      	lsls	r3, r3, #4
 8000782:	440b      	add	r3, r1
 8000784:	330c      	adds	r3, #12
 8000786:	781b      	ldrb	r3, [r3, #0]
 8000788:	429a      	cmp	r2, r3
 800078a:	d01c      	beq.n	80007c6 <Button_GetPressed+0x10e>
 800078c:	79fa      	ldrb	r2, [r7, #7]
 800078e:	79fb      	ldrb	r3, [r7, #7]
 8000790:	490f      	ldr	r1, [pc, #60]	@ (80007d0 <Button_GetPressed+0x118>)
 8000792:	0112      	lsls	r2, r2, #4
 8000794:	440a      	add	r2, r1
 8000796:	320c      	adds	r2, #12
 8000798:	7811      	ldrb	r1, [r2, #0]
 800079a:	4a0d      	ldr	r2, [pc, #52]	@ (80007d0 <Button_GetPressed+0x118>)
 800079c:	011b      	lsls	r3, r3, #4
 800079e:	4413      	add	r3, r2
 80007a0:	330d      	adds	r3, #13
 80007a2:	460a      	mov	r2, r1
 80007a4:	701a      	strb	r2, [r3, #0]
 80007a6:	79fb      	ldrb	r3, [r7, #7]
 80007a8:	4a09      	ldr	r2, [pc, #36]	@ (80007d0 <Button_GetPressed+0x118>)
 80007aa:	011b      	lsls	r3, r3, #4
 80007ac:	4413      	add	r3, r2
 80007ae:	330c      	adds	r3, #12
 80007b0:	781a      	ldrb	r2, [r3, #0]
 80007b2:	79fb      	ldrb	r3, [r7, #7]
 80007b4:	4906      	ldr	r1, [pc, #24]	@ (80007d0 <Button_GetPressed+0x118>)
 80007b6:	011b      	lsls	r3, r3, #4
 80007b8:	440b      	add	r3, r1
 80007ba:	3306      	adds	r3, #6
 80007bc:	781b      	ldrb	r3, [r3, #0]
 80007be:	429a      	cmp	r2, r3
 80007c0:	d101      	bne.n	80007c6 <Button_GetPressed+0x10e>
 80007c2:	2301      	movs	r3, #1
 80007c4:	e000      	b.n	80007c8 <Button_GetPressed+0x110>
 80007c6:	2300      	movs	r3, #0
 80007c8:	4618      	mov	r0, r3
 80007ca:	3710      	adds	r7, #16
 80007cc:	46bd      	mov	sp, r7
 80007ce:	bd80      	pop	{r7, pc}
 80007d0:	20000000 	.word	0x20000000

080007d4 <delay_us>:
 80007d4:	b480      	push	{r7}
 80007d6:	b085      	sub	sp, #20
 80007d8:	af00      	add	r7, sp, #0
 80007da:	4603      	mov	r3, r0
 80007dc:	80fb      	strh	r3, [r7, #6]
 80007de:	4b0a      	ldr	r3, [pc, #40]	@ (8000808 <delay_us+0x34>)
 80007e0:	681b      	ldr	r3, [r3, #0]
 80007e2:	6a5b      	ldr	r3, [r3, #36]	@ 0x24
 80007e4:	81fb      	strh	r3, [r7, #14]
 80007e6:	bf00      	nop
 80007e8:	4b07      	ldr	r3, [pc, #28]	@ (8000808 <delay_us+0x34>)
 80007ea:	681b      	ldr	r3, [r3, #0]
 80007ec:	6a5a      	ldr	r2, [r3, #36]	@ 0x24
 80007ee:	89fb      	ldrh	r3, [r7, #14]
 80007f0:	1ad2      	subs	r2, r2, r3
 80007f2:	88fb      	ldrh	r3, [r7, #6]
 80007f4:	429a      	cmp	r2, r3
 80007f6:	d3f7      	bcc.n	80007e8 <delay_us+0x14>
 80007f8:	bf00      	nop
 80007fa:	bf00      	nop
 80007fc:	3714      	adds	r7, #20
 80007fe:	46bd      	mov	sp, r7
 8000800:	f85d 7b04 	ldr.w	r7, [sp], #4
 8000804:	4770      	bx	lr
 8000806:	bf00      	nop
 8000808:	2000025c 	.word	0x2000025c

0800080c <ClearAllRequests>:
 800080c:	b480      	push	{r7}
 800080e:	b083      	sub	sp, #12
 8000810:	af00      	add	r7, sp, #0
 8000812:	2301      	movs	r3, #1
 8000814:	607b      	str	r3, [r7, #4]
 8000816:	e011      	b.n	800083c <ClearAllRequests+0x30>
 8000818:	4a0d      	ldr	r2, [pc, #52]	@ (8000850 <ClearAllRequests+0x44>)
 800081a:	687b      	ldr	r3, [r7, #4]
 800081c:	4413      	add	r3, r2
 800081e:	2200      	movs	r2, #0
 8000820:	701a      	strb	r2, [r3, #0]
 8000822:	4a0c      	ldr	r2, [pc, #48]	@ (8000854 <ClearAllRequests+0x48>)
 8000824:	687b      	ldr	r3, [r7, #4]
 8000826:	4413      	add	r3, r2
 8000828:	2200      	movs	r2, #0
 800082a:	701a      	strb	r2, [r3, #0]
 800082c:	4a0a      	ldr	r2, [pc, #40]	@ (8000858 <ClearAllRequests+0x4c>)
 800082e:	687b      	ldr	r3, [r7, #4]
 8000830:	4413      	add	r3, r2
 8000832:	2200      	movs	r2, #0
 8000834:	701a      	strb	r2, [r3, #0]
 8000836:	687b      	ldr	r3, [r7, #4]
 8000838:	3301      	adds	r3, #1
 800083a:	607b      	str	r3, [r7, #4]
 800083c:	687b      	ldr	r3, [r7, #4]
 800083e:	2b03      	cmp	r3, #3
 8000840:	ddea      	ble.n	8000818 <ClearAllRequests+0xc>
 8000842:	bf00      	nop
 8000844:	bf00      	nop
 8000846:	370c      	adds	r7, #12
 8000848:	46bd      	mov	sp, r7
 800084a:	f85d 7b04 	ldr.w	r7, [sp], #4
 800084e:	4770      	bx	lr
 8000850:	20000128 	.word	0x20000128
 8000854:	2000012c 	.word	0x2000012c
 8000858:	20000130 	.word	0x20000130

0800085c <ShouldStopHere>:
 800085c:	b480      	push	{r7}
 800085e:	b083      	sub	sp, #12
 8000860:	af00      	add	r7, sp, #0
 8000862:	4603      	mov	r3, r0
 8000864:	460a      	mov	r2, r1
 8000866:	71fb      	strb	r3, [r7, #7]
 8000868:	4613      	mov	r3, r2
 800086a:	71bb      	strb	r3, [r7, #6]
 800086c:	79fb      	ldrb	r3, [r7, #7]
 800086e:	4a15      	ldr	r2, [pc, #84]	@ (80008c4 <ShouldStopHere+0x68>)
 8000870:	5cd3      	ldrb	r3, [r2, r3]
 8000872:	2b00      	cmp	r3, #0
 8000874:	d001      	beq.n	800087a <ShouldStopHere+0x1e>
 8000876:	2301      	movs	r3, #1
 8000878:	e01d      	b.n	80008b6 <ShouldStopHere+0x5a>
 800087a:	79bb      	ldrb	r3, [r7, #6]
 800087c:	2b01      	cmp	r3, #1
 800087e:	d103      	bne.n	8000888 <ShouldStopHere+0x2c>
 8000880:	79fb      	ldrb	r3, [r7, #7]
 8000882:	4a11      	ldr	r2, [pc, #68]	@ (80008c8 <ShouldStopHere+0x6c>)
 8000884:	5cd3      	ldrb	r3, [r2, r3]
 8000886:	e016      	b.n	80008b6 <ShouldStopHere+0x5a>
 8000888:	79bb      	ldrb	r3, [r7, #6]
 800088a:	2b02      	cmp	r3, #2
 800088c:	d103      	bne.n	8000896 <ShouldStopHere+0x3a>
 800088e:	79fb      	ldrb	r3, [r7, #7]
 8000890:	4a0e      	ldr	r2, [pc, #56]	@ (80008cc <ShouldStopHere+0x70>)
 8000892:	5cd3      	ldrb	r3, [r2, r3]
 8000894:	e00f      	b.n	80008b6 <ShouldStopHere+0x5a>
 8000896:	79fb      	ldrb	r3, [r7, #7]
 8000898:	4a0b      	ldr	r2, [pc, #44]	@ (80008c8 <ShouldStopHere+0x6c>)
 800089a:	5cd3      	ldrb	r3, [r2, r3]
 800089c:	2b00      	cmp	r3, #0
 800089e:	d104      	bne.n	80008aa <ShouldStopHere+0x4e>
 80008a0:	79fb      	ldrb	r3, [r7, #7]
 80008a2:	4a0a      	ldr	r2, [pc, #40]	@ (80008cc <ShouldStopHere+0x70>)
 80008a4:	5cd3      	ldrb	r3, [r2, r3]
 80008a6:	2b00      	cmp	r3, #0
 80008a8:	d001      	beq.n	80008ae <ShouldStopHere+0x52>
 80008aa:	2301      	movs	r3, #1
 80008ac:	e000      	b.n	80008b0 <ShouldStopHere+0x54>
 80008ae:	2300      	movs	r3, #0
 80008b0:	f003 0301 	and.w	r3, r3, #1
 80008b4:	b2db      	uxtb	r3, r3
 80008b6:	4618      	mov	r0, r3
 80008b8:	370c      	adds	r7, #12
 80008ba:	46bd      	mov	sp, r7
 80008bc:	f85d 7b04 	ldr.w	r7, [sp], #4
 80008c0:	4770      	bx	lr
 80008c2:	bf00      	nop
 80008c4:	20000128 	.word	0x20000128
 80008c8:	2000012c 	.word	0x2000012c
 80008cc:	20000130 	.word	0x20000130

080008d0 <ConsumeStopRequests>:
 80008d0:	b480      	push	{r7}
 80008d2:	b083      	sub	sp, #12
 80008d4:	af00      	add	r7, sp, #0
 80008d6:	4603      	mov	r3, r0
 80008d8:	71fb      	strb	r3, [r7, #7]
 80008da:	79fb      	ldrb	r3, [r7, #7]
 80008dc:	4a08      	ldr	r2, [pc, #32]	@ (8000900 <ConsumeStopRequests+0x30>)
 80008de:	2100      	movs	r1, #0
 80008e0:	54d1      	strb	r1, [r2, r3]
 80008e2:	79fb      	ldrb	r3, [r7, #7]
 80008e4:	4a07      	ldr	r2, [pc, #28]	@ (8000904 <ConsumeStopRequests+0x34>)
 80008e6:	2100      	movs	r1, #0
 80008e8:	54d1      	strb	r1, [r2, r3]
 80008ea:	79fb      	ldrb	r3, [r7, #7]
 80008ec:	4a06      	ldr	r2, [pc, #24]	@ (8000908 <ConsumeStopRequests+0x38>)
 80008ee:	2100      	movs	r1, #0
 80008f0:	54d1      	strb	r1, [r2, r3]
 80008f2:	bf00      	nop
 80008f4:	370c      	adds	r7, #12
 80008f6:	46bd      	mov	sp, r7
 80008f8:	f85d 7b04 	ldr.w	r7, [sp], #4
 80008fc:	4770      	bx	lr
 80008fe:	bf00      	nop
 8000900:	20000128 	.word	0x20000128
 8000904:	2000012c 	.word	0x2000012c
 8000908:	20000130 	.word	0x20000130

0800090c <PickNextTarget>:
 800090c:	b480      	push	{r7}
 800090e:	b08b      	sub	sp, #44	@ 0x2c
 8000910:	af00      	add	r7, sp, #0
 8000912:	4603      	mov	r3, r0
 8000914:	6039      	str	r1, [r7, #0]
 8000916:	71fb      	strb	r3, [r7, #7]
 8000918:	79fb      	ldrb	r3, [r7, #7]
 800091a:	2b01      	cmp	r3, #1
 800091c:	d147      	bne.n	80009ae <PickNextTarget+0xa2>
 800091e:	4b75      	ldr	r3, [pc, #468]	@ (8000af4 <PickNextTarget+0x1e8>)
 8000920:	781b      	ldrb	r3, [r3, #0]
 8000922:	3301      	adds	r3, #1
 8000924:	627b      	str	r3, [r7, #36]	@ 0x24
 8000926:	e01a      	b.n	800095e <PickNextTarget+0x52>
 8000928:	4a73      	ldr	r2, [pc, #460]	@ (8000af8 <PickNextTarget+0x1ec>)
 800092a:	6a7b      	ldr	r3, [r7, #36]	@ 0x24
 800092c:	4413      	add	r3, r2
 800092e:	781b      	ldrb	r3, [r3, #0]
 8000930:	2b00      	cmp	r3, #0
 8000932:	d10b      	bne.n	800094c <PickNextTarget+0x40>
 8000934:	4a71      	ldr	r2, [pc, #452]	@ (8000afc <PickNextTarget+0x1f0>)
 8000936:	6a7b      	ldr	r3, [r7, #36]	@ 0x24
 8000938:	4413      	add	r3, r2
 800093a:	781b      	ldrb	r3, [r3, #0]
 800093c:	2b00      	cmp	r3, #0
 800093e:	d105      	bne.n	800094c <PickNextTarget+0x40>
 8000940:	4a6f      	ldr	r2, [pc, #444]	@ (8000b00 <PickNextTarget+0x1f4>)
 8000942:	6a7b      	ldr	r3, [r7, #36]	@ 0x24
 8000944:	4413      	add	r3, r2
 8000946:	781b      	ldrb	r3, [r3, #0]
 8000948:	2b00      	cmp	r3, #0
 800094a:	d005      	beq.n	8000958 <PickNextTarget+0x4c>
 800094c:	6a7b      	ldr	r3, [r7, #36]	@ 0x24
 800094e:	b2da      	uxtb	r2, r3
 8000950:	683b      	ldr	r3, [r7, #0]
 8000952:	701a      	strb	r2, [r3, #0]
 8000954:	2301      	movs	r3, #1
 8000956:	e0c7      	b.n	8000ae8 <PickNextTarget+0x1dc>
 8000958:	6a7b      	ldr	r3, [r7, #36]	@ 0x24
 800095a:	3301      	adds	r3, #1
 800095c:	627b      	str	r3, [r7, #36]	@ 0x24
 800095e:	6a7b      	ldr	r3, [r7, #36]	@ 0x24
 8000960:	2b03      	cmp	r3, #3
 8000962:	dde1      	ble.n	8000928 <PickNextTarget+0x1c>
 8000964:	4b63      	ldr	r3, [pc, #396]	@ (8000af4 <PickNextTarget+0x1e8>)
 8000966:	781b      	ldrb	r3, [r3, #0]
 8000968:	3b01      	subs	r3, #1
 800096a:	623b      	str	r3, [r7, #32]
 800096c:	e01a      	b.n	80009a4 <PickNextTarget+0x98>
 800096e:	4a62      	ldr	r2, [pc, #392]	@ (8000af8 <PickNextTarget+0x1ec>)
 8000970:	6a3b      	ldr	r3, [r7, #32]
 8000972:	4413      	add	r3, r2
 8000974:	781b      	ldrb	r3, [r3, #0]
 8000976:	2b00      	cmp	r3, #0
 8000978:	d10b      	bne.n	8000992 <PickNextTarget+0x86>
 800097a:	4a60      	ldr	r2, [pc, #384]	@ (8000afc <PickNextTarget+0x1f0>)
 800097c:	6a3b      	ldr	r3, [r7, #32]
 800097e:	4413      	add	r3, r2
 8000980:	781b      	ldrb	r3, [r3, #0]
 8000982:	2b00      	cmp	r3, #0
 8000984:	d105      	bne.n	8000992 <PickNextTarget+0x86>
 8000986:	4a5e      	ldr	r2, [pc, #376]	@ (8000b00 <PickNextTarget+0x1f4>)
 8000988:	6a3b      	ldr	r3, [r7, #32]
 800098a:	4413      	add	r3, r2
 800098c:	781b      	ldrb	r3, [r3, #0]
 800098e:	2b00      	cmp	r3, #0
 8000990:	d005      	beq.n	800099e <PickNextTarget+0x92>
 8000992:	6a3b      	ldr	r3, [r7, #32]
 8000994:	b2da      	uxtb	r2, r3
 8000996:	683b      	ldr	r3, [r7, #0]
 8000998:	701a      	strb	r2, [r3, #0]
 800099a:	2301      	movs	r3, #1
 800099c:	e0a4      	b.n	8000ae8 <PickNextTarget+0x1dc>
 800099e:	6a3b      	ldr	r3, [r7, #32]
 80009a0:	3b01      	subs	r3, #1
 80009a2:	623b      	str	r3, [r7, #32]
 80009a4:	6a3b      	ldr	r3, [r7, #32]
 80009a6:	2b00      	cmp	r3, #0
 80009a8:	dce1      	bgt.n	800096e <PickNextTarget+0x62>
 80009aa:	2300      	movs	r3, #0
 80009ac:	e09c      	b.n	8000ae8 <PickNextTarget+0x1dc>
 80009ae:	79fb      	ldrb	r3, [r7, #7]
 80009b0:	2b02      	cmp	r3, #2
 80009b2:	d147      	bne.n	8000a44 <PickNextTarget+0x138>
 80009b4:	4b4f      	ldr	r3, [pc, #316]	@ (8000af4 <PickNextTarget+0x1e8>)
 80009b6:	781b      	ldrb	r3, [r3, #0]
 80009b8:	3b01      	subs	r3, #1
 80009ba:	61fb      	str	r3, [r7, #28]
 80009bc:	e01a      	b.n	80009f4 <PickNextTarget+0xe8>
 80009be:	4a4e      	ldr	r2, [pc, #312]	@ (8000af8 <PickNextTarget+0x1ec>)
 80009c0:	69fb      	ldr	r3, [r7, #28]
 80009c2:	4413      	add	r3, r2
 80009c4:	781b      	ldrb	r3, [r3, #0]
 80009c6:	2b00      	cmp	r3, #0
 80009c8:	d10b      	bne.n	80009e2 <PickNextTarget+0xd6>
 80009ca:	4a4c      	ldr	r2, [pc, #304]	@ (8000afc <PickNextTarget+0x1f0>)
 80009cc:	69fb      	ldr	r3, [r7, #28]
 80009ce:	4413      	add	r3, r2
 80009d0:	781b      	ldrb	r3, [r3, #0]
 80009d2:	2b00      	cmp	r3, #0
 80009d4:	d105      	bne.n	80009e2 <PickNextTarget+0xd6>
 80009d6:	4a4a      	ldr	r2, [pc, #296]	@ (8000b00 <PickNextTarget+0x1f4>)
 80009d8:	69fb      	ldr	r3, [r7, #28]
 80009da:	4413      	add	r3, r2
 80009dc:	781b      	ldrb	r3, [r3, #0]
 80009de:	2b00      	cmp	r3, #0
 80009e0:	d005      	beq.n	80009ee <PickNextTarget+0xe2>
 80009e2:	69fb      	ldr	r3, [r7, #28]
 80009e4:	b2da      	uxtb	r2, r3
 80009e6:	683b      	ldr	r3, [r7, #0]
 80009e8:	701a      	strb	r2, [r3, #0]
 80009ea:	2301      	movs	r3, #1
 80009ec:	e07c      	b.n	8000ae8 <PickNextTarget+0x1dc>
 80009ee:	69fb      	ldr	r3, [r7, #28]
 80009f0:	3b01      	subs	r3, #1
 80009f2:	61fb      	str	r3, [r7, #28]
 80009f4:	69fb      	ldr	r3, [r7, #28]
 80009f6:	2b00      	cmp	r3, #0
 80009f8:	dce1      	bgt.n	80009be <PickNextTarget+0xb2>
 80009fa:	4b3e      	ldr	r3, [pc, #248]	@ (8000af4 <PickNextTarget+0x1e8>)
 80009fc:	781b      	ldrb	r3, [r3, #0]
 80009fe:	3301      	adds	r3, #1
 8000a00:	61bb      	str	r3, [r7, #24]
 8000a02:	e01a      	b.n	8000a3a <PickNextTarget+0x12e>
 8000a04:	4a3c      	ldr	r2, [pc, #240]	@ (8000af8 <PickNextTarget+0x1ec>)
 8000a06:	69bb      	ldr	r3, [r7, #24]
 8000a08:	4413      	add	r3, r2
 8000a0a:	781b      	ldrb	r3, [r3, #0]
 8000a0c:	2b00      	cmp	r3, #0
 8000a0e:	d10b      	bne.n	8000a28 <PickNextTarget+0x11c>
 8000a10:	4a3a      	ldr	r2, [pc, #232]	@ (8000afc <PickNextTarget+0x1f0>)
 8000a12:	69bb      	ldr	r3, [r7, #24]
 8000a14:	4413      	add	r3, r2
 8000a16:	781b      	ldrb	r3, [r3, #0]
 8000a18:	2b00      	cmp	r3, #0
 8000a1a:	d105      	bne.n	8000a28 <PickNextTarget+0x11c>
 8000a1c:	4a38      	ldr	r2, [pc, #224]	@ (8000b00 <PickNextTarget+0x1f4>)
 8000a1e:	69bb      	ldr	r3, [r7, #24]
 8000a20:	4413      	add	r3, r2
 8000a22:	781b      	ldrb	r3, [r3, #0]
 8000a24:	2b00      	cmp	r3, #0
 8000a26:	d005      	beq.n	8000a34 <PickNextTarget+0x128>
 8000a28:	69bb      	ldr	r3, [r7, #24]
 8000a2a:	b2da      	uxtb	r2, r3
 8000a2c:	683b      	ldr	r3, [r7, #0]
 8000a2e:	701a      	strb	r2, [r3, #0]
 8000a30:	2301      	movs	r3, #1
 8000a32:	e059      	b.n	8000ae8 <PickNextTarget+0x1dc>
 8000a34:	69bb      	ldr	r3, [r7, #24]
 8000a36:	3301      	adds	r3, #1
 8000a38:	61bb      	str	r3, [r7, #24]
 8000a3a:	69bb      	ldr	r3, [r7, #24]
 8000a3c:	2b03      	cmp	r3, #3
 8000a3e:	dde1      	ble.n	8000a04 <PickNextTarget+0xf8>
 8000a40:	2300      	movs	r3, #0
 8000a42:	e051      	b.n	8000ae8 <PickNextTarget+0x1dc>
 8000a44:	2300      	movs	r3, #0
 8000a46:	617b      	str	r3, [r7, #20]
 8000a48:	e04a      	b.n	8000ae0 <PickNextTarget+0x1d4>
 8000a4a:	4b2a      	ldr	r3, [pc, #168]	@ (8000af4 <PickNextTarget+0x1e8>)
 8000a4c:	781b      	ldrb	r3, [r3, #0]
 8000a4e:	461a      	mov	r2, r3
 8000a50:	697b      	ldr	r3, [r7, #20]
 8000a52:	4413      	add	r3, r2
 8000a54:	613b      	str	r3, [r7, #16]
 8000a56:	4b27      	ldr	r3, [pc, #156]	@ (8000af4 <PickNextTarget+0x1e8>)
 8000a58:	781b      	ldrb	r3, [r3, #0]
 8000a5a:	461a      	mov	r2, r3
 8000a5c:	697b      	ldr	r3, [r7, #20]
 8000a5e:	1ad3      	subs	r3, r2, r3
 8000a60:	60fb      	str	r3, [r7, #12]
 8000a62:	693b      	ldr	r3, [r7, #16]
 8000a64:	2b00      	cmp	r3, #0
 8000a66:	dd1a      	ble.n	8000a9e <PickNextTarget+0x192>
 8000a68:	693b      	ldr	r3, [r7, #16]
 8000a6a:	2b03      	cmp	r3, #3
 8000a6c:	dc17      	bgt.n	8000a9e <PickNextTarget+0x192>
 8000a6e:	4a22      	ldr	r2, [pc, #136]	@ (8000af8 <PickNextTarget+0x1ec>)
 8000a70:	693b      	ldr	r3, [r7, #16]
 8000a72:	4413      	add	r3, r2
 8000a74:	781b      	ldrb	r3, [r3, #0]
 8000a76:	2b00      	cmp	r3, #0
 8000a78:	d10b      	bne.n	8000a92 <PickNextTarget+0x186>
 8000a7a:	4a20      	ldr	r2, [pc, #128]	@ (8000afc <PickNextTarget+0x1f0>)
 8000a7c:	693b      	ldr	r3, [r7, #16]
 8000a7e:	4413      	add	r3, r2
 8000a80:	781b      	ldrb	r3, [r3, #0]
 8000a82:	2b00      	cmp	r3, #0
 8000a84:	d105      	bne.n	8000a92 <PickNextTarget+0x186>
 8000a86:	4a1e      	ldr	r2, [pc, #120]	@ (8000b00 <PickNextTarget+0x1f4>)
 8000a88:	693b      	ldr	r3, [r7, #16]
 8000a8a:	4413      	add	r3, r2
 8000a8c:	781b      	ldrb	r3, [r3, #0]
 8000a8e:	2b00      	cmp	r3, #0
 8000a90:	d005      	beq.n	8000a9e <PickNextTarget+0x192>
 8000a92:	693b      	ldr	r3, [r7, #16]
 8000a94:	b2da      	uxtb	r2, r3
 8000a96:	683b      	ldr	r3, [r7, #0]
 8000a98:	701a      	strb	r2, [r3, #0]
 8000a9a:	2301      	movs	r3, #1
 8000a9c:	e024      	b.n	8000ae8 <PickNextTarget+0x1dc>
 8000a9e:	68fb      	ldr	r3, [r7, #12]
 8000aa0:	2b00      	cmp	r3, #0
 8000aa2:	dd1a      	ble.n	8000ada <PickNextTarget+0x1ce>
 8000aa4:	68fb      	ldr	r3, [r7, #12]
 8000aa6:	2b03      	cmp	r3, #3
 8000aa8:	dc17      	bgt.n	8000ada <PickNextTarget+0x1ce>
 8000aaa:	4a13      	ldr	r2, [pc, #76]	@ (8000af8 <PickNextTarget+0x1ec>)
 8000aac:	68fb      	ldr	r3, [r7, #12]
 8000aae:	4413      	add	r3, r2
 8000ab0:	781b      	ldrb	r3, [r3, #0]
 8000ab2:	2b00      	cmp	r3, #0
 8000ab4:	d10b      	bne.n	8000ace <PickNextTarget+0x1c2>
 8000ab6:	4a11      	ldr	r2, [pc, #68]	@ (8000afc <PickNextTarget+0x1f0>)
 8000ab8:	68fb      	ldr	r3, [r7, #12]
 8000aba:	4413      	add	r3, r2
 8000abc:	781b      	ldrb	r3, [r3, #0]
 8000abe:	2b00      	cmp	r3, #0
 8000ac0:	d105      	bne.n	8000ace <PickNextTarget+0x1c2>
 8000ac2:	4a0f      	ldr	r2, [pc, #60]	@ (8000b00 <PickNextTarget+0x1f4>)
 8000ac4:	68fb      	ldr	r3, [r7, #12]
 8000ac6:	4413      	add	r3, r2
 8000ac8:	781b      	ldrb	r3, [r3, #0]
 8000aca:	2b00      	cmp	r3, #0
 8000acc:	d005      	beq.n	8000ada <PickNextTarget+0x1ce>
 8000ace:	68fb      	ldr	r3, [r7, #12]
 8000ad0:	b2da      	uxtb	r2, r3
 8000ad2:	683b      	ldr	r3, [r7, #0]
 8000ad4:	701a      	strb	r2, [r3, #0]
 8000ad6:	2301      	movs	r3, #1
 8000ad8:	e006      	b.n	8000ae8 <PickNextTarget+0x1dc>
 8000ada:	697b      	ldr	r3, [r7, #20]
 8000adc:	3301      	adds	r3, #1
 8000ade:	617b      	str	r3, [r7, #20]
 8000ae0:	697b      	ldr	r3, [r7, #20]
 8000ae2:	2b02      	cmp	r3, #2
 8000ae4:	ddb1      	ble.n	8000a4a <PickNextTarget+0x13e>
 8000ae6:	2300      	movs	r3, #0
 8000ae8:	4618      	mov	r0, r3
 8000aea:	372c      	adds	r7, #44	@ 0x2c
 8000aec:	46bd      	mov	sp, r7
 8000aee:	f85d 7b04 	ldr.w	r7, [sp], #4
 8000af2:	4770      	bx	lr
 8000af4:	2000011d 	.word	0x2000011d
 8000af8:	20000128 	.word	0x20000128
 8000afc:	2000012c 	.word	0x2000012c
 8000b00:	20000130 	.word	0x20000130

08000b04 <StartMoveTo>:
 8000b04:	b580      	push	{r7, lr}
 8000b06:	b084      	sub	sp, #16
 8000b08:	af00      	add	r7, sp, #0
 8000b0a:	4603      	mov	r3, r0
 8000b0c:	71fb      	strb	r3, [r7, #7]
 8000b0e:	4b1b      	ldr	r3, [pc, #108]	@ (8000b7c <StartMoveTo+0x78>)
 8000b10:	781b      	ldrb	r3, [r3, #0]
 8000b12:	79fa      	ldrb	r2, [r7, #7]
 8000b14:	429a      	cmp	r2, r3
 8000b16:	d02c      	beq.n	8000b72 <StartMoveTo+0x6e>
 8000b18:	4a19      	ldr	r2, [pc, #100]	@ (8000b80 <StartMoveTo+0x7c>)
 8000b1a:	79fb      	ldrb	r3, [r7, #7]
 8000b1c:	7013      	strb	r3, [r2, #0]
 8000b1e:	f002 f885 	bl	8002c2c <HAL_GetTick>
 8000b22:	4603      	mov	r3, r0
 8000b24:	4a17      	ldr	r2, [pc, #92]	@ (8000b84 <StartMoveTo+0x80>)
 8000b26:	6013      	str	r3, [r2, #0]
 8000b28:	4b14      	ldr	r3, [pc, #80]	@ (8000b7c <StartMoveTo+0x78>)
 8000b2a:	781b      	ldrb	r3, [r3, #0]
 8000b2c:	79fa      	ldrb	r2, [r7, #7]
 8000b2e:	429a      	cmp	r2, r3
 8000b30:	bf94      	ite	ls
 8000b32:	2301      	movls	r3, #1
 8000b34:	2300      	movhi	r3, #0
 8000b36:	b2db      	uxtb	r3, r3
 8000b38:	73fb      	strb	r3, [r7, #15]
 8000b3a:	7bfb      	ldrb	r3, [r7, #15]
 8000b3c:	4618      	mov	r0, r3
 8000b3e:	f001 fd11 	bl	8002564 <Stepper_StartContinuous>
 8000b42:	7bfb      	ldrb	r3, [r7, #15]
 8000b44:	2b00      	cmp	r3, #0
 8000b46:	d101      	bne.n	8000b4c <StartMoveTo+0x48>
 8000b48:	2201      	movs	r2, #1
 8000b4a:	e000      	b.n	8000b4e <StartMoveTo+0x4a>
 8000b4c:	2202      	movs	r2, #2
 8000b4e:	4b0e      	ldr	r3, [pc, #56]	@ (8000b88 <StartMoveTo+0x84>)
 8000b50:	701a      	strb	r2, [r3, #0]
 8000b52:	4b0a      	ldr	r3, [pc, #40]	@ (8000b7c <StartMoveTo+0x78>)
 8000b54:	781b      	ldrb	r3, [r3, #0]
 8000b56:	4619      	mov	r1, r3
 8000b58:	4b09      	ldr	r3, [pc, #36]	@ (8000b80 <StartMoveTo+0x7c>)
 8000b5a:	781b      	ldrb	r3, [r3, #0]
 8000b5c:	461a      	mov	r2, r3
 8000b5e:	7bfb      	ldrb	r3, [r7, #15]
 8000b60:	2b00      	cmp	r3, #0
 8000b62:	d101      	bne.n	8000b68 <StartMoveTo+0x64>
 8000b64:	4b09      	ldr	r3, [pc, #36]	@ (8000b8c <StartMoveTo+0x88>)
 8000b66:	e000      	b.n	8000b6a <StartMoveTo+0x66>
 8000b68:	4b09      	ldr	r3, [pc, #36]	@ (8000b90 <StartMoveTo+0x8c>)
 8000b6a:	480a      	ldr	r0, [pc, #40]	@ (8000b94 <StartMoveTo+0x90>)
 8000b6c:	f000 fee2 	bl	8001934 <Log_Printf>
 8000b70:	e000      	b.n	8000b74 <StartMoveTo+0x70>
 8000b72:	bf00      	nop
 8000b74:	3710      	adds	r7, #16
 8000b76:	46bd      	mov	sp, r7
 8000b78:	bd80      	pop	{r7, pc}
 8000b7a:	bf00      	nop
 8000b7c:	2000011d 	.word	0x2000011d
 8000b80:	2000011e 	.word	0x2000011e
 8000b84:	20000124 	.word	0x20000124
 8000b88:	2000011c 	.word	0x2000011c
 8000b8c:	080068c0 	.word	0x080068c0
 8000b90:	080068c4 	.word	0x080068c4
 8000b94:	080068cc 	.word	0x080068cc

08000b98 <UpdateFloorFromPhoto>:
 8000b98:	b580      	push	{r7, lr}
 8000b9a:	b082      	sub	sp, #8
 8000b9c:	af00      	add	r7, sp, #0
 8000b9e:	f001 f919 	bl	8001dd4 <Photo_GetFSM>
 8000ba2:	4603      	mov	r3, r0
 8000ba4:	71fb      	strb	r3, [r7, #7]
 8000ba6:	79fb      	ldrb	r3, [r7, #7]
 8000ba8:	2b01      	cmp	r3, #1
 8000baa:	d103      	bne.n	8000bb4 <UpdateFloorFromPhoto+0x1c>
 8000bac:	4b0a      	ldr	r3, [pc, #40]	@ (8000bd8 <UpdateFloorFromPhoto+0x40>)
 8000bae:	2201      	movs	r2, #1
 8000bb0:	701a      	strb	r2, [r3, #0]
 8000bb2:	e00c      	b.n	8000bce <UpdateFloorFromPhoto+0x36>
 8000bb4:	79fb      	ldrb	r3, [r7, #7]
 8000bb6:	2b02      	cmp	r3, #2
 8000bb8:	d103      	bne.n	8000bc2 <UpdateFloorFromPhoto+0x2a>
 8000bba:	4b07      	ldr	r3, [pc, #28]	@ (8000bd8 <UpdateFloorFromPhoto+0x40>)
 8000bbc:	2202      	movs	r2, #2
 8000bbe:	701a      	strb	r2, [r3, #0]
 8000bc0:	e005      	b.n	8000bce <UpdateFloorFromPhoto+0x36>
 8000bc2:	79fb      	ldrb	r3, [r7, #7]
 8000bc4:	2b03      	cmp	r3, #3
 8000bc6:	d102      	bne.n	8000bce <UpdateFloorFromPhoto+0x36>
 8000bc8:	4b03      	ldr	r3, [pc, #12]	@ (8000bd8 <UpdateFloorFromPhoto+0x40>)
 8000bca:	2203      	movs	r2, #3
 8000bcc:	701a      	strb	r2, [r3, #0]
 8000bce:	bf00      	nop
 8000bd0:	3708      	adds	r7, #8
 8000bd2:	46bd      	mov	sp, r7
 8000bd4:	bd80      	pop	{r7, pc}
 8000bd6:	bf00      	nop
 8000bd8:	2000011d 	.word	0x2000011d

08000bdc <ReachedTarget>:
 8000bdc:	b580      	push	{r7, lr}
 8000bde:	b082      	sub	sp, #8
 8000be0:	af00      	add	r7, sp, #0
 8000be2:	f001 f8f7 	bl	8001dd4 <Photo_GetFSM>
 8000be6:	4603      	mov	r3, r0
 8000be8:	71fb      	strb	r3, [r7, #7]
 8000bea:	4b10      	ldr	r3, [pc, #64]	@ (8000c2c <ReachedTarget+0x50>)
 8000bec:	781b      	ldrb	r3, [r3, #0]
 8000bee:	2b01      	cmp	r3, #1
 8000bf0:	d104      	bne.n	8000bfc <ReachedTarget+0x20>
 8000bf2:	79fb      	ldrb	r3, [r7, #7]
 8000bf4:	2b01      	cmp	r3, #1
 8000bf6:	d101      	bne.n	8000bfc <ReachedTarget+0x20>
 8000bf8:	2301      	movs	r3, #1
 8000bfa:	e012      	b.n	8000c22 <ReachedTarget+0x46>
 8000bfc:	4b0b      	ldr	r3, [pc, #44]	@ (8000c2c <ReachedTarget+0x50>)
 8000bfe:	781b      	ldrb	r3, [r3, #0]
 8000c00:	2b02      	cmp	r3, #2
 8000c02:	d104      	bne.n	8000c0e <ReachedTarget+0x32>
 8000c04:	79fb      	ldrb	r3, [r7, #7]
 8000c06:	2b02      	cmp	r3, #2
 8000c08:	d101      	bne.n	8000c0e <ReachedTarget+0x32>
 8000c0a:	2301      	movs	r3, #1
 8000c0c:	e009      	b.n	8000c22 <ReachedTarget+0x46>
 8000c0e:	4b07      	ldr	r3, [pc, #28]	@ (8000c2c <ReachedTarget+0x50>)
 8000c10:	781b      	ldrb	r3, [r3, #0]
 8000c12:	2b03      	cmp	r3, #3
 8000c14:	d104      	bne.n	8000c20 <ReachedTarget+0x44>
 8000c16:	79fb      	ldrb	r3, [r7, #7]
 8000c18:	2b03      	cmp	r3, #3
 8000c1a:	d101      	bne.n	8000c20 <ReachedTarget+0x44>
 8000c1c:	2301      	movs	r3, #1
 8000c1e:	e000      	b.n	8000c22 <ReachedTarget+0x46>
 8000c20:	2300      	movs	r3, #0
 8000c22:	4618      	mov	r0, r3
 8000c24:	3708      	adds	r7, #8
 8000c26:	46bd      	mov	sp, r7
 8000c28:	bd80      	pop	{r7, pc}
 8000c2a:	bf00      	nop
 8000c2c:	2000011e 	.word	0x2000011e

08000c30 <Elevator_Init>:
 8000c30:	b580      	push	{r7, lr}
 8000c32:	af00      	add	r7, sp, #0
 8000c34:	4b09      	ldr	r3, [pc, #36]	@ (8000c5c <Elevator_Init+0x2c>)
 8000c36:	2200      	movs	r2, #0
 8000c38:	701a      	strb	r2, [r3, #0]
 8000c3a:	4b09      	ldr	r3, [pc, #36]	@ (8000c60 <Elevator_Init+0x30>)
 8000c3c:	2201      	movs	r2, #1
 8000c3e:	701a      	strb	r2, [r3, #0]
 8000c40:	4b08      	ldr	r3, [pc, #32]	@ (8000c64 <Elevator_Init+0x34>)
 8000c42:	2201      	movs	r2, #1
 8000c44:	701a      	strb	r2, [r3, #0]
 8000c46:	4b08      	ldr	r3, [pc, #32]	@ (8000c68 <Elevator_Init+0x38>)
 8000c48:	2200      	movs	r2, #0
 8000c4a:	601a      	str	r2, [r3, #0]
 8000c4c:	4b07      	ldr	r3, [pc, #28]	@ (8000c6c <Elevator_Init+0x3c>)
 8000c4e:	2200      	movs	r2, #0
 8000c50:	601a      	str	r2, [r3, #0]
 8000c52:	f7ff fddb 	bl	800080c <ClearAllRequests>
 8000c56:	bf00      	nop
 8000c58:	bd80      	pop	{r7, pc}
 8000c5a:	bf00      	nop
 8000c5c:	2000011c 	.word	0x2000011c
 8000c60:	2000011d 	.word	0x2000011d
 8000c64:	2000011e 	.word	0x2000011e
 8000c68:	20000120 	.word	0x20000120
 8000c6c:	20000124 	.word	0x20000124

08000c70 <Elevator_RequestCar>:
 8000c70:	b580      	push	{r7, lr}
 8000c72:	b082      	sub	sp, #8
 8000c74:	af00      	add	r7, sp, #0
 8000c76:	4603      	mov	r3, r0
 8000c78:	71fb      	strb	r3, [r7, #7]
 8000c7a:	79fb      	ldrb	r3, [r7, #7]
 8000c7c:	2b00      	cmp	r3, #0
 8000c7e:	d00c      	beq.n	8000c9a <Elevator_RequestCar+0x2a>
 8000c80:	79fb      	ldrb	r3, [r7, #7]
 8000c82:	2b03      	cmp	r3, #3
 8000c84:	d809      	bhi.n	8000c9a <Elevator_RequestCar+0x2a>
 8000c86:	79fb      	ldrb	r3, [r7, #7]
 8000c88:	4a06      	ldr	r2, [pc, #24]	@ (8000ca4 <Elevator_RequestCar+0x34>)
 8000c8a:	2101      	movs	r1, #1
 8000c8c:	54d1      	strb	r1, [r2, r3]
 8000c8e:	79fb      	ldrb	r3, [r7, #7]
 8000c90:	4619      	mov	r1, r3
 8000c92:	4805      	ldr	r0, [pc, #20]	@ (8000ca8 <Elevator_RequestCar+0x38>)
 8000c94:	f000 fe4e 	bl	8001934 <Log_Printf>
 8000c98:	e000      	b.n	8000c9c <Elevator_RequestCar+0x2c>
 8000c9a:	bf00      	nop
 8000c9c:	3708      	adds	r7, #8
 8000c9e:	46bd      	mov	sp, r7
 8000ca0:	bd80      	pop	{r7, pc}
 8000ca2:	bf00      	nop
 8000ca4:	20000128 	.word	0x20000128
 8000ca8:	080068f4 	.word	0x080068f4

08000cac <Elevator_InputTask>:
 8000cac:	b580      	push	{r7, lr}
 8000cae:	af00      	add	r7, sp, #0
 8000cb0:	2009      	movs	r0, #9
 8000cb2:	f7ff fd01 	bl	80006b8 <Button_GetPressed>
 8000cb6:	4603      	mov	r3, r0
 8000cb8:	2b00      	cmp	r3, #0
 8000cba:	d00a      	beq.n	8000cd2 <Elevator_InputTask+0x26>
 8000cbc:	4b38      	ldr	r3, [pc, #224]	@ (8000da0 <Elevator_InputTask+0xf4>)
 8000cbe:	2206      	movs	r2, #6
 8000cc0:	701a      	strb	r2, [r3, #0]
 8000cc2:	f001 fc65 	bl	8002590 <Stepper_Stop>
 8000cc6:	f000 fe15 	bl	80018f4 <ledOff>
 8000cca:	4836      	ldr	r0, [pc, #216]	@ (8000da4 <Elevator_InputTask+0xf8>)
 8000ccc:	f000 fe32 	bl	8001934 <Log_Printf>
 8000cd0:	e064      	b.n	8000d9c <Elevator_InputTask+0xf0>
 8000cd2:	2005      	movs	r0, #5
 8000cd4:	f7ff fcf0 	bl	80006b8 <Button_GetPressed>
 8000cd8:	4603      	mov	r3, r0
 8000cda:	2b00      	cmp	r3, #0
 8000cdc:	d006      	beq.n	8000cec <Elevator_InputTask+0x40>
 8000cde:	4b30      	ldr	r3, [pc, #192]	@ (8000da0 <Elevator_InputTask+0xf4>)
 8000ce0:	781b      	ldrb	r3, [r3, #0]
 8000ce2:	2b06      	cmp	r3, #6
 8000ce4:	d002      	beq.n	8000cec <Elevator_InputTask+0x40>
 8000ce6:	4b2e      	ldr	r3, [pc, #184]	@ (8000da0 <Elevator_InputTask+0xf4>)
 8000ce8:	2203      	movs	r2, #3
 8000cea:	701a      	strb	r2, [r3, #0]
 8000cec:	2004      	movs	r0, #4
 8000cee:	f7ff fce3 	bl	80006b8 <Button_GetPressed>
 8000cf2:	4603      	mov	r3, r0
 8000cf4:	2b00      	cmp	r3, #0
 8000cf6:	d006      	beq.n	8000d06 <Elevator_InputTask+0x5a>
 8000cf8:	4b29      	ldr	r3, [pc, #164]	@ (8000da0 <Elevator_InputTask+0xf4>)
 8000cfa:	781b      	ldrb	r3, [r3, #0]
 8000cfc:	2b06      	cmp	r3, #6
 8000cfe:	d002      	beq.n	8000d06 <Elevator_InputTask+0x5a>
 8000d00:	4b27      	ldr	r3, [pc, #156]	@ (8000da0 <Elevator_InputTask+0xf4>)
 8000d02:	2205      	movs	r2, #5
 8000d04:	701a      	strb	r2, [r3, #0]
 8000d06:	2006      	movs	r0, #6
 8000d08:	f7ff fcd6 	bl	80006b8 <Button_GetPressed>
 8000d0c:	4603      	mov	r3, r0
 8000d0e:	2b00      	cmp	r3, #0
 8000d10:	d002      	beq.n	8000d18 <Elevator_InputTask+0x6c>
 8000d12:	2001      	movs	r0, #1
 8000d14:	f7ff ffac 	bl	8000c70 <Elevator_RequestCar>
 8000d18:	2007      	movs	r0, #7
 8000d1a:	f7ff fccd 	bl	80006b8 <Button_GetPressed>
 8000d1e:	4603      	mov	r3, r0
 8000d20:	2b00      	cmp	r3, #0
 8000d22:	d002      	beq.n	8000d2a <Elevator_InputTask+0x7e>
 8000d24:	2002      	movs	r0, #2
 8000d26:	f7ff ffa3 	bl	8000c70 <Elevator_RequestCar>
 8000d2a:	2008      	movs	r0, #8
 8000d2c:	f7ff fcc4 	bl	80006b8 <Button_GetPressed>
 8000d30:	4603      	mov	r3, r0
 8000d32:	2b00      	cmp	r3, #0
 8000d34:	d002      	beq.n	8000d3c <Elevator_InputTask+0x90>
 8000d36:	2003      	movs	r0, #3
 8000d38:	f7ff ff9a 	bl	8000c70 <Elevator_RequestCar>
 8000d3c:	2000      	movs	r0, #0
 8000d3e:	f7ff fcbb 	bl	80006b8 <Button_GetPressed>
 8000d42:	4603      	mov	r3, r0
 8000d44:	2b00      	cmp	r3, #0
 8000d46:	d005      	beq.n	8000d54 <Elevator_InputTask+0xa8>
 8000d48:	4b17      	ldr	r3, [pc, #92]	@ (8000da8 <Elevator_InputTask+0xfc>)
 8000d4a:	2201      	movs	r2, #1
 8000d4c:	705a      	strb	r2, [r3, #1]
 8000d4e:	4817      	ldr	r0, [pc, #92]	@ (8000dac <Elevator_InputTask+0x100>)
 8000d50:	f000 fdf0 	bl	8001934 <Log_Printf>
 8000d54:	2001      	movs	r0, #1
 8000d56:	f7ff fcaf 	bl	80006b8 <Button_GetPressed>
 8000d5a:	4603      	mov	r3, r0
 8000d5c:	2b00      	cmp	r3, #0
 8000d5e:	d005      	beq.n	8000d6c <Elevator_InputTask+0xc0>
 8000d60:	4b11      	ldr	r3, [pc, #68]	@ (8000da8 <Elevator_InputTask+0xfc>)
 8000d62:	2201      	movs	r2, #1
 8000d64:	709a      	strb	r2, [r3, #2]
 8000d66:	4812      	ldr	r0, [pc, #72]	@ (8000db0 <Elevator_InputTask+0x104>)
 8000d68:	f000 fde4 	bl	8001934 <Log_Printf>
 8000d6c:	2002      	movs	r0, #2
 8000d6e:	f7ff fca3 	bl	80006b8 <Button_GetPressed>
 8000d72:	4603      	mov	r3, r0
 8000d74:	2b00      	cmp	r3, #0
 8000d76:	d005      	beq.n	8000d84 <Elevator_InputTask+0xd8>
 8000d78:	4b0e      	ldr	r3, [pc, #56]	@ (8000db4 <Elevator_InputTask+0x108>)
 8000d7a:	2201      	movs	r2, #1
 8000d7c:	709a      	strb	r2, [r3, #2]
 8000d7e:	480e      	ldr	r0, [pc, #56]	@ (8000db8 <Elevator_InputTask+0x10c>)
 8000d80:	f000 fdd8 	bl	8001934 <Log_Printf>
 8000d84:	2003      	movs	r0, #3
 8000d86:	f7ff fc97 	bl	80006b8 <Button_GetPressed>
 8000d8a:	4603      	mov	r3, r0
 8000d8c:	2b00      	cmp	r3, #0
 8000d8e:	d005      	beq.n	8000d9c <Elevator_InputTask+0xf0>
 8000d90:	4b08      	ldr	r3, [pc, #32]	@ (8000db4 <Elevator_InputTask+0x108>)
 8000d92:	2201      	movs	r2, #1
 8000d94:	70da      	strb	r2, [r3, #3]
 8000d96:	4809      	ldr	r0, [pc, #36]	@ (8000dbc <Elevator_InputTask+0x110>)
 8000d98:	f000 fdcc 	bl	8001934 <Log_Printf>
 8000d9c:	bd80      	pop	{r7, pc}
 8000d9e:	bf00      	nop
 8000da0:	2000011c 	.word	0x2000011c
 8000da4:	08006904 	.word	0x08006904
 8000da8:	2000012c 	.word	0x2000012c
 8000dac:	08006910 	.word	0x08006910
 8000db0:	0800691c 	.word	0x0800691c
 8000db4:	20000130 	.word	0x20000130
 8000db8:	08006928 	.word	0x08006928
 8000dbc:	08006934 	.word	0x08006934

08000dc0 <Elevator_Task>:
 8000dc0:	b580      	push	{r7, lr}
 8000dc2:	b082      	sub	sp, #8
 8000dc4:	af00      	add	r7, sp, #0
 8000dc6:	f7ff fee7 	bl	8000b98 <UpdateFloorFromPhoto>
 8000dca:	4b9a      	ldr	r3, [pc, #616]	@ (8001034 <Elevator_Task+0x274>)
 8000dcc:	781b      	ldrb	r3, [r3, #0]
 8000dce:	2b06      	cmp	r3, #6
 8000dd0:	f200 812d 	bhi.w	800102e <Elevator_Task+0x26e>
 8000dd4:	a201      	add	r2, pc, #4	@ (adr r2, 8000ddc <Elevator_Task+0x1c>)
 8000dd6:	f852 f023 	ldr.w	pc, [r2, r3, lsl #2]
 8000dda:	bf00      	nop
 8000ddc:	08000e03 	.word	0x08000e03
 8000de0:	08000e65 	.word	0x08000e65
 8000de4:	08000ef5 	.word	0x08000ef5
 8000de8:	08000f83 	.word	0x08000f83
 8000dec:	08000fad 	.word	0x08000fad
 8000df0:	08000fcd 	.word	0x08000fcd
 8000df4:	08000df9 	.word	0x08000df9
 8000df8:	f000 fd7c 	bl	80018f4 <ledOff>
 8000dfc:	f001 fbc8 	bl	8002590 <Stepper_Stop>
 8000e00:	e115      	b.n	800102e <Elevator_Task+0x26e>
 8000e02:	f000 fd77 	bl	80018f4 <ledOff>
 8000e06:	4b8c      	ldr	r3, [pc, #560]	@ (8001038 <Elevator_Task+0x278>)
 8000e08:	781b      	ldrb	r3, [r3, #0]
 8000e0a:	2100      	movs	r1, #0
 8000e0c:	4618      	mov	r0, r3
 8000e0e:	f7ff fd25 	bl	800085c <ShouldStopHere>
 8000e12:	4603      	mov	r3, r0
 8000e14:	2b00      	cmp	r3, #0
 8000e16:	d00e      	beq.n	8000e36 <Elevator_Task+0x76>
 8000e18:	4b87      	ldr	r3, [pc, #540]	@ (8001038 <Elevator_Task+0x278>)
 8000e1a:	781b      	ldrb	r3, [r3, #0]
 8000e1c:	4618      	mov	r0, r3
 8000e1e:	f7ff fd57 	bl	80008d0 <ConsumeStopRequests>
 8000e22:	4b84      	ldr	r3, [pc, #528]	@ (8001034 <Elevator_Task+0x274>)
 8000e24:	2203      	movs	r2, #3
 8000e26:	701a      	strb	r2, [r3, #0]
 8000e28:	4b83      	ldr	r3, [pc, #524]	@ (8001038 <Elevator_Task+0x278>)
 8000e2a:	781b      	ldrb	r3, [r3, #0]
 8000e2c:	4619      	mov	r1, r3
 8000e2e:	4883      	ldr	r0, [pc, #524]	@ (800103c <Elevator_Task+0x27c>)
 8000e30:	f000 fd80 	bl	8001934 <Log_Printf>
 8000e34:	e0fb      	b.n	800102e <Elevator_Task+0x26e>
 8000e36:	1dfb      	adds	r3, r7, #7
 8000e38:	4619      	mov	r1, r3
 8000e3a:	2000      	movs	r0, #0
 8000e3c:	f7ff fd66 	bl	800090c <PickNextTarget>
 8000e40:	4603      	mov	r3, r0
 8000e42:	2b00      	cmp	r3, #0
 8000e44:	f000 80e8 	beq.w	8001018 <Elevator_Task+0x258>
 8000e48:	79fa      	ldrb	r2, [r7, #7]
 8000e4a:	4b7b      	ldr	r3, [pc, #492]	@ (8001038 <Elevator_Task+0x278>)
 8000e4c:	781b      	ldrb	r3, [r3, #0]
 8000e4e:	429a      	cmp	r2, r3
 8000e50:	d103      	bne.n	8000e5a <Elevator_Task+0x9a>
 8000e52:	4b78      	ldr	r3, [pc, #480]	@ (8001034 <Elevator_Task+0x274>)
 8000e54:	2203      	movs	r2, #3
 8000e56:	701a      	strb	r2, [r3, #0]
 8000e58:	e0de      	b.n	8001018 <Elevator_Task+0x258>
 8000e5a:	79fb      	ldrb	r3, [r7, #7]
 8000e5c:	4618      	mov	r0, r3
 8000e5e:	f7ff fe51 	bl	8000b04 <StartMoveTo>
 8000e62:	e0d9      	b.n	8001018 <Elevator_Task+0x258>
 8000e64:	f000 fcb6 	bl	80017d4 <ledUp>
 8000e68:	f001 fee0 	bl	8002c2c <HAL_GetTick>
 8000e6c:	4602      	mov	r2, r0
 8000e6e:	4b74      	ldr	r3, [pc, #464]	@ (8001040 <Elevator_Task+0x280>)
 8000e70:	681b      	ldr	r3, [r3, #0]
 8000e72:	1ad3      	subs	r3, r2, r3
 8000e74:	f644 6220 	movw	r2, #20000	@ 0x4e20
 8000e78:	4293      	cmp	r3, r2
 8000e7a:	d90a      	bls.n	8000e92 <Elevator_Task+0xd2>
 8000e7c:	f001 fb88 	bl	8002590 <Stepper_Stop>
 8000e80:	f000 fd38 	bl	80018f4 <ledOff>
 8000e84:	4b6b      	ldr	r3, [pc, #428]	@ (8001034 <Elevator_Task+0x274>)
 8000e86:	2200      	movs	r2, #0
 8000e88:	701a      	strb	r2, [r3, #0]
 8000e8a:	486e      	ldr	r0, [pc, #440]	@ (8001044 <Elevator_Task+0x284>)
 8000e8c:	f000 fd52 	bl	8001934 <Log_Printf>
 8000e90:	e0cd      	b.n	800102e <Elevator_Task+0x26e>
 8000e92:	f7ff fea3 	bl	8000bdc <ReachedTarget>
 8000e96:	4603      	mov	r3, r0
 8000e98:	2b00      	cmp	r3, #0
 8000e9a:	f000 80bf 	beq.w	800101c <Elevator_Task+0x25c>
 8000e9e:	f001 fb77 	bl	8002590 <Stepper_Stop>
 8000ea2:	4b65      	ldr	r3, [pc, #404]	@ (8001038 <Elevator_Task+0x278>)
 8000ea4:	781b      	ldrb	r3, [r3, #0]
 8000ea6:	4619      	mov	r1, r3
 8000ea8:	4867      	ldr	r0, [pc, #412]	@ (8001048 <Elevator_Task+0x288>)
 8000eaa:	f000 fd43 	bl	8001934 <Log_Printf>
 8000eae:	4b62      	ldr	r3, [pc, #392]	@ (8001038 <Elevator_Task+0x278>)
 8000eb0:	781b      	ldrb	r3, [r3, #0]
 8000eb2:	2101      	movs	r1, #1
 8000eb4:	4618      	mov	r0, r3
 8000eb6:	f7ff fcd1 	bl	800085c <ShouldStopHere>
 8000eba:	4603      	mov	r3, r0
 8000ebc:	2b00      	cmp	r3, #0
 8000ebe:	d008      	beq.n	8000ed2 <Elevator_Task+0x112>
 8000ec0:	4b5d      	ldr	r3, [pc, #372]	@ (8001038 <Elevator_Task+0x278>)
 8000ec2:	781b      	ldrb	r3, [r3, #0]
 8000ec4:	4618      	mov	r0, r3
 8000ec6:	f7ff fd03 	bl	80008d0 <ConsumeStopRequests>
 8000eca:	4b5a      	ldr	r3, [pc, #360]	@ (8001034 <Elevator_Task+0x274>)
 8000ecc:	2203      	movs	r2, #3
 8000ece:	701a      	strb	r2, [r3, #0]
 8000ed0:	e0a4      	b.n	800101c <Elevator_Task+0x25c>
 8000ed2:	1dbb      	adds	r3, r7, #6
 8000ed4:	4619      	mov	r1, r3
 8000ed6:	2001      	movs	r0, #1
 8000ed8:	f7ff fd18 	bl	800090c <PickNextTarget>
 8000edc:	4603      	mov	r3, r0
 8000ede:	2b00      	cmp	r3, #0
 8000ee0:	d004      	beq.n	8000eec <Elevator_Task+0x12c>
 8000ee2:	79bb      	ldrb	r3, [r7, #6]
 8000ee4:	4618      	mov	r0, r3
 8000ee6:	f7ff fe0d 	bl	8000b04 <StartMoveTo>
 8000eea:	e097      	b.n	800101c <Elevator_Task+0x25c>
 8000eec:	4b51      	ldr	r3, [pc, #324]	@ (8001034 <Elevator_Task+0x274>)
 8000eee:	2200      	movs	r2, #0
 8000ef0:	701a      	strb	r2, [r3, #0]
 8000ef2:	e093      	b.n	800101c <Elevator_Task+0x25c>
 8000ef4:	f000 fcb6 	bl	8001864 <ledDown>
 8000ef8:	f001 fe98 	bl	8002c2c <HAL_GetTick>
 8000efc:	4602      	mov	r2, r0
 8000efe:	4b50      	ldr	r3, [pc, #320]	@ (8001040 <Elevator_Task+0x280>)
 8000f00:	681b      	ldr	r3, [r3, #0]
 8000f02:	1ad3      	subs	r3, r2, r3
 8000f04:	f644 6220 	movw	r2, #20000	@ 0x4e20
 8000f08:	4293      	cmp	r3, r2
 8000f0a:	d90a      	bls.n	8000f22 <Elevator_Task+0x162>
 8000f0c:	f001 fb40 	bl	8002590 <Stepper_Stop>
 8000f10:	f000 fcf0 	bl	80018f4 <ledOff>
 8000f14:	4b47      	ldr	r3, [pc, #284]	@ (8001034 <Elevator_Task+0x274>)
 8000f16:	2200      	movs	r2, #0
 8000f18:	701a      	strb	r2, [r3, #0]
 8000f1a:	484a      	ldr	r0, [pc, #296]	@ (8001044 <Elevator_Task+0x284>)
 8000f1c:	f000 fd0a 	bl	8001934 <Log_Printf>
 8000f20:	e085      	b.n	800102e <Elevator_Task+0x26e>
 8000f22:	f7ff fe5b 	bl	8000bdc <ReachedTarget>
 8000f26:	4603      	mov	r3, r0
 8000f28:	2b00      	cmp	r3, #0
 8000f2a:	d079      	beq.n	8001020 <Elevator_Task+0x260>
 8000f2c:	f001 fb30 	bl	8002590 <Stepper_Stop>
 8000f30:	4b41      	ldr	r3, [pc, #260]	@ (8001038 <Elevator_Task+0x278>)
 8000f32:	781b      	ldrb	r3, [r3, #0]
 8000f34:	4619      	mov	r1, r3
 8000f36:	4844      	ldr	r0, [pc, #272]	@ (8001048 <Elevator_Task+0x288>)
 8000f38:	f000 fcfc 	bl	8001934 <Log_Printf>
 8000f3c:	4b3e      	ldr	r3, [pc, #248]	@ (8001038 <Elevator_Task+0x278>)
 8000f3e:	781b      	ldrb	r3, [r3, #0]
 8000f40:	2102      	movs	r1, #2
 8000f42:	4618      	mov	r0, r3
 8000f44:	f7ff fc8a 	bl	800085c <ShouldStopHere>
 8000f48:	4603      	mov	r3, r0
 8000f4a:	2b00      	cmp	r3, #0
 8000f4c:	d008      	beq.n	8000f60 <Elevator_Task+0x1a0>
 8000f4e:	4b3a      	ldr	r3, [pc, #232]	@ (8001038 <Elevator_Task+0x278>)
 8000f50:	781b      	ldrb	r3, [r3, #0]
 8000f52:	4618      	mov	r0, r3
 8000f54:	f7ff fcbc 	bl	80008d0 <ConsumeStopRequests>
 8000f58:	4b36      	ldr	r3, [pc, #216]	@ (8001034 <Elevator_Task+0x274>)
 8000f5a:	2203      	movs	r2, #3
 8000f5c:	701a      	strb	r2, [r3, #0]
 8000f5e:	e05f      	b.n	8001020 <Elevator_Task+0x260>
 8000f60:	1d7b      	adds	r3, r7, #5
 8000f62:	4619      	mov	r1, r3
 8000f64:	2002      	movs	r0, #2
 8000f66:	f7ff fcd1 	bl	800090c <PickNextTarget>
 8000f6a:	4603      	mov	r3, r0
 8000f6c:	2b00      	cmp	r3, #0
 8000f6e:	d004      	beq.n	8000f7a <Elevator_Task+0x1ba>
 8000f70:	797b      	ldrb	r3, [r7, #5]
 8000f72:	4618      	mov	r0, r3
 8000f74:	f7ff fdc6 	bl	8000b04 <StartMoveTo>
 8000f78:	e052      	b.n	8001020 <Elevator_Task+0x260>
 8000f7a:	4b2e      	ldr	r3, [pc, #184]	@ (8001034 <Elevator_Task+0x274>)
 8000f7c:	2200      	movs	r2, #0
 8000f7e:	701a      	strb	r2, [r3, #0]
 8000f80:	e04e      	b.n	8001020 <Elevator_Task+0x260>
 8000f82:	f000 fcb7 	bl	80018f4 <ledOff>
 8000f86:	f001 f9fb 	bl	8002380 <Servo_Open>
 8000f8a:	f001 fa61 	bl	8002450 <Servo_IsOpened>
 8000f8e:	4603      	mov	r3, r0
 8000f90:	2b00      	cmp	r3, #0
 8000f92:	d047      	beq.n	8001024 <Elevator_Task+0x264>
 8000f94:	f001 fe4a 	bl	8002c2c <HAL_GetTick>
 8000f98:	4603      	mov	r3, r0
 8000f9a:	4a2c      	ldr	r2, [pc, #176]	@ (800104c <Elevator_Task+0x28c>)
 8000f9c:	6013      	str	r3, [r2, #0]
 8000f9e:	4b25      	ldr	r3, [pc, #148]	@ (8001034 <Elevator_Task+0x274>)
 8000fa0:	2204      	movs	r2, #4
 8000fa2:	701a      	strb	r2, [r3, #0]
 8000fa4:	482a      	ldr	r0, [pc, #168]	@ (8001050 <Elevator_Task+0x290>)
 8000fa6:	f000 fcc5 	bl	8001934 <Log_Printf>
 8000faa:	e03b      	b.n	8001024 <Elevator_Task+0x264>
 8000fac:	f000 fca2 	bl	80018f4 <ledOff>
 8000fb0:	f001 fe3c 	bl	8002c2c <HAL_GetTick>
 8000fb4:	4602      	mov	r2, r0
 8000fb6:	4b25      	ldr	r3, [pc, #148]	@ (800104c <Elevator_Task+0x28c>)
 8000fb8:	681b      	ldr	r3, [r3, #0]
 8000fba:	1ad3      	subs	r3, r2, r3
 8000fbc:	f241 726f 	movw	r2, #5999	@ 0x176f
 8000fc0:	4293      	cmp	r3, r2
 8000fc2:	d931      	bls.n	8001028 <Elevator_Task+0x268>
 8000fc4:	4b1b      	ldr	r3, [pc, #108]	@ (8001034 <Elevator_Task+0x274>)
 8000fc6:	2205      	movs	r2, #5
 8000fc8:	701a      	strb	r2, [r3, #0]
 8000fca:	e02d      	b.n	8001028 <Elevator_Task+0x268>
 8000fcc:	f000 fc92 	bl	80018f4 <ledOff>
 8000fd0:	f001 f9e8 	bl	80023a4 <Servo_Close>
 8000fd4:	f001 fa4c 	bl	8002470 <Servo_IsClosed>
 8000fd8:	4603      	mov	r3, r0
 8000fda:	2b00      	cmp	r3, #0
 8000fdc:	d026      	beq.n	800102c <Elevator_Task+0x26c>
 8000fde:	481d      	ldr	r0, [pc, #116]	@ (8001054 <Elevator_Task+0x294>)
 8000fe0:	f000 fca8 	bl	8001934 <Log_Printf>
 8000fe4:	1d3b      	adds	r3, r7, #4
 8000fe6:	4619      	mov	r1, r3
 8000fe8:	2000      	movs	r0, #0
 8000fea:	f7ff fc8f 	bl	800090c <PickNextTarget>
 8000fee:	4603      	mov	r3, r0
 8000ff0:	2b00      	cmp	r3, #0
 8000ff2:	d00d      	beq.n	8001010 <Elevator_Task+0x250>
 8000ff4:	793a      	ldrb	r2, [r7, #4]
 8000ff6:	4b10      	ldr	r3, [pc, #64]	@ (8001038 <Elevator_Task+0x278>)
 8000ff8:	781b      	ldrb	r3, [r3, #0]
 8000ffa:	429a      	cmp	r2, r3
 8000ffc:	d103      	bne.n	8001006 <Elevator_Task+0x246>
 8000ffe:	4b0d      	ldr	r3, [pc, #52]	@ (8001034 <Elevator_Task+0x274>)
 8001000:	2203      	movs	r2, #3
 8001002:	701a      	strb	r2, [r3, #0]
 8001004:	e012      	b.n	800102c <Elevator_Task+0x26c>
 8001006:	793b      	ldrb	r3, [r7, #4]
 8001008:	4618      	mov	r0, r3
 800100a:	f7ff fd7b 	bl	8000b04 <StartMoveTo>
 800100e:	e00d      	b.n	800102c <Elevator_Task+0x26c>
 8001010:	4b08      	ldr	r3, [pc, #32]	@ (8001034 <Elevator_Task+0x274>)
 8001012:	2200      	movs	r2, #0
 8001014:	701a      	strb	r2, [r3, #0]
 8001016:	e009      	b.n	800102c <Elevator_Task+0x26c>
 8001018:	bf00      	nop
 800101a:	e008      	b.n	800102e <Elevator_Task+0x26e>
 800101c:	bf00      	nop
 800101e:	e006      	b.n	800102e <Elevator_Task+0x26e>
 8001020:	bf00      	nop
 8001022:	e004      	b.n	800102e <Elevator_Task+0x26e>
 8001024:	bf00      	nop
 8001026:	e002      	b.n	800102e <Elevator_Task+0x26e>
 8001028:	bf00      	nop
 800102a:	e000      	b.n	800102e <Elevator_Task+0x26e>
 800102c:	bf00      	nop
 800102e:	3708      	adds	r7, #8
 8001030:	46bd      	mov	sp, r7
 8001032:	bd80      	pop	{r7, pc}
 8001034:	2000011c 	.word	0x2000011c
 8001038:	2000011d 	.word	0x2000011d
 800103c:	08006940 	.word	0x08006940
 8001040:	20000124 	.word	0x20000124
 8001044:	08006958 	.word	0x08006958
 8001048:	08006970 	.word	0x08006970
 800104c:	20000120 	.word	0x20000120
 8001050:	0800697c 	.word	0x0800697c
 8001054:	08006988 	.word	0x08006988

08001058 <Elevator_GetCurrentFloor>:
 8001058:	b480      	push	{r7}
 800105a:	af00      	add	r7, sp, #0
 800105c:	4b03      	ldr	r3, [pc, #12]	@ (800106c <Elevator_GetCurrentFloor+0x14>)
 800105e:	781b      	ldrb	r3, [r3, #0]
 8001060:	4618      	mov	r0, r3
 8001062:	46bd      	mov	sp, r7
 8001064:	f85d 7b04 	ldr.w	r7, [sp], #4
 8001068:	4770      	bx	lr
 800106a:	bf00      	nop
 800106c:	2000011d 	.word	0x2000011d

08001070 <Elevator_GetState>:
 8001070:	b480      	push	{r7}
 8001072:	af00      	add	r7, sp, #0
 8001074:	4b03      	ldr	r3, [pc, #12]	@ (8001084 <Elevator_GetState+0x14>)
 8001076:	781b      	ldrb	r3, [r3, #0]
 8001078:	4618      	mov	r0, r3
 800107a:	46bd      	mov	sp, r7
 800107c:	f85d 7b04 	ldr.w	r7, [sp], #4
 8001080:	4770      	bx	lr
 8001082:	bf00      	nop
 8001084:	2000011c 	.word	0x2000011c

08001088 <Elevator_ResumeFromEMG>:
 8001088:	b480      	push	{r7}
 800108a:	af00      	add	r7, sp, #0
 800108c:	4b05      	ldr	r3, [pc, #20]	@ (80010a4 <Elevator_ResumeFromEMG+0x1c>)
 800108e:	781b      	ldrb	r3, [r3, #0]
 8001090:	2b06      	cmp	r3, #6
 8001092:	d102      	bne.n	800109a <Elevator_ResumeFromEMG+0x12>
 8001094:	4b03      	ldr	r3, [pc, #12]	@ (80010a4 <Elevator_ResumeFromEMG+0x1c>)
 8001096:	2200      	movs	r2, #0
 8001098:	701a      	strb	r2, [r3, #0]
 800109a:	bf00      	nop
 800109c:	46bd      	mov	sp, r7
 800109e:	f85d 7b04 	ldr.w	r7, [sp], #4
 80010a2:	4770      	bx	lr
 80010a4:	2000011c 	.word	0x2000011c

080010a8 <Elevator_GetQueueString>:
 80010a8:	b580      	push	{r7, lr}
 80010aa:	b096      	sub	sp, #88	@ 0x58
 80010ac:	af00      	add	r7, sp, #0
 80010ae:	6078      	str	r0, [r7, #4]
 80010b0:	6039      	str	r1, [r7, #0]
 80010b2:	687b      	ldr	r3, [r7, #4]
 80010b4:	2b00      	cmp	r3, #0
 80010b6:	f000 809c 	beq.w	80011f2 <Elevator_GetQueueString+0x14a>
 80010ba:	683b      	ldr	r3, [r7, #0]
 80010bc:	2b00      	cmp	r3, #0
 80010be:	f000 8098 	beq.w	80011f2 <Elevator_GetQueueString+0x14a>
 80010c2:	687b      	ldr	r3, [r7, #4]
 80010c4:	2200      	movs	r2, #0
 80010c6:	701a      	strb	r2, [r3, #0]
 80010c8:	f107 0308 	add.w	r3, r7, #8
 80010cc:	2240      	movs	r2, #64	@ 0x40
 80010ce:	2100      	movs	r1, #0
 80010d0:	4618      	mov	r0, r3
 80010d2:	f004 ff3b 	bl	8005f4c <memset>
 80010d6:	2300      	movs	r3, #0
 80010d8:	657b      	str	r3, [r7, #84]	@ 0x54
 80010da:	f107 0208 	add.w	r2, r7, #8
 80010de:	6d7b      	ldr	r3, [r7, #84]	@ 0x54
 80010e0:	18d0      	adds	r0, r2, r3
 80010e2:	6d7b      	ldr	r3, [r7, #84]	@ 0x54
 80010e4:	f1c3 0340 	rsb	r3, r3, #64	@ 0x40
 80010e8:	4a44      	ldr	r2, [pc, #272]	@ (80011fc <Elevator_GetQueueString+0x154>)
 80010ea:	4619      	mov	r1, r3
 80010ec:	f004 febc 	bl	8005e68 <sniprintf>
 80010f0:	4603      	mov	r3, r0
 80010f2:	461a      	mov	r2, r3
 80010f4:	6d7b      	ldr	r3, [r7, #84]	@ 0x54
 80010f6:	4413      	add	r3, r2
 80010f8:	657b      	str	r3, [r7, #84]	@ 0x54
 80010fa:	2301      	movs	r3, #1
 80010fc:	653b      	str	r3, [r7, #80]	@ 0x50
 80010fe:	e018      	b.n	8001132 <Elevator_GetQueueString+0x8a>
 8001100:	4a3f      	ldr	r2, [pc, #252]	@ (8001200 <Elevator_GetQueueString+0x158>)
 8001102:	6d3b      	ldr	r3, [r7, #80]	@ 0x50
 8001104:	4413      	add	r3, r2
 8001106:	781b      	ldrb	r3, [r3, #0]
 8001108:	2b00      	cmp	r3, #0
 800110a:	d00f      	beq.n	800112c <Elevator_GetQueueString+0x84>
 800110c:	f107 0208 	add.w	r2, r7, #8
 8001110:	6d7b      	ldr	r3, [r7, #84]	@ 0x54
 8001112:	18d0      	adds	r0, r2, r3
 8001114:	6d7b      	ldr	r3, [r7, #84]	@ 0x54
 8001116:	f1c3 0140 	rsb	r1, r3, #64	@ 0x40
 800111a:	6d3b      	ldr	r3, [r7, #80]	@ 0x50
 800111c:	4a39      	ldr	r2, [pc, #228]	@ (8001204 <Elevator_GetQueueString+0x15c>)
 800111e:	f004 fea3 	bl	8005e68 <sniprintf>
 8001122:	4603      	mov	r3, r0
 8001124:	461a      	mov	r2, r3
 8001126:	6d7b      	ldr	r3, [r7, #84]	@ 0x54
 8001128:	4413      	add	r3, r2
 800112a:	657b      	str	r3, [r7, #84]	@ 0x54
 800112c:	6d3b      	ldr	r3, [r7, #80]	@ 0x50
 800112e:	3301      	adds	r3, #1
 8001130:	653b      	str	r3, [r7, #80]	@ 0x50
 8001132:	6d3b      	ldr	r3, [r7, #80]	@ 0x50
 8001134:	2b03      	cmp	r3, #3
 8001136:	dde3      	ble.n	8001100 <Elevator_GetQueueString+0x58>
 8001138:	2301      	movs	r3, #1
 800113a:	64fb      	str	r3, [r7, #76]	@ 0x4c
 800113c:	e018      	b.n	8001170 <Elevator_GetQueueString+0xc8>
 800113e:	4a32      	ldr	r2, [pc, #200]	@ (8001208 <Elevator_GetQueueString+0x160>)
 8001140:	6cfb      	ldr	r3, [r7, #76]	@ 0x4c
 8001142:	4413      	add	r3, r2
 8001144:	781b      	ldrb	r3, [r3, #0]
 8001146:	2b00      	cmp	r3, #0
 8001148:	d00f      	beq.n	800116a <Elevator_GetQueueString+0xc2>
 800114a:	f107 0208 	add.w	r2, r7, #8
 800114e:	6d7b      	ldr	r3, [r7, #84]	@ 0x54
 8001150:	18d0      	adds	r0, r2, r3
 8001152:	6d7b      	ldr	r3, [r7, #84]	@ 0x54
 8001154:	f1c3 0140 	rsb	r1, r3, #64	@ 0x40
 8001158:	6cfb      	ldr	r3, [r7, #76]	@ 0x4c
 800115a:	4a2c      	ldr	r2, [pc, #176]	@ (800120c <Elevator_GetQueueString+0x164>)
 800115c:	f004 fe84 	bl	8005e68 <sniprintf>
 8001160:	4603      	mov	r3, r0
 8001162:	461a      	mov	r2, r3
 8001164:	6d7b      	ldr	r3, [r7, #84]	@ 0x54
 8001166:	4413      	add	r3, r2
 8001168:	657b      	str	r3, [r7, #84]	@ 0x54
 800116a:	6cfb      	ldr	r3, [r7, #76]	@ 0x4c
 800116c:	3301      	adds	r3, #1
 800116e:	64fb      	str	r3, [r7, #76]	@ 0x4c
 8001170:	6cfb      	ldr	r3, [r7, #76]	@ 0x4c
 8001172:	2b03      	cmp	r3, #3
 8001174:	dde3      	ble.n	800113e <Elevator_GetQueueString+0x96>
 8001176:	2301      	movs	r3, #1
 8001178:	64bb      	str	r3, [r7, #72]	@ 0x48
 800117a:	e018      	b.n	80011ae <Elevator_GetQueueString+0x106>
 800117c:	4a24      	ldr	r2, [pc, #144]	@ (8001210 <Elevator_GetQueueString+0x168>)
 800117e:	6cbb      	ldr	r3, [r7, #72]	@ 0x48
 8001180:	4413      	add	r3, r2
 8001182:	781b      	ldrb	r3, [r3, #0]
 8001184:	2b00      	cmp	r3, #0
 8001186:	d00f      	beq.n	80011a8 <Elevator_GetQueueString+0x100>
 8001188:	f107 0208 	add.w	r2, r7, #8
 800118c:	6d7b      	ldr	r3, [r7, #84]	@ 0x54
 800118e:	18d0      	adds	r0, r2, r3
 8001190:	6d7b      	ldr	r3, [r7, #84]	@ 0x54
 8001192:	f1c3 0140 	rsb	r1, r3, #64	@ 0x40
 8001196:	6cbb      	ldr	r3, [r7, #72]	@ 0x48
 8001198:	4a1e      	ldr	r2, [pc, #120]	@ (8001214 <Elevator_GetQueueString+0x16c>)
 800119a:	f004 fe65 	bl	8005e68 <sniprintf>
 800119e:	4603      	mov	r3, r0
 80011a0:	461a      	mov	r2, r3
 80011a2:	6d7b      	ldr	r3, [r7, #84]	@ 0x54
 80011a4:	4413      	add	r3, r2
 80011a6:	657b      	str	r3, [r7, #84]	@ 0x54
 80011a8:	6cbb      	ldr	r3, [r7, #72]	@ 0x48
 80011aa:	3301      	adds	r3, #1
 80011ac:	64bb      	str	r3, [r7, #72]	@ 0x48
 80011ae:	6cbb      	ldr	r3, [r7, #72]	@ 0x48
 80011b0:	2b03      	cmp	r3, #3
 80011b2:	dde3      	ble.n	800117c <Elevator_GetQueueString+0xd4>
 80011b4:	f107 0208 	add.w	r2, r7, #8
 80011b8:	6d7b      	ldr	r3, [r7, #84]	@ 0x54
 80011ba:	18d0      	adds	r0, r2, r3
 80011bc:	6d7b      	ldr	r3, [r7, #84]	@ 0x54
 80011be:	f1c3 0340 	rsb	r3, r3, #64	@ 0x40
 80011c2:	4a15      	ldr	r2, [pc, #84]	@ (8001218 <Elevator_GetQueueString+0x170>)
 80011c4:	4619      	mov	r1, r3
 80011c6:	f004 fe4f 	bl	8005e68 <sniprintf>
 80011ca:	4603      	mov	r3, r0
 80011cc:	461a      	mov	r2, r3
 80011ce:	6d7b      	ldr	r3, [r7, #84]	@ 0x54
 80011d0:	4413      	add	r3, r2
 80011d2:	657b      	str	r3, [r7, #84]	@ 0x54
 80011d4:	683b      	ldr	r3, [r7, #0]
 80011d6:	1e5a      	subs	r2, r3, #1
 80011d8:	f107 0308 	add.w	r3, r7, #8
 80011dc:	4619      	mov	r1, r3
 80011de:	6878      	ldr	r0, [r7, #4]
 80011e0:	f004 fece 	bl	8005f80 <strncpy>
 80011e4:	683b      	ldr	r3, [r7, #0]
 80011e6:	3b01      	subs	r3, #1
 80011e8:	687a      	ldr	r2, [r7, #4]
 80011ea:	4413      	add	r3, r2
 80011ec:	2200      	movs	r2, #0
 80011ee:	701a      	strb	r2, [r3, #0]
 80011f0:	e000      	b.n	80011f4 <Elevator_GetQueueString+0x14c>
 80011f2:	bf00      	nop
 80011f4:	3758      	adds	r7, #88	@ 0x58
 80011f6:	46bd      	mov	sp, r7
 80011f8:	bd80      	pop	{r7, pc}
 80011fa:	bf00      	nop
 80011fc:	08006998 	.word	0x08006998
 8001200:	20000128 	.word	0x20000128
 8001204:	0800699c 	.word	0x0800699c
 8001208:	2000012c 	.word	0x2000012c
 800120c:	080069a4 	.word	0x080069a4
 8001210:	20000130 	.word	0x20000130
 8001214:	080069ac 	.word	0x080069ac
 8001218:	080069b4 	.word	0x080069b4

0800121c <dataOut>:
 800121c:	b580      	push	{r7, lr}
 800121e:	b084      	sub	sp, #16
 8001220:	af00      	add	r7, sp, #0
 8001222:	4603      	mov	r3, r0
 8001224:	71fb      	strb	r3, [r7, #7]
 8001226:	2307      	movs	r3, #7
 8001228:	60fb      	str	r3, [r7, #12]
 800122a:	e029      	b.n	8001280 <dataOut+0x64>
 800122c:	79fa      	ldrb	r2, [r7, #7]
 800122e:	68fb      	ldr	r3, [r7, #12]
 8001230:	fa42 f303 	asr.w	r3, r2, r3
 8001234:	f003 0301 	and.w	r3, r3, #1
 8001238:	2b00      	cmp	r3, #0
 800123a:	d006      	beq.n	800124a <dataOut+0x2e>
 800123c:	2201      	movs	r2, #1
 800123e:	f44f 6180 	mov.w	r1, #1024	@ 0x400
 8001242:	481a      	ldr	r0, [pc, #104]	@ (80012ac <dataOut+0x90>)
 8001244:	f002 f83e 	bl	80032c4 <HAL_GPIO_WritePin>
 8001248:	e005      	b.n	8001256 <dataOut+0x3a>
 800124a:	2200      	movs	r2, #0
 800124c:	f44f 6180 	mov.w	r1, #1024	@ 0x400
 8001250:	4816      	ldr	r0, [pc, #88]	@ (80012ac <dataOut+0x90>)
 8001252:	f002 f837 	bl	80032c4 <HAL_GPIO_WritePin>
 8001256:	2201      	movs	r2, #1
 8001258:	f44f 6100 	mov.w	r1, #2048	@ 0x800
 800125c:	4813      	ldr	r0, [pc, #76]	@ (80012ac <dataOut+0x90>)
 800125e:	f002 f831 	bl	80032c4 <HAL_GPIO_WritePin>
 8001262:	2001      	movs	r0, #1
 8001264:	f7ff fab6 	bl	80007d4 <delay_us>
 8001268:	2200      	movs	r2, #0
 800126a:	f44f 6100 	mov.w	r1, #2048	@ 0x800
 800126e:	480f      	ldr	r0, [pc, #60]	@ (80012ac <dataOut+0x90>)
 8001270:	f002 f828 	bl	80032c4 <HAL_GPIO_WritePin>
 8001274:	2001      	movs	r0, #1
 8001276:	f7ff faad 	bl	80007d4 <delay_us>
 800127a:	68fb      	ldr	r3, [r7, #12]
 800127c:	3b01      	subs	r3, #1
 800127e:	60fb      	str	r3, [r7, #12]
 8001280:	68fb      	ldr	r3, [r7, #12]
 8001282:	2b00      	cmp	r3, #0
 8001284:	dad2      	bge.n	800122c <dataOut+0x10>
 8001286:	2201      	movs	r2, #1
 8001288:	f44f 5180 	mov.w	r1, #4096	@ 0x1000
 800128c:	4807      	ldr	r0, [pc, #28]	@ (80012ac <dataOut+0x90>)
 800128e:	f002 f819 	bl	80032c4 <HAL_GPIO_WritePin>
 8001292:	2001      	movs	r0, #1
 8001294:	f7ff fa9e 	bl	80007d4 <delay_us>
 8001298:	2200      	movs	r2, #0
 800129a:	f44f 5180 	mov.w	r1, #4096	@ 0x1000
 800129e:	4803      	ldr	r0, [pc, #12]	@ (80012ac <dataOut+0x90>)
 80012a0:	f002 f810 	bl	80032c4 <HAL_GPIO_WritePin>
 80012a4:	bf00      	nop
 80012a6:	3710      	adds	r7, #16
 80012a8:	46bd      	mov	sp, r7
 80012aa:	bd80      	pop	{r7, pc}
 80012ac:	40020800 	.word	0x40020800

080012b0 <DIG_Select>:
 80012b0:	b580      	push	{r7, lr}
 80012b2:	b082      	sub	sp, #8
 80012b4:	af00      	add	r7, sp, #0
 80012b6:	4603      	mov	r3, r0
 80012b8:	71fb      	strb	r3, [r7, #7]
 80012ba:	79fb      	ldrb	r3, [r7, #7]
 80012bc:	2b03      	cmp	r3, #3
 80012be:	d824      	bhi.n	800130a <DIG_Select+0x5a>
 80012c0:	a201      	add	r2, pc, #4	@ (adr r2, 80012c8 <DIG_Select+0x18>)
 80012c2:	f852 f023 	ldr.w	pc, [r2, r3, lsl #2]
 80012c6:	bf00      	nop
 80012c8:	080012d9 	.word	0x080012d9
 80012cc:	080012e5 	.word	0x080012e5
 80012d0:	080012f1 	.word	0x080012f1
 80012d4:	080012fd 	.word	0x080012fd
 80012d8:	2200      	movs	r2, #0
 80012da:	2101      	movs	r1, #1
 80012dc:	480d      	ldr	r0, [pc, #52]	@ (8001314 <DIG_Select+0x64>)
 80012de:	f001 fff1 	bl	80032c4 <HAL_GPIO_WritePin>
 80012e2:	e012      	b.n	800130a <DIG_Select+0x5a>
 80012e4:	2200      	movs	r2, #0
 80012e6:	2102      	movs	r1, #2
 80012e8:	480a      	ldr	r0, [pc, #40]	@ (8001314 <DIG_Select+0x64>)
 80012ea:	f001 ffeb 	bl	80032c4 <HAL_GPIO_WritePin>
 80012ee:	e00c      	b.n	800130a <DIG_Select+0x5a>
 80012f0:	2200      	movs	r2, #0
 80012f2:	2104      	movs	r1, #4
 80012f4:	4808      	ldr	r0, [pc, #32]	@ (8001318 <DIG_Select+0x68>)
 80012f6:	f001 ffe5 	bl	80032c4 <HAL_GPIO_WritePin>
 80012fa:	e006      	b.n	800130a <DIG_Select+0x5a>
 80012fc:	2200      	movs	r2, #0
 80012fe:	f44f 4100 	mov.w	r1, #32768	@ 0x8000
 8001302:	4804      	ldr	r0, [pc, #16]	@ (8001314 <DIG_Select+0x64>)
 8001304:	f001 ffde 	bl	80032c4 <HAL_GPIO_WritePin>
 8001308:	bf00      	nop
 800130a:	bf00      	nop
 800130c:	3708      	adds	r7, #8
 800130e:	46bd      	mov	sp, r7
 8001310:	bd80      	pop	{r7, pc}
 8001312:	bf00      	nop
 8001314:	40020000 	.word	0x40020000
 8001318:	40020c00 	.word	0x40020c00

0800131c <DIG_Off>:
 800131c:	b580      	push	{r7, lr}
 800131e:	af00      	add	r7, sp, #0
 8001320:	2201      	movs	r2, #1
 8001322:	2101      	movs	r1, #1
 8001324:	480a      	ldr	r0, [pc, #40]	@ (8001350 <DIG_Off+0x34>)
 8001326:	f001 ffcd 	bl	80032c4 <HAL_GPIO_WritePin>
 800132a:	2201      	movs	r2, #1
 800132c:	2102      	movs	r1, #2
 800132e:	4808      	ldr	r0, [pc, #32]	@ (8001350 <DIG_Off+0x34>)
 8001330:	f001 ffc8 	bl	80032c4 <HAL_GPIO_WritePin>
 8001334:	2201      	movs	r2, #1
 8001336:	2104      	movs	r1, #4
 8001338:	4806      	ldr	r0, [pc, #24]	@ (8001354 <DIG_Off+0x38>)
 800133a:	f001 ffc3 	bl	80032c4 <HAL_GPIO_WritePin>
 800133e:	2201      	movs	r2, #1
 8001340:	f44f 4100 	mov.w	r1, #32768	@ 0x8000
 8001344:	4802      	ldr	r0, [pc, #8]	@ (8001350 <DIG_Off+0x34>)
 8001346:	f001 ffbd 	bl	80032c4 <HAL_GPIO_WritePin>
 800134a:	bf00      	nop
 800134c:	bd80      	pop	{r7, pc}
 800134e:	bf00      	nop
 8001350:	40020000 	.word	0x40020000
 8001354:	40020c00 	.word	0x40020c00

08001358 <setFndState>:
 8001358:	b480      	push	{r7}
 800135a:	b083      	sub	sp, #12
 800135c:	af00      	add	r7, sp, #0
 800135e:	4603      	mov	r3, r0
 8001360:	460a      	mov	r2, r1
 8001362:	71fb      	strb	r3, [r7, #7]
 8001364:	4613      	mov	r3, r2
 8001366:	71bb      	strb	r3, [r7, #6]
 8001368:	79bb      	ldrb	r3, [r7, #6]
 800136a:	2b00      	cmp	r3, #0
 800136c:	d006      	beq.n	800137c <setFndState+0x24>
 800136e:	4b11      	ldr	r3, [pc, #68]	@ (80013b4 <setFndState+0x5c>)
 8001370:	2224      	movs	r2, #36	@ 0x24
 8001372:	701a      	strb	r2, [r3, #0]
 8001374:	4b0f      	ldr	r3, [pc, #60]	@ (80013b4 <setFndState+0x5c>)
 8001376:	2211      	movs	r2, #17
 8001378:	705a      	strb	r2, [r3, #1]
 800137a:	e005      	b.n	8001388 <setFndState+0x30>
 800137c:	4b0d      	ldr	r3, [pc, #52]	@ (80013b4 <setFndState+0x5c>)
 800137e:	2253      	movs	r2, #83	@ 0x53
 8001380:	701a      	strb	r2, [r3, #0]
 8001382:	4b0c      	ldr	r3, [pc, #48]	@ (80013b4 <setFndState+0x5c>)
 8001384:	2266      	movs	r2, #102	@ 0x66
 8001386:	705a      	strb	r2, [r3, #1]
 8001388:	79fb      	ldrb	r3, [r7, #7]
 800138a:	2b09      	cmp	r3, #9
 800138c:	d805      	bhi.n	800139a <setFndState+0x42>
 800138e:	79fb      	ldrb	r3, [r7, #7]
 8001390:	4a09      	ldr	r2, [pc, #36]	@ (80013b8 <setFndState+0x60>)
 8001392:	5cd2      	ldrb	r2, [r2, r3]
 8001394:	4b07      	ldr	r3, [pc, #28]	@ (80013b4 <setFndState+0x5c>)
 8001396:	709a      	strb	r2, [r3, #2]
 8001398:	e002      	b.n	80013a0 <setFndState+0x48>
 800139a:	4b06      	ldr	r3, [pc, #24]	@ (80013b4 <setFndState+0x5c>)
 800139c:	2200      	movs	r2, #0
 800139e:	709a      	strb	r2, [r3, #2]
 80013a0:	4b04      	ldr	r3, [pc, #16]	@ (80013b4 <setFndState+0x5c>)
 80013a2:	226c      	movs	r2, #108	@ 0x6c
 80013a4:	70da      	strb	r2, [r3, #3]
 80013a6:	bf00      	nop
 80013a8:	370c      	adds	r7, #12
 80013aa:	46bd      	mov	sp, r7
 80013ac:	f85d 7b04 	ldr.w	r7, [sp], #4
 80013b0:	4770      	bx	lr
 80013b2:	bf00      	nop
 80013b4:	20000134 	.word	0x20000134
 80013b8:	08006b68 	.word	0x08006b68

080013bc <displayScan>:
 80013bc:	b580      	push	{r7, lr}
 80013be:	b082      	sub	sp, #8
 80013c0:	af00      	add	r7, sp, #0
 80013c2:	2300      	movs	r3, #0
 80013c4:	71fb      	strb	r3, [r7, #7]
 80013c6:	e012      	b.n	80013ee <displayScan+0x32>
 80013c8:	f7ff ffa8 	bl	800131c <DIG_Off>
 80013cc:	79fb      	ldrb	r3, [r7, #7]
 80013ce:	4a0c      	ldr	r2, [pc, #48]	@ (8001400 <displayScan+0x44>)
 80013d0:	5cd3      	ldrb	r3, [r2, r3]
 80013d2:	4618      	mov	r0, r3
 80013d4:	f7ff ff22 	bl	800121c <dataOut>
 80013d8:	79fb      	ldrb	r3, [r7, #7]
 80013da:	4618      	mov	r0, r3
 80013dc:	f7ff ff68 	bl	80012b0 <DIG_Select>
 80013e0:	f640 10c4 	movw	r0, #2500	@ 0x9c4
 80013e4:	f7ff f9f6 	bl	80007d4 <delay_us>
 80013e8:	79fb      	ldrb	r3, [r7, #7]
 80013ea:	3301      	adds	r3, #1
 80013ec:	71fb      	strb	r3, [r7, #7]
 80013ee:	79fb      	ldrb	r3, [r7, #7]
 80013f0:	2b03      	cmp	r3, #3
 80013f2:	d9e9      	bls.n	80013c8 <displayScan+0xc>
 80013f4:	bf00      	nop
 80013f6:	bf00      	nop
 80013f8:	3708      	adds	r7, #8
 80013fa:	46bd      	mov	sp, r7
 80013fc:	bd80      	pop	{r7, pc}
 80013fe:	bf00      	nop
 8001400:	20000134 	.word	0x20000134

08001404 <MX_GPIO_Init>:
 8001404:	b580      	push	{r7, lr}
 8001406:	b08a      	sub	sp, #40	@ 0x28
 8001408:	af00      	add	r7, sp, #0
 800140a:	f107 0314 	add.w	r3, r7, #20
 800140e:	2200      	movs	r2, #0
 8001410:	601a      	str	r2, [r3, #0]
 8001412:	605a      	str	r2, [r3, #4]
 8001414:	609a      	str	r2, [r3, #8]
 8001416:	60da      	str	r2, [r3, #12]
 8001418:	611a      	str	r2, [r3, #16]
 800141a:	2300      	movs	r3, #0
 800141c:	613b      	str	r3, [r7, #16]
 800141e:	4b75      	ldr	r3, [pc, #468]	@ (80015f4 <MX_GPIO_Init+0x1f0>)
 8001420:	6b1b      	ldr	r3, [r3, #48]	@ 0x30
 8001422:	4a74      	ldr	r2, [pc, #464]	@ (80015f4 <MX_GPIO_Init+0x1f0>)
 8001424:	f043 0380 	orr.w	r3, r3, #128	@ 0x80
 8001428:	6313      	str	r3, [r2, #48]	@ 0x30
 800142a:	4b72      	ldr	r3, [pc, #456]	@ (80015f4 <MX_GPIO_Init+0x1f0>)
 800142c:	6b1b      	ldr	r3, [r3, #48]	@ 0x30
 800142e:	f003 0380 	and.w	r3, r3, #128	@ 0x80
 8001432:	613b      	str	r3, [r7, #16]
 8001434:	693b      	ldr	r3, [r7, #16]
 8001436:	2300      	movs	r3, #0
 8001438:	60fb      	str	r3, [r7, #12]
 800143a:	4b6e      	ldr	r3, [pc, #440]	@ (80015f4 <MX_GPIO_Init+0x1f0>)
 800143c:	6b1b      	ldr	r3, [r3, #48]	@ 0x30
 800143e:	4a6d      	ldr	r2, [pc, #436]	@ (80015f4 <MX_GPIO_Init+0x1f0>)
 8001440:	f043 0304 	orr.w	r3, r3, #4
 8001444:	6313      	str	r3, [r2, #48]	@ 0x30
 8001446:	4b6b      	ldr	r3, [pc, #428]	@ (80015f4 <MX_GPIO_Init+0x1f0>)
 8001448:	6b1b      	ldr	r3, [r3, #48]	@ 0x30
 800144a:	f003 0304 	and.w	r3, r3, #4
 800144e:	60fb      	str	r3, [r7, #12]
 8001450:	68fb      	ldr	r3, [r7, #12]
 8001452:	2300      	movs	r3, #0
 8001454:	60bb      	str	r3, [r7, #8]
 8001456:	4b67      	ldr	r3, [pc, #412]	@ (80015f4 <MX_GPIO_Init+0x1f0>)
 8001458:	6b1b      	ldr	r3, [r3, #48]	@ 0x30
 800145a:	4a66      	ldr	r2, [pc, #408]	@ (80015f4 <MX_GPIO_Init+0x1f0>)
 800145c:	f043 0301 	orr.w	r3, r3, #1
 8001460:	6313      	str	r3, [r2, #48]	@ 0x30
 8001462:	4b64      	ldr	r3, [pc, #400]	@ (80015f4 <MX_GPIO_Init+0x1f0>)
 8001464:	6b1b      	ldr	r3, [r3, #48]	@ 0x30
 8001466:	f003 0301 	and.w	r3, r3, #1
 800146a:	60bb      	str	r3, [r7, #8]
 800146c:	68bb      	ldr	r3, [r7, #8]
 800146e:	2300      	movs	r3, #0
 8001470:	607b      	str	r3, [r7, #4]
 8001472:	4b60      	ldr	r3, [pc, #384]	@ (80015f4 <MX_GPIO_Init+0x1f0>)
 8001474:	6b1b      	ldr	r3, [r3, #48]	@ 0x30
 8001476:	4a5f      	ldr	r2, [pc, #380]	@ (80015f4 <MX_GPIO_Init+0x1f0>)
 8001478:	f043 0302 	orr.w	r3, r3, #2
 800147c:	6313      	str	r3, [r2, #48]	@ 0x30
 800147e:	4b5d      	ldr	r3, [pc, #372]	@ (80015f4 <MX_GPIO_Init+0x1f0>)
 8001480:	6b1b      	ldr	r3, [r3, #48]	@ 0x30
 8001482:	f003 0302 	and.w	r3, r3, #2
 8001486:	607b      	str	r3, [r7, #4]
 8001488:	687b      	ldr	r3, [r7, #4]
 800148a:	2300      	movs	r3, #0
 800148c:	603b      	str	r3, [r7, #0]
 800148e:	4b59      	ldr	r3, [pc, #356]	@ (80015f4 <MX_GPIO_Init+0x1f0>)
 8001490:	6b1b      	ldr	r3, [r3, #48]	@ 0x30
 8001492:	4a58      	ldr	r2, [pc, #352]	@ (80015f4 <MX_GPIO_Init+0x1f0>)
 8001494:	f043 0308 	orr.w	r3, r3, #8
 8001498:	6313      	str	r3, [r2, #48]	@ 0x30
 800149a:	4b56      	ldr	r3, [pc, #344]	@ (80015f4 <MX_GPIO_Init+0x1f0>)
 800149c:	6b1b      	ldr	r3, [r3, #48]	@ 0x30
 800149e:	f003 0308 	and.w	r3, r3, #8
 80014a2:	603b      	str	r3, [r7, #0]
 80014a4:	683b      	ldr	r3, [r7, #0]
 80014a6:	2200      	movs	r2, #0
 80014a8:	f641 5163 	movw	r1, #7523	@ 0x1d63
 80014ac:	4852      	ldr	r0, [pc, #328]	@ (80015f8 <MX_GPIO_Init+0x1f4>)
 80014ae:	f001 ff09 	bl	80032c4 <HAL_GPIO_WritePin>
 80014b2:	2200      	movs	r2, #0
 80014b4:	f248 0113 	movw	r1, #32787	@ 0x8013
 80014b8:	4850      	ldr	r0, [pc, #320]	@ (80015fc <MX_GPIO_Init+0x1f8>)
 80014ba:	f001 ff03 	bl	80032c4 <HAL_GPIO_WritePin>
 80014be:	2200      	movs	r2, #0
 80014c0:	2101      	movs	r1, #1
 80014c2:	484f      	ldr	r0, [pc, #316]	@ (8001600 <MX_GPIO_Init+0x1fc>)
 80014c4:	f001 fefe 	bl	80032c4 <HAL_GPIO_WritePin>
 80014c8:	2200      	movs	r2, #0
 80014ca:	2104      	movs	r1, #4
 80014cc:	484d      	ldr	r0, [pc, #308]	@ (8001604 <MX_GPIO_Init+0x200>)
 80014ce:	f001 fef9 	bl	80032c4 <HAL_GPIO_WritePin>
 80014d2:	f641 5363 	movw	r3, #7523	@ 0x1d63
 80014d6:	617b      	str	r3, [r7, #20]
 80014d8:	2301      	movs	r3, #1
 80014da:	61bb      	str	r3, [r7, #24]
 80014dc:	2300      	movs	r3, #0
 80014de:	61fb      	str	r3, [r7, #28]
 80014e0:	2300      	movs	r3, #0
 80014e2:	623b      	str	r3, [r7, #32]
 80014e4:	f107 0314 	add.w	r3, r7, #20
 80014e8:	4619      	mov	r1, r3
 80014ea:	4843      	ldr	r0, [pc, #268]	@ (80015f8 <MX_GPIO_Init+0x1f4>)
 80014ec:	f001 fd4e 	bl	8002f8c <HAL_GPIO_Init>
 80014f0:	f248 0313 	movw	r3, #32787	@ 0x8013
 80014f4:	617b      	str	r3, [r7, #20]
 80014f6:	2301      	movs	r3, #1
 80014f8:	61bb      	str	r3, [r7, #24]
 80014fa:	2300      	movs	r3, #0
 80014fc:	61fb      	str	r3, [r7, #28]
 80014fe:	2300      	movs	r3, #0
 8001500:	623b      	str	r3, [r7, #32]
 8001502:	f107 0314 	add.w	r3, r7, #20
 8001506:	4619      	mov	r1, r3
 8001508:	483c      	ldr	r0, [pc, #240]	@ (80015fc <MX_GPIO_Init+0x1f8>)
 800150a:	f001 fd3f 	bl	8002f8c <HAL_GPIO_Init>
 800150e:	2360      	movs	r3, #96	@ 0x60
 8001510:	617b      	str	r3, [r7, #20]
 8001512:	2300      	movs	r3, #0
 8001514:	61bb      	str	r3, [r7, #24]
 8001516:	2300      	movs	r3, #0
 8001518:	61fb      	str	r3, [r7, #28]
 800151a:	f107 0314 	add.w	r3, r7, #20
 800151e:	4619      	mov	r1, r3
 8001520:	4836      	ldr	r0, [pc, #216]	@ (80015fc <MX_GPIO_Init+0x1f8>)
 8001522:	f001 fd33 	bl	8002f8c <HAL_GPIO_Init>
 8001526:	f44f 7304 	mov.w	r3, #528	@ 0x210
 800152a:	617b      	str	r3, [r7, #20]
 800152c:	2300      	movs	r3, #0
 800152e:	61bb      	str	r3, [r7, #24]
 8001530:	2300      	movs	r3, #0
 8001532:	61fb      	str	r3, [r7, #28]
 8001534:	f107 0314 	add.w	r3, r7, #20
 8001538:	4619      	mov	r1, r3
 800153a:	482f      	ldr	r0, [pc, #188]	@ (80015f8 <MX_GPIO_Init+0x1f4>)
 800153c:	f001 fd26 	bl	8002f8c <HAL_GPIO_Init>
 8001540:	2301      	movs	r3, #1
 8001542:	617b      	str	r3, [r7, #20]
 8001544:	2301      	movs	r3, #1
 8001546:	61bb      	str	r3, [r7, #24]
 8001548:	2300      	movs	r3, #0
 800154a:	61fb      	str	r3, [r7, #28]
 800154c:	2300      	movs	r3, #0
 800154e:	623b      	str	r3, [r7, #32]
 8001550:	f107 0314 	add.w	r3, r7, #20
 8001554:	4619      	mov	r1, r3
 8001556:	482a      	ldr	r0, [pc, #168]	@ (8001600 <MX_GPIO_Init+0x1fc>)
 8001558:	f001 fd18 	bl	8002f8c <HAL_GPIO_Init>
 800155c:	f24f 0306 	movw	r3, #61446	@ 0xf006
 8001560:	617b      	str	r3, [r7, #20]
 8001562:	2300      	movs	r3, #0
 8001564:	61bb      	str	r3, [r7, #24]
 8001566:	2300      	movs	r3, #0
 8001568:	61fb      	str	r3, [r7, #28]
 800156a:	f107 0314 	add.w	r3, r7, #20
 800156e:	4619      	mov	r1, r3
 8001570:	4823      	ldr	r0, [pc, #140]	@ (8001600 <MX_GPIO_Init+0x1fc>)
 8001572:	f001 fd0b 	bl	8002f8c <HAL_GPIO_Init>
 8001576:	f44f 6390 	mov.w	r3, #1152	@ 0x480
 800157a:	617b      	str	r3, [r7, #20]
 800157c:	f44f 1344 	mov.w	r3, #3211264	@ 0x310000
 8001580:	61bb      	str	r3, [r7, #24]
 8001582:	2301      	movs	r3, #1
 8001584:	61fb      	str	r3, [r7, #28]
 8001586:	f107 0314 	add.w	r3, r7, #20
 800158a:	4619      	mov	r1, r3
 800158c:	481c      	ldr	r0, [pc, #112]	@ (8001600 <MX_GPIO_Init+0x1fc>)
 800158e:	f001 fcfd 	bl	8002f8c <HAL_GPIO_Init>
 8001592:	f44f 5380 	mov.w	r3, #4096	@ 0x1000
 8001596:	617b      	str	r3, [r7, #20]
 8001598:	f44f 1344 	mov.w	r3, #3211264	@ 0x310000
 800159c:	61bb      	str	r3, [r7, #24]
 800159e:	2301      	movs	r3, #1
 80015a0:	61fb      	str	r3, [r7, #28]
 80015a2:	f107 0314 	add.w	r3, r7, #20
 80015a6:	4619      	mov	r1, r3
 80015a8:	4814      	ldr	r0, [pc, #80]	@ (80015fc <MX_GPIO_Init+0x1f8>)
 80015aa:	f001 fcef 	bl	8002f8c <HAL_GPIO_Init>
 80015ae:	2304      	movs	r3, #4
 80015b0:	617b      	str	r3, [r7, #20]
 80015b2:	2301      	movs	r3, #1
 80015b4:	61bb      	str	r3, [r7, #24]
 80015b6:	2300      	movs	r3, #0
 80015b8:	61fb      	str	r3, [r7, #28]
 80015ba:	2300      	movs	r3, #0
 80015bc:	623b      	str	r3, [r7, #32]
 80015be:	f107 0314 	add.w	r3, r7, #20
 80015c2:	4619      	mov	r1, r3
 80015c4:	480f      	ldr	r0, [pc, #60]	@ (8001604 <MX_GPIO_Init+0x200>)
 80015c6:	f001 fce1 	bl	8002f8c <HAL_GPIO_Init>
 80015ca:	2200      	movs	r2, #0
 80015cc:	2100      	movs	r1, #0
 80015ce:	2017      	movs	r0, #23
 80015d0:	f001 fc13 	bl	8002dfa <HAL_NVIC_SetPriority>
 80015d4:	2017      	movs	r0, #23
 80015d6:	f001 fc2c 	bl	8002e32 <HAL_NVIC_EnableIRQ>
 80015da:	2200      	movs	r2, #0
 80015dc:	2100      	movs	r1, #0
 80015de:	2028      	movs	r0, #40	@ 0x28
 80015e0:	f001 fc0b 	bl	8002dfa <HAL_NVIC_SetPriority>
 80015e4:	2028      	movs	r0, #40	@ 0x28
 80015e6:	f001 fc24 	bl	8002e32 <HAL_NVIC_EnableIRQ>
 80015ea:	bf00      	nop
 80015ec:	3728      	adds	r7, #40	@ 0x28
 80015ee:	46bd      	mov	sp, r7
 80015f0:	bd80      	pop	{r7, pc}
 80015f2:	bf00      	nop
 80015f4:	40023800 	.word	0x40023800
 80015f8:	40020800 	.word	0x40020800
 80015fc:	40020000 	.word	0x40020000
 8001600:	40020400 	.word	0x40020400
 8001604:	40020c00 	.word	0x40020c00

08001608 <MX_I2C1_Init>:
 8001608:	b580      	push	{r7, lr}
 800160a:	af00      	add	r7, sp, #0
 800160c:	4b12      	ldr	r3, [pc, #72]	@ (8001658 <MX_I2C1_Init+0x50>)
 800160e:	4a13      	ldr	r2, [pc, #76]	@ (800165c <MX_I2C1_Init+0x54>)
 8001610:	601a      	str	r2, [r3, #0]
 8001612:	4b11      	ldr	r3, [pc, #68]	@ (8001658 <MX_I2C1_Init+0x50>)
 8001614:	4a12      	ldr	r2, [pc, #72]	@ (8001660 <MX_I2C1_Init+0x58>)
 8001616:	605a      	str	r2, [r3, #4]
 8001618:	4b0f      	ldr	r3, [pc, #60]	@ (8001658 <MX_I2C1_Init+0x50>)
 800161a:	2200      	movs	r2, #0
 800161c:	609a      	str	r2, [r3, #8]
 800161e:	4b0e      	ldr	r3, [pc, #56]	@ (8001658 <MX_I2C1_Init+0x50>)
 8001620:	2200      	movs	r2, #0
 8001622:	60da      	str	r2, [r3, #12]
 8001624:	4b0c      	ldr	r3, [pc, #48]	@ (8001658 <MX_I2C1_Init+0x50>)
 8001626:	f44f 4280 	mov.w	r2, #16384	@ 0x4000
 800162a:	611a      	str	r2, [r3, #16]
 800162c:	4b0a      	ldr	r3, [pc, #40]	@ (8001658 <MX_I2C1_Init+0x50>)
 800162e:	2200      	movs	r2, #0
 8001630:	615a      	str	r2, [r3, #20]
 8001632:	4b09      	ldr	r3, [pc, #36]	@ (8001658 <MX_I2C1_Init+0x50>)
 8001634:	2200      	movs	r2, #0
 8001636:	619a      	str	r2, [r3, #24]
 8001638:	4b07      	ldr	r3, [pc, #28]	@ (8001658 <MX_I2C1_Init+0x50>)
 800163a:	2200      	movs	r2, #0
 800163c:	61da      	str	r2, [r3, #28]
 800163e:	4b06      	ldr	r3, [pc, #24]	@ (8001658 <MX_I2C1_Init+0x50>)
 8001640:	2200      	movs	r2, #0
 8001642:	621a      	str	r2, [r3, #32]
 8001644:	4804      	ldr	r0, [pc, #16]	@ (8001658 <MX_I2C1_Init+0x50>)
 8001646:	f001 fe6f 	bl	8003328 <HAL_I2C_Init>
 800164a:	4603      	mov	r3, r0
 800164c:	2b00      	cmp	r3, #0
 800164e:	d001      	beq.n	8001654 <MX_I2C1_Init+0x4c>
 8001650:	f000 fa46 	bl	8001ae0 <Error_Handler>
 8001654:	bf00      	nop
 8001656:	bd80      	pop	{r7, pc}
 8001658:	20000138 	.word	0x20000138
 800165c:	40005400 	.word	0x40005400
 8001660:	000186a0 	.word	0x000186a0

08001664 <HAL_I2C_MspInit>:
 8001664:	b580      	push	{r7, lr}
 8001666:	b08a      	sub	sp, #40	@ 0x28
 8001668:	af00      	add	r7, sp, #0
 800166a:	6078      	str	r0, [r7, #4]
 800166c:	f107 0314 	add.w	r3, r7, #20
 8001670:	2200      	movs	r2, #0
 8001672:	601a      	str	r2, [r3, #0]
 8001674:	605a      	str	r2, [r3, #4]
 8001676:	609a      	str	r2, [r3, #8]
 8001678:	60da      	str	r2, [r3, #12]
 800167a:	611a      	str	r2, [r3, #16]
 800167c:	687b      	ldr	r3, [r7, #4]
 800167e:	681b      	ldr	r3, [r3, #0]
 8001680:	4a19      	ldr	r2, [pc, #100]	@ (80016e8 <HAL_I2C_MspInit+0x84>)
 8001682:	4293      	cmp	r3, r2
 8001684:	d12c      	bne.n	80016e0 <HAL_I2C_MspInit+0x7c>
 8001686:	2300      	movs	r3, #0
 8001688:	613b      	str	r3, [r7, #16]
 800168a:	4b18      	ldr	r3, [pc, #96]	@ (80016ec <HAL_I2C_MspInit+0x88>)
 800168c:	6b1b      	ldr	r3, [r3, #48]	@ 0x30
 800168e:	4a17      	ldr	r2, [pc, #92]	@ (80016ec <HAL_I2C_MspInit+0x88>)
 8001690:	f043 0302 	orr.w	r3, r3, #2
 8001694:	6313      	str	r3, [r2, #48]	@ 0x30
 8001696:	4b15      	ldr	r3, [pc, #84]	@ (80016ec <HAL_I2C_MspInit+0x88>)
 8001698:	6b1b      	ldr	r3, [r3, #48]	@ 0x30
 800169a:	f003 0302 	and.w	r3, r3, #2
 800169e:	613b      	str	r3, [r7, #16]
 80016a0:	693b      	ldr	r3, [r7, #16]
 80016a2:	f44f 7340 	mov.w	r3, #768	@ 0x300
 80016a6:	617b      	str	r3, [r7, #20]
 80016a8:	2312      	movs	r3, #18
 80016aa:	61bb      	str	r3, [r7, #24]
 80016ac:	2300      	movs	r3, #0
 80016ae:	61fb      	str	r3, [r7, #28]
 80016b0:	2303      	movs	r3, #3
 80016b2:	623b      	str	r3, [r7, #32]
 80016b4:	2304      	movs	r3, #4
 80016b6:	627b      	str	r3, [r7, #36]	@ 0x24
 80016b8:	f107 0314 	add.w	r3, r7, #20
 80016bc:	4619      	mov	r1, r3
 80016be:	480c      	ldr	r0, [pc, #48]	@ (80016f0 <HAL_I2C_MspInit+0x8c>)
 80016c0:	f001 fc64 	bl	8002f8c <HAL_GPIO_Init>
 80016c4:	2300      	movs	r3, #0
 80016c6:	60fb      	str	r3, [r7, #12]
 80016c8:	4b08      	ldr	r3, [pc, #32]	@ (80016ec <HAL_I2C_MspInit+0x88>)
 80016ca:	6c1b      	ldr	r3, [r3, #64]	@ 0x40
 80016cc:	4a07      	ldr	r2, [pc, #28]	@ (80016ec <HAL_I2C_MspInit+0x88>)
 80016ce:	f443 1300 	orr.w	r3, r3, #2097152	@ 0x200000
 80016d2:	6413      	str	r3, [r2, #64]	@ 0x40
 80016d4:	4b05      	ldr	r3, [pc, #20]	@ (80016ec <HAL_I2C_MspInit+0x88>)
 80016d6:	6c1b      	ldr	r3, [r3, #64]	@ 0x40
 80016d8:	f403 1300 	and.w	r3, r3, #2097152	@ 0x200000
 80016dc:	60fb      	str	r3, [r7, #12]
 80016de:	68fb      	ldr	r3, [r7, #12]
 80016e0:	bf00      	nop
 80016e2:	3728      	adds	r7, #40	@ 0x28
 80016e4:	46bd      	mov	sp, r7
 80016e6:	bd80      	pop	{r7, pc}
 80016e8:	40005400 	.word	0x40005400
 80016ec:	40023800 	.word	0x40023800
 80016f0:	40020400 	.word	0x40020400

080016f4 <dataOut>:
 80016f4:	b580      	push	{r7, lr}
 80016f6:	b084      	sub	sp, #16
 80016f8:	af00      	add	r7, sp, #0
 80016fa:	4603      	mov	r3, r0
 80016fc:	71fb      	strb	r3, [r7, #7]
 80016fe:	2307      	movs	r3, #7
 8001700:	60fb      	str	r3, [r7, #12]
 8001702:	e025      	b.n	8001750 <dataOut+0x5c>
 8001704:	79fa      	ldrb	r2, [r7, #7]
 8001706:	68fb      	ldr	r3, [r7, #12]
 8001708:	fa42 f303 	asr.w	r3, r2, r3
 800170c:	f003 0301 	and.w	r3, r3, #1
 8001710:	2b00      	cmp	r3, #0
 8001712:	d005      	beq.n	8001720 <dataOut+0x2c>
 8001714:	2201      	movs	r2, #1
 8001716:	2120      	movs	r1, #32
 8001718:	4818      	ldr	r0, [pc, #96]	@ (800177c <dataOut+0x88>)
 800171a:	f001 fdd3 	bl	80032c4 <HAL_GPIO_WritePin>
 800171e:	e004      	b.n	800172a <dataOut+0x36>
 8001720:	2200      	movs	r2, #0
 8001722:	2120      	movs	r1, #32
 8001724:	4815      	ldr	r0, [pc, #84]	@ (800177c <dataOut+0x88>)
 8001726:	f001 fdcd 	bl	80032c4 <HAL_GPIO_WritePin>
 800172a:	2201      	movs	r2, #1
 800172c:	2140      	movs	r1, #64	@ 0x40
 800172e:	4813      	ldr	r0, [pc, #76]	@ (800177c <dataOut+0x88>)
 8001730:	f001 fdc8 	bl	80032c4 <HAL_GPIO_WritePin>
 8001734:	2005      	movs	r0, #5
 8001736:	f7ff f84d 	bl	80007d4 <delay_us>
 800173a:	2200      	movs	r2, #0
 800173c:	2140      	movs	r1, #64	@ 0x40
 800173e:	480f      	ldr	r0, [pc, #60]	@ (800177c <dataOut+0x88>)
 8001740:	f001 fdc0 	bl	80032c4 <HAL_GPIO_WritePin>
 8001744:	2005      	movs	r0, #5
 8001746:	f7ff f845 	bl	80007d4 <delay_us>
 800174a:	68fb      	ldr	r3, [r7, #12]
 800174c:	3b01      	subs	r3, #1
 800174e:	60fb      	str	r3, [r7, #12]
 8001750:	68fb      	ldr	r3, [r7, #12]
 8001752:	2b00      	cmp	r3, #0
 8001754:	dad6      	bge.n	8001704 <dataOut+0x10>
 8001756:	2201      	movs	r2, #1
 8001758:	f44f 7180 	mov.w	r1, #256	@ 0x100
 800175c:	4807      	ldr	r0, [pc, #28]	@ (800177c <dataOut+0x88>)
 800175e:	f001 fdb1 	bl	80032c4 <HAL_GPIO_WritePin>
 8001762:	200a      	movs	r0, #10
 8001764:	f7ff f836 	bl	80007d4 <delay_us>
 8001768:	2200      	movs	r2, #0
 800176a:	f44f 7180 	mov.w	r1, #256	@ 0x100
 800176e:	4803      	ldr	r0, [pc, #12]	@ (800177c <dataOut+0x88>)
 8001770:	f001 fda8 	bl	80032c4 <HAL_GPIO_WritePin>
 8001774:	bf00      	nop
 8001776:	3710      	adds	r7, #16
 8001778:	46bd      	mov	sp, r7
 800177a:	bd80      	pop	{r7, pc}
 800177c:	40020800 	.word	0x40020800

08001780 <ResetAnimation>:
 8001780:	b580      	push	{r7, lr}
 8001782:	b082      	sub	sp, #8
 8001784:	af00      	add	r7, sp, #0
 8001786:	4603      	mov	r3, r0
 8001788:	71fb      	strb	r3, [r7, #7]
 800178a:	4a0a      	ldr	r2, [pc, #40]	@ (80017b4 <ResetAnimation+0x34>)
 800178c:	79fb      	ldrb	r3, [r7, #7]
 800178e:	7013      	strb	r3, [r2, #0]
 8001790:	4b09      	ldr	r3, [pc, #36]	@ (80017b8 <ResetAnimation+0x38>)
 8001792:	2200      	movs	r2, #0
 8001794:	701a      	strb	r2, [r3, #0]
 8001796:	4b09      	ldr	r3, [pc, #36]	@ (80017bc <ResetAnimation+0x3c>)
 8001798:	2200      	movs	r2, #0
 800179a:	701a      	strb	r2, [r3, #0]
 800179c:	f001 fa46 	bl	8002c2c <HAL_GetTick>
 80017a0:	4603      	mov	r3, r0
 80017a2:	4a07      	ldr	r2, [pc, #28]	@ (80017c0 <ResetAnimation+0x40>)
 80017a4:	6013      	str	r3, [r2, #0]
 80017a6:	2000      	movs	r0, #0
 80017a8:	f7ff ffa4 	bl	80016f4 <dataOut>
 80017ac:	bf00      	nop
 80017ae:	3708      	adds	r7, #8
 80017b0:	46bd      	mov	sp, r7
 80017b2:	bd80      	pop	{r7, pc}
 80017b4:	2000018c 	.word	0x2000018c
 80017b8:	20000194 	.word	0x20000194
 80017bc:	20000195 	.word	0x20000195
 80017c0:	20000190 	.word	0x20000190

080017c4 <LED_Init>:
 80017c4:	b580      	push	{r7, lr}
 80017c6:	af00      	add	r7, sp, #0
 80017c8:	2003      	movs	r0, #3
 80017ca:	f7ff ffd9 	bl	8001780 <ResetAnimation>
 80017ce:	bf00      	nop
 80017d0:	bd80      	pop	{r7, pc}
	...

080017d4 <ledUp>:
 80017d4:	b580      	push	{r7, lr}
 80017d6:	b082      	sub	sp, #8
 80017d8:	af00      	add	r7, sp, #0
 80017da:	4b1e      	ldr	r3, [pc, #120]	@ (8001854 <ledUp+0x80>)
 80017dc:	781b      	ldrb	r3, [r3, #0]
 80017de:	2b01      	cmp	r3, #1
 80017e0:	d002      	beq.n	80017e8 <ledUp+0x14>
 80017e2:	2001      	movs	r0, #1
 80017e4:	f7ff ffcc 	bl	8001780 <ResetAnimation>
 80017e8:	f001 fa20 	bl	8002c2c <HAL_GetTick>
 80017ec:	6078      	str	r0, [r7, #4]
 80017ee:	4b1a      	ldr	r3, [pc, #104]	@ (8001858 <ledUp+0x84>)
 80017f0:	681b      	ldr	r3, [r3, #0]
 80017f2:	687a      	ldr	r2, [r7, #4]
 80017f4:	1ad3      	subs	r3, r2, r3
 80017f6:	f5b3 7f96 	cmp.w	r3, #300	@ 0x12c
 80017fa:	d326      	bcc.n	800184a <ledUp+0x76>
 80017fc:	4a16      	ldr	r2, [pc, #88]	@ (8001858 <ledUp+0x84>)
 80017fe:	687b      	ldr	r3, [r7, #4]
 8001800:	6013      	str	r3, [r2, #0]
 8001802:	4b16      	ldr	r3, [pc, #88]	@ (800185c <ledUp+0x88>)
 8001804:	781b      	ldrb	r3, [r3, #0]
 8001806:	461a      	mov	r2, r3
 8001808:	2301      	movs	r3, #1
 800180a:	4093      	lsls	r3, r2
 800180c:	b25a      	sxtb	r2, r3
 800180e:	4b14      	ldr	r3, [pc, #80]	@ (8001860 <ledUp+0x8c>)
 8001810:	781b      	ldrb	r3, [r3, #0]
 8001812:	b25b      	sxtb	r3, r3
 8001814:	4313      	orrs	r3, r2
 8001816:	b25b      	sxtb	r3, r3
 8001818:	b2da      	uxtb	r2, r3
 800181a:	4b11      	ldr	r3, [pc, #68]	@ (8001860 <ledUp+0x8c>)
 800181c:	701a      	strb	r2, [r3, #0]
 800181e:	4b10      	ldr	r3, [pc, #64]	@ (8001860 <ledUp+0x8c>)
 8001820:	781b      	ldrb	r3, [r3, #0]
 8001822:	4618      	mov	r0, r3
 8001824:	f7ff ff66 	bl	80016f4 <dataOut>
 8001828:	4b0c      	ldr	r3, [pc, #48]	@ (800185c <ledUp+0x88>)
 800182a:	781b      	ldrb	r3, [r3, #0]
 800182c:	3301      	adds	r3, #1
 800182e:	b2da      	uxtb	r2, r3
 8001830:	4b0a      	ldr	r3, [pc, #40]	@ (800185c <ledUp+0x88>)
 8001832:	701a      	strb	r2, [r3, #0]
 8001834:	4b09      	ldr	r3, [pc, #36]	@ (800185c <ledUp+0x88>)
 8001836:	781b      	ldrb	r3, [r3, #0]
 8001838:	2b07      	cmp	r3, #7
 800183a:	d907      	bls.n	800184c <ledUp+0x78>
 800183c:	4b07      	ldr	r3, [pc, #28]	@ (800185c <ledUp+0x88>)
 800183e:	2200      	movs	r2, #0
 8001840:	701a      	strb	r2, [r3, #0]
 8001842:	4b07      	ldr	r3, [pc, #28]	@ (8001860 <ledUp+0x8c>)
 8001844:	2200      	movs	r2, #0
 8001846:	701a      	strb	r2, [r3, #0]
 8001848:	e000      	b.n	800184c <ledUp+0x78>
 800184a:	bf00      	nop
 800184c:	3708      	adds	r7, #8
 800184e:	46bd      	mov	sp, r7
 8001850:	bd80      	pop	{r7, pc}
 8001852:	bf00      	nop
 8001854:	2000018c 	.word	0x2000018c
 8001858:	20000190 	.word	0x20000190
 800185c:	20000194 	.word	0x20000194
 8001860:	20000195 	.word	0x20000195

08001864 <ledDown>:
 8001864:	b580      	push	{r7, lr}
 8001866:	b082      	sub	sp, #8
 8001868:	af00      	add	r7, sp, #0
 800186a:	4b1e      	ldr	r3, [pc, #120]	@ (80018e4 <ledDown+0x80>)
 800186c:	781b      	ldrb	r3, [r3, #0]
 800186e:	2b02      	cmp	r3, #2
 8001870:	d002      	beq.n	8001878 <ledDown+0x14>
 8001872:	2002      	movs	r0, #2
 8001874:	f7ff ff84 	bl	8001780 <ResetAnimation>
 8001878:	f001 f9d8 	bl	8002c2c <HAL_GetTick>
 800187c:	6078      	str	r0, [r7, #4]
 800187e:	4b1a      	ldr	r3, [pc, #104]	@ (80018e8 <ledDown+0x84>)
 8001880:	681b      	ldr	r3, [r3, #0]
 8001882:	687a      	ldr	r2, [r7, #4]
 8001884:	1ad3      	subs	r3, r2, r3
 8001886:	f5b3 7f96 	cmp.w	r3, #300	@ 0x12c
 800188a:	d326      	bcc.n	80018da <ledDown+0x76>
 800188c:	4a16      	ldr	r2, [pc, #88]	@ (80018e8 <ledDown+0x84>)
 800188e:	687b      	ldr	r3, [r7, #4]
 8001890:	6013      	str	r3, [r2, #0]
 8001892:	4b16      	ldr	r3, [pc, #88]	@ (80018ec <ledDown+0x88>)
 8001894:	781b      	ldrb	r3, [r3, #0]
 8001896:	461a      	mov	r2, r3
 8001898:	2380      	movs	r3, #128	@ 0x80
 800189a:	4113      	asrs	r3, r2
 800189c:	b25a      	sxtb	r2, r3
 800189e:	4b14      	ldr	r3, [pc, #80]	@ (80018f0 <ledDown+0x8c>)
 80018a0:	781b      	ldrb	r3, [r3, #0]
 80018a2:	b25b      	sxtb	r3, r3
 80018a4:	4313      	orrs	r3, r2
 80018a6:	b25b      	sxtb	r3, r3
 80018a8:	b2da      	uxtb	r2, r3
 80018aa:	4b11      	ldr	r3, [pc, #68]	@ (80018f0 <ledDown+0x8c>)
 80018ac:	701a      	strb	r2, [r3, #0]
 80018ae:	4b10      	ldr	r3, [pc, #64]	@ (80018f0 <ledDown+0x8c>)
 80018b0:	781b      	ldrb	r3, [r3, #0]
 80018b2:	4618      	mov	r0, r3
 80018b4:	f7ff ff1e 	bl	80016f4 <dataOut>
 80018b8:	4b0c      	ldr	r3, [pc, #48]	@ (80018ec <ledDown+0x88>)
 80018ba:	781b      	ldrb	r3, [r3, #0]
 80018bc:	3301      	adds	r3, #1
 80018be:	b2da      	uxtb	r2, r3
 80018c0:	4b0a      	ldr	r3, [pc, #40]	@ (80018ec <ledDown+0x88>)
 80018c2:	701a      	strb	r2, [r3, #0]
 80018c4:	4b09      	ldr	r3, [pc, #36]	@ (80018ec <ledDown+0x88>)
 80018c6:	781b      	ldrb	r3, [r3, #0]
 80018c8:	2b07      	cmp	r3, #7
 80018ca:	d907      	bls.n	80018dc <ledDown+0x78>
 80018cc:	4b07      	ldr	r3, [pc, #28]	@ (80018ec <ledDown+0x88>)
 80018ce:	2200      	movs	r2, #0
 80018d0:	701a      	strb	r2, [r3, #0]
 80018d2:	4b07      	ldr	r3, [pc, #28]	@ (80018f0 <ledDown+0x8c>)
 80018d4:	2200      	movs	r2, #0
 80018d6:	701a      	strb	r2, [r3, #0]
 80018d8:	e000      	b.n	80018dc <ledDown+0x78>
 80018da:	bf00      	nop
 80018dc:	3708      	adds	r7, #8
 80018de:	46bd      	mov	sp, r7
 80018e0:	bd80      	pop	{r7, pc}
 80018e2:	bf00      	nop
 80018e4:	2000018c 	.word	0x2000018c
 80018e8:	20000190 	.word	0x20000190
 80018ec:	20000194 	.word	0x20000194
 80018f0:	20000195 	.word	0x20000195

080018f4 <ledOff>:
 80018f4:	b580      	push	{r7, lr}
 80018f6:	af00      	add	r7, sp, #0
 80018f8:	4b05      	ldr	r3, [pc, #20]	@ (8001910 <ledOff+0x1c>)
 80018fa:	781b      	ldrb	r3, [r3, #0]
 80018fc:	2b03      	cmp	r3, #3
 80018fe:	d005      	beq.n	800190c <ledOff+0x18>
 8001900:	2000      	movs	r0, #0
 8001902:	f7ff fef7 	bl	80016f4 <dataOut>
 8001906:	4b02      	ldr	r3, [pc, #8]	@ (8001910 <ledOff+0x1c>)
 8001908:	2203      	movs	r2, #3
 800190a:	701a      	strb	r2, [r3, #0]
 800190c:	bf00      	nop
 800190e:	bd80      	pop	{r7, pc}
 8001910:	2000018c 	.word	0x2000018c

08001914 <Log_Init>:
 8001914:	b480      	push	{r7}
 8001916:	b083      	sub	sp, #12
 8001918:	af00      	add	r7, sp, #0
 800191a:	6078      	str	r0, [r7, #4]
 800191c:	4a04      	ldr	r2, [pc, #16]	@ (8001930 <Log_Init+0x1c>)
 800191e:	687b      	ldr	r3, [r7, #4]
 8001920:	6013      	str	r3, [r2, #0]
 8001922:	bf00      	nop
 8001924:	370c      	adds	r7, #12
 8001926:	46bd      	mov	sp, r7
 8001928:	f85d 7b04 	ldr.w	r7, [sp], #4
 800192c:	4770      	bx	lr
 800192e:	bf00      	nop
 8001930:	20000198 	.word	0x20000198

08001934 <Log_Printf>:
 8001934:	b40f      	push	{r0, r1, r2, r3}
 8001936:	b580      	push	{r7, lr}
 8001938:	b0aa      	sub	sp, #168	@ 0xa8
 800193a:	af00      	add	r7, sp, #0
 800193c:	4b19      	ldr	r3, [pc, #100]	@ (80019a4 <Log_Printf+0x70>)
 800193e:	681b      	ldr	r3, [r3, #0]
 8001940:	2b00      	cmp	r3, #0
 8001942:	d026      	beq.n	8001992 <Log_Printf+0x5e>
 8001944:	f107 03b4 	add.w	r3, r7, #180	@ 0xb4
 8001948:	603b      	str	r3, [r7, #0]
 800194a:	1d38      	adds	r0, r7, #4
 800194c:	683b      	ldr	r3, [r7, #0]
 800194e:	f8d7 20b0 	ldr.w	r2, [r7, #176]	@ 0xb0
 8001952:	21a0      	movs	r1, #160	@ 0xa0
 8001954:	f004 faec 	bl	8005f30 <vsniprintf>
 8001958:	f8c7 00a4 	str.w	r0, [r7, #164]	@ 0xa4
 800195c:	f8d7 30a4 	ldr.w	r3, [r7, #164]	@ 0xa4
 8001960:	2b00      	cmp	r3, #0
 8001962:	dd18      	ble.n	8001996 <Log_Printf+0x62>
 8001964:	f8d7 30a4 	ldr.w	r3, [r7, #164]	@ 0xa4
 8001968:	2b9f      	cmp	r3, #159	@ 0x9f
 800196a:	dd08      	ble.n	800197e <Log_Printf+0x4a>
 800196c:	239f      	movs	r3, #159	@ 0x9f
 800196e:	f8c7 30a4 	str.w	r3, [r7, #164]	@ 0xa4
 8001972:	1d3a      	adds	r2, r7, #4
 8001974:	f8d7 30a4 	ldr.w	r3, [r7, #164]	@ 0xa4
 8001978:	4413      	add	r3, r2
 800197a:	2200      	movs	r2, #0
 800197c:	701a      	strb	r2, [r3, #0]
 800197e:	4b09      	ldr	r3, [pc, #36]	@ (80019a4 <Log_Printf+0x70>)
 8001980:	6818      	ldr	r0, [r3, #0]
 8001982:	f8d7 30a4 	ldr.w	r3, [r7, #164]	@ 0xa4
 8001986:	b29a      	uxth	r2, r3
 8001988:	1d39      	adds	r1, r7, #4
 800198a:	2332      	movs	r3, #50	@ 0x32
 800198c:	f003 f9c8 	bl	8004d20 <HAL_UART_Transmit>
 8001990:	e002      	b.n	8001998 <Log_Printf+0x64>
 8001992:	bf00      	nop
 8001994:	e000      	b.n	8001998 <Log_Printf+0x64>
 8001996:	bf00      	nop
 8001998:	37a8      	adds	r7, #168	@ 0xa8
 800199a:	46bd      	mov	sp, r7
 800199c:	e8bd 4080 	ldmia.w	sp!, {r7, lr}
 80019a0:	b004      	add	sp, #16
 80019a2:	4770      	bx	lr
 80019a4:	20000198 	.word	0x20000198

080019a8 <HAL_GPIO_EXTI_Callback>:
 80019a8:	b580      	push	{r7, lr}
 80019aa:	b082      	sub	sp, #8
 80019ac:	af00      	add	r7, sp, #0
 80019ae:	4603      	mov	r3, r0
 80019b0:	80fb      	strh	r3, [r7, #6]
 80019b2:	88fb      	ldrh	r3, [r7, #6]
 80019b4:	4618      	mov	r0, r3
 80019b6:	f000 f947 	bl	8001c48 <Photo_OnExti>
 80019ba:	bf00      	nop
 80019bc:	3708      	adds	r7, #8
 80019be:	46bd      	mov	sp, r7
 80019c0:	bd80      	pop	{r7, pc}
	...

080019c4 <main>:
 80019c4:	b580      	push	{r7, lr}
 80019c6:	af00      	add	r7, sp, #0
 80019c8:	f001 f8ca 	bl	8002b60 <HAL_Init>
 80019cc:	f000 f820 	bl	8001a10 <SystemClock_Config>
 80019d0:	f7ff fd18 	bl	8001404 <MX_GPIO_Init>
 80019d4:	f000 fee8 	bl	80027a8 <MX_TIM1_Init>
 80019d8:	f001 f81e 	bl	8002a18 <MX_USART2_UART_Init>
 80019dc:	f000 ff86 	bl	80028ec <MX_TIM11_Init>
 80019e0:	f7ff fe12 	bl	8001608 <MX_I2C1_Init>
 80019e4:	4807      	ldr	r0, [pc, #28]	@ (8001a04 <main+0x40>)
 80019e6:	f7ff ff95 	bl	8001914 <Log_Init>
 80019ea:	2100      	movs	r1, #0
 80019ec:	4806      	ldr	r0, [pc, #24]	@ (8001a08 <main+0x44>)
 80019ee:	f002 fb7b 	bl	80040e8 <HAL_TIM_PWM_Start>
 80019f2:	4806      	ldr	r0, [pc, #24]	@ (8001a0c <main+0x48>)
 80019f4:	f002 fac4 	bl	8003f80 <HAL_TIM_Base_Start>
 80019f8:	f7fe fdd8 	bl	80005ac <App_Init>
 80019fc:	f7fe fdf6 	bl	80005ec <App_Task>
 8001a00:	e7fc      	b.n	80019fc <main+0x38>
 8001a02:	bf00      	nop
 8001a04:	200002a4 	.word	0x200002a4
 8001a08:	20000214 	.word	0x20000214
 8001a0c:	2000025c 	.word	0x2000025c

08001a10 <SystemClock_Config>:
 8001a10:	b580      	push	{r7, lr}
 8001a12:	b094      	sub	sp, #80	@ 0x50
 8001a14:	af00      	add	r7, sp, #0
 8001a16:	f107 0320 	add.w	r3, r7, #32
 8001a1a:	2230      	movs	r2, #48	@ 0x30
 8001a1c:	2100      	movs	r1, #0
 8001a1e:	4618      	mov	r0, r3
 8001a20:	f004 fa94 	bl	8005f4c <memset>
 8001a24:	f107 030c 	add.w	r3, r7, #12
 8001a28:	2200      	movs	r2, #0
 8001a2a:	601a      	str	r2, [r3, #0]
 8001a2c:	605a      	str	r2, [r3, #4]
 8001a2e:	609a      	str	r2, [r3, #8]
 8001a30:	60da      	str	r2, [r3, #12]
 8001a32:	611a      	str	r2, [r3, #16]
 8001a34:	2300      	movs	r3, #0
 8001a36:	60bb      	str	r3, [r7, #8]
 8001a38:	4b27      	ldr	r3, [pc, #156]	@ (8001ad8 <SystemClock_Config+0xc8>)
 8001a3a:	6c1b      	ldr	r3, [r3, #64]	@ 0x40
 8001a3c:	4a26      	ldr	r2, [pc, #152]	@ (8001ad8 <SystemClock_Config+0xc8>)
 8001a3e:	f043 5380 	orr.w	r3, r3, #268435456	@ 0x10000000
 8001a42:	6413      	str	r3, [r2, #64]	@ 0x40
 8001a44:	4b24      	ldr	r3, [pc, #144]	@ (8001ad8 <SystemClock_Config+0xc8>)
 8001a46:	6c1b      	ldr	r3, [r3, #64]	@ 0x40
 8001a48:	f003 5380 	and.w	r3, r3, #268435456	@ 0x10000000
 8001a4c:	60bb      	str	r3, [r7, #8]
 8001a4e:	68bb      	ldr	r3, [r7, #8]
 8001a50:	2300      	movs	r3, #0
 8001a52:	607b      	str	r3, [r7, #4]
 8001a54:	4b21      	ldr	r3, [pc, #132]	@ (8001adc <SystemClock_Config+0xcc>)
 8001a56:	681b      	ldr	r3, [r3, #0]
 8001a58:	4a20      	ldr	r2, [pc, #128]	@ (8001adc <SystemClock_Config+0xcc>)
 8001a5a:	f443 4340 	orr.w	r3, r3, #49152	@ 0xc000
 8001a5e:	6013      	str	r3, [r2, #0]
 8001a60:	4b1e      	ldr	r3, [pc, #120]	@ (8001adc <SystemClock_Config+0xcc>)
 8001a62:	681b      	ldr	r3, [r3, #0]
 8001a64:	f403 4340 	and.w	r3, r3, #49152	@ 0xc000
 8001a68:	607b      	str	r3, [r7, #4]
 8001a6a:	687b      	ldr	r3, [r7, #4]
 8001a6c:	2301      	movs	r3, #1
 8001a6e:	623b      	str	r3, [r7, #32]
 8001a70:	f44f 23a0 	mov.w	r3, #327680	@ 0x50000
 8001a74:	627b      	str	r3, [r7, #36]	@ 0x24
 8001a76:	2302      	movs	r3, #2
 8001a78:	63bb      	str	r3, [r7, #56]	@ 0x38
 8001a7a:	f44f 0380 	mov.w	r3, #4194304	@ 0x400000
 8001a7e:	63fb      	str	r3, [r7, #60]	@ 0x3c
 8001a80:	2304      	movs	r3, #4
 8001a82:	643b      	str	r3, [r7, #64]	@ 0x40
 8001a84:	2364      	movs	r3, #100	@ 0x64
 8001a86:	647b      	str	r3, [r7, #68]	@ 0x44
 8001a88:	2302      	movs	r3, #2
 8001a8a:	64bb      	str	r3, [r7, #72]	@ 0x48
 8001a8c:	2304      	movs	r3, #4
 8001a8e:	64fb      	str	r3, [r7, #76]	@ 0x4c
 8001a90:	f107 0320 	add.w	r3, r7, #32
 8001a94:	4618      	mov	r0, r3
 8001a96:	f001 fd8b 	bl	80035b0 <HAL_RCC_OscConfig>
 8001a9a:	4603      	mov	r3, r0
 8001a9c:	2b00      	cmp	r3, #0
 8001a9e:	d001      	beq.n	8001aa4 <SystemClock_Config+0x94>
 8001aa0:	f000 f81e 	bl	8001ae0 <Error_Handler>
 8001aa4:	230f      	movs	r3, #15
 8001aa6:	60fb      	str	r3, [r7, #12]
 8001aa8:	2302      	movs	r3, #2
 8001aaa:	613b      	str	r3, [r7, #16]
 8001aac:	2300      	movs	r3, #0
 8001aae:	617b      	str	r3, [r7, #20]
 8001ab0:	f44f 5380 	mov.w	r3, #4096	@ 0x1000
 8001ab4:	61bb      	str	r3, [r7, #24]
 8001ab6:	2300      	movs	r3, #0
 8001ab8:	61fb      	str	r3, [r7, #28]
 8001aba:	f107 030c 	add.w	r3, r7, #12
 8001abe:	2103      	movs	r1, #3
 8001ac0:	4618      	mov	r0, r3
 8001ac2:	f001 ffed 	bl	8003aa0 <HAL_RCC_ClockConfig>
 8001ac6:	4603      	mov	r3, r0
 8001ac8:	2b00      	cmp	r3, #0
 8001aca:	d001      	beq.n	8001ad0 <SystemClock_Config+0xc0>
 8001acc:	f000 f808 	bl	8001ae0 <Error_Handler>
 8001ad0:	bf00      	nop
 8001ad2:	3750      	adds	r7, #80	@ 0x50
 8001ad4:	46bd      	mov	sp, r7
 8001ad6:	bd80      	pop	{r7, pc}
 8001ad8:	40023800 	.word	0x40023800
 8001adc:	40007000 	.word	0x40007000

08001ae0 <Error_Handler>:
 8001ae0:	b480      	push	{r7}
 8001ae2:	af00      	add	r7, sp, #0
 8001ae4:	b672      	cpsid	i
 8001ae6:	bf00      	nop
 8001ae8:	bf00      	nop
 8001aea:	e7fd      	b.n	8001ae8 <Error_Handler+0x8>

08001aec <Detected>:
 8001aec:	b580      	push	{r7, lr}
 8001aee:	b082      	sub	sp, #8
 8001af0:	af00      	add	r7, sp, #0
 8001af2:	6078      	str	r0, [r7, #4]
 8001af4:	460b      	mov	r3, r1
 8001af6:	807b      	strh	r3, [r7, #2]
 8001af8:	887b      	ldrh	r3, [r7, #2]
 8001afa:	4619      	mov	r1, r3
 8001afc:	6878      	ldr	r0, [r7, #4]
 8001afe:	f001 fbc9 	bl	8003294 <HAL_GPIO_ReadPin>
 8001b02:	4603      	mov	r3, r0
 8001b04:	2b00      	cmp	r3, #0
 8001b06:	bf0c      	ite	eq
 8001b08:	2301      	moveq	r3, #1
 8001b0a:	2300      	movne	r3, #0
 8001b0c:	b2db      	uxtb	r3, r3
 8001b0e:	4618      	mov	r0, r3
 8001b10:	3708      	adds	r7, #8
 8001b12:	46bd      	mov	sp, r7
 8001b14:	bd80      	pop	{r7, pc}
	...

08001b18 <ReadNow>:
 8001b18:	b580      	push	{r7, lr}
 8001b1a:	b084      	sub	sp, #16
 8001b1c:	af00      	add	r7, sp, #0
 8001b1e:	60f8      	str	r0, [r7, #12]
 8001b20:	60b9      	str	r1, [r7, #8]
 8001b22:	607a      	str	r2, [r7, #4]
 8001b24:	f44f 5180 	mov.w	r1, #4096	@ 0x1000
 8001b28:	480d      	ldr	r0, [pc, #52]	@ (8001b60 <ReadNow+0x48>)
 8001b2a:	f7ff ffdf 	bl	8001aec <Detected>
 8001b2e:	4603      	mov	r3, r0
 8001b30:	461a      	mov	r2, r3
 8001b32:	68fb      	ldr	r3, [r7, #12]
 8001b34:	701a      	strb	r2, [r3, #0]
 8001b36:	2180      	movs	r1, #128	@ 0x80
 8001b38:	480a      	ldr	r0, [pc, #40]	@ (8001b64 <ReadNow+0x4c>)
 8001b3a:	f7ff ffd7 	bl	8001aec <Detected>
 8001b3e:	4603      	mov	r3, r0
 8001b40:	461a      	mov	r2, r3
 8001b42:	68bb      	ldr	r3, [r7, #8]
 8001b44:	701a      	strb	r2, [r3, #0]
 8001b46:	f44f 6180 	mov.w	r1, #1024	@ 0x400
 8001b4a:	4806      	ldr	r0, [pc, #24]	@ (8001b64 <ReadNow+0x4c>)
 8001b4c:	f7ff ffce 	bl	8001aec <Detected>
 8001b50:	4603      	mov	r3, r0
 8001b52:	461a      	mov	r2, r3
 8001b54:	687b      	ldr	r3, [r7, #4]
 8001b56:	701a      	strb	r2, [r3, #0]
 8001b58:	bf00      	nop
 8001b5a:	3710      	adds	r7, #16
 8001b5c:	46bd      	mov	sp, r7
 8001b5e:	bd80      	pop	{r7, pc}
 8001b60:	40020000 	.word	0x40020000
 8001b64:	40020400 	.word	0x40020400

08001b68 <DecodeFSM>:
 8001b68:	b480      	push	{r7}
 8001b6a:	b085      	sub	sp, #20
 8001b6c:	af00      	add	r7, sp, #0
 8001b6e:	4603      	mov	r3, r0
 8001b70:	71fb      	strb	r3, [r7, #7]
 8001b72:	460b      	mov	r3, r1
 8001b74:	71bb      	strb	r3, [r7, #6]
 8001b76:	4613      	mov	r3, r2
 8001b78:	717b      	strb	r3, [r7, #5]
 8001b7a:	79fa      	ldrb	r2, [r7, #7]
 8001b7c:	79bb      	ldrb	r3, [r7, #6]
 8001b7e:	4413      	add	r3, r2
 8001b80:	b2da      	uxtb	r2, r3
 8001b82:	797b      	ldrb	r3, [r7, #5]
 8001b84:	4413      	add	r3, r2
 8001b86:	73fb      	strb	r3, [r7, #15]
 8001b88:	7bfb      	ldrb	r3, [r7, #15]
 8001b8a:	2b00      	cmp	r3, #0
 8001b8c:	d101      	bne.n	8001b92 <DecodeFSM+0x2a>
 8001b8e:	2300      	movs	r3, #0
 8001b90:	e02d      	b.n	8001bee <DecodeFSM+0x86>
 8001b92:	7bfb      	ldrb	r3, [r7, #15]
 8001b94:	2b01      	cmp	r3, #1
 8001b96:	d10e      	bne.n	8001bb6 <DecodeFSM+0x4e>
 8001b98:	79fb      	ldrb	r3, [r7, #7]
 8001b9a:	2b00      	cmp	r3, #0
 8001b9c:	d001      	beq.n	8001ba2 <DecodeFSM+0x3a>
 8001b9e:	2301      	movs	r3, #1
 8001ba0:	e025      	b.n	8001bee <DecodeFSM+0x86>
 8001ba2:	79bb      	ldrb	r3, [r7, #6]
 8001ba4:	2b00      	cmp	r3, #0
 8001ba6:	d001      	beq.n	8001bac <DecodeFSM+0x44>
 8001ba8:	2302      	movs	r3, #2
 8001baa:	e020      	b.n	8001bee <DecodeFSM+0x86>
 8001bac:	797b      	ldrb	r3, [r7, #5]
 8001bae:	2b00      	cmp	r3, #0
 8001bb0:	d001      	beq.n	8001bb6 <DecodeFSM+0x4e>
 8001bb2:	2303      	movs	r3, #3
 8001bb4:	e01b      	b.n	8001bee <DecodeFSM+0x86>
 8001bb6:	7bfb      	ldrb	r3, [r7, #15]
 8001bb8:	2b02      	cmp	r3, #2
 8001bba:	d117      	bne.n	8001bec <DecodeFSM+0x84>
 8001bbc:	79fb      	ldrb	r3, [r7, #7]
 8001bbe:	2b00      	cmp	r3, #0
 8001bc0:	d007      	beq.n	8001bd2 <DecodeFSM+0x6a>
 8001bc2:	79bb      	ldrb	r3, [r7, #6]
 8001bc4:	2b00      	cmp	r3, #0
 8001bc6:	d004      	beq.n	8001bd2 <DecodeFSM+0x6a>
 8001bc8:	797b      	ldrb	r3, [r7, #5]
 8001bca:	2b00      	cmp	r3, #0
 8001bcc:	d101      	bne.n	8001bd2 <DecodeFSM+0x6a>
 8001bce:	2304      	movs	r3, #4
 8001bd0:	e00d      	b.n	8001bee <DecodeFSM+0x86>
 8001bd2:	79fb      	ldrb	r3, [r7, #7]
 8001bd4:	2b00      	cmp	r3, #0
 8001bd6:	d107      	bne.n	8001be8 <DecodeFSM+0x80>
 8001bd8:	79bb      	ldrb	r3, [r7, #6]
 8001bda:	2b00      	cmp	r3, #0
 8001bdc:	d004      	beq.n	8001be8 <DecodeFSM+0x80>
 8001bde:	797b      	ldrb	r3, [r7, #5]
 8001be0:	2b00      	cmp	r3, #0
 8001be2:	d001      	beq.n	8001be8 <DecodeFSM+0x80>
 8001be4:	2305      	movs	r3, #5
 8001be6:	e002      	b.n	8001bee <DecodeFSM+0x86>
 8001be8:	2306      	movs	r3, #6
 8001bea:	e000      	b.n	8001bee <DecodeFSM+0x86>
 8001bec:	2306      	movs	r3, #6
 8001bee:	4618      	mov	r0, r3
 8001bf0:	3714      	adds	r7, #20
 8001bf2:	46bd      	mov	sp, r7
 8001bf4:	f85d 7b04 	ldr.w	r7, [sp], #4
 8001bf8:	4770      	bx	lr
	...

08001bfc <Photo_Init>:
 8001bfc:	b580      	push	{r7, lr}
 8001bfe:	af00      	add	r7, sp, #0
 8001c00:	4b0a      	ldr	r3, [pc, #40]	@ (8001c2c <Photo_Init+0x30>)
 8001c02:	2200      	movs	r2, #0
 8001c04:	701a      	strb	r2, [r3, #0]
 8001c06:	4b0a      	ldr	r3, [pc, #40]	@ (8001c30 <Photo_Init+0x34>)
 8001c08:	2200      	movs	r2, #0
 8001c0a:	601a      	str	r2, [r3, #0]
 8001c0c:	f001 f80e 	bl	8002c2c <HAL_GetTick>
 8001c10:	4603      	mov	r3, r0
 8001c12:	4a08      	ldr	r2, [pc, #32]	@ (8001c34 <Photo_Init+0x38>)
 8001c14:	6013      	str	r3, [r2, #0]
 8001c16:	4a08      	ldr	r2, [pc, #32]	@ (8001c38 <Photo_Init+0x3c>)
 8001c18:	4908      	ldr	r1, [pc, #32]	@ (8001c3c <Photo_Init+0x40>)
 8001c1a:	4809      	ldr	r0, [pc, #36]	@ (8001c40 <Photo_Init+0x44>)
 8001c1c:	f7ff ff7c 	bl	8001b18 <ReadNow>
 8001c20:	4b08      	ldr	r3, [pc, #32]	@ (8001c44 <Photo_Init+0x48>)
 8001c22:	2201      	movs	r2, #1
 8001c24:	701a      	strb	r2, [r3, #0]
 8001c26:	bf00      	nop
 8001c28:	bd80      	pop	{r7, pc}
 8001c2a:	bf00      	nop
 8001c2c:	2000019c 	.word	0x2000019c
 8001c30:	200001a0 	.word	0x200001a0
 8001c34:	200001a8 	.word	0x200001a8
 8001c38:	200001a6 	.word	0x200001a6
 8001c3c:	200001a5 	.word	0x200001a5
 8001c40:	200001a4 	.word	0x200001a4
 8001c44:	200001a7 	.word	0x200001a7

08001c48 <Photo_OnExti>:
 8001c48:	b580      	push	{r7, lr}
 8001c4a:	b082      	sub	sp, #8
 8001c4c:	af00      	add	r7, sp, #0
 8001c4e:	4603      	mov	r3, r0
 8001c50:	80fb      	strh	r3, [r7, #6]
 8001c52:	f000 ffeb 	bl	8002c2c <HAL_GetTick>
 8001c56:	4602      	mov	r2, r0
 8001c58:	4b0e      	ldr	r3, [pc, #56]	@ (8001c94 <Photo_OnExti+0x4c>)
 8001c5a:	681b      	ldr	r3, [r3, #0]
 8001c5c:	1ad3      	subs	r3, r2, r3
 8001c5e:	2bc7      	cmp	r3, #199	@ 0xc7
 8001c60:	d913      	bls.n	8001c8a <Photo_OnExti+0x42>
 8001c62:	88fb      	ldrh	r3, [r7, #6]
 8001c64:	f5b3 5f80 	cmp.w	r3, #4096	@ 0x1000
 8001c68:	d006      	beq.n	8001c78 <Photo_OnExti+0x30>
 8001c6a:	88fb      	ldrh	r3, [r7, #6]
 8001c6c:	2b80      	cmp	r3, #128	@ 0x80
 8001c6e:	d003      	beq.n	8001c78 <Photo_OnExti+0x30>
 8001c70:	88fb      	ldrh	r3, [r7, #6]
 8001c72:	f5b3 6f80 	cmp.w	r3, #1024	@ 0x400
 8001c76:	d109      	bne.n	8001c8c <Photo_OnExti+0x44>
 8001c78:	4b07      	ldr	r3, [pc, #28]	@ (8001c98 <Photo_OnExti+0x50>)
 8001c7a:	2201      	movs	r2, #1
 8001c7c:	701a      	strb	r2, [r3, #0]
 8001c7e:	f000 ffd5 	bl	8002c2c <HAL_GetTick>
 8001c82:	4603      	mov	r3, r0
 8001c84:	4a05      	ldr	r2, [pc, #20]	@ (8001c9c <Photo_OnExti+0x54>)
 8001c86:	6013      	str	r3, [r2, #0]
 8001c88:	e000      	b.n	8001c8c <Photo_OnExti+0x44>
 8001c8a:	bf00      	nop
 8001c8c:	3708      	adds	r7, #8
 8001c8e:	46bd      	mov	sp, r7
 8001c90:	bd80      	pop	{r7, pc}
 8001c92:	bf00      	nop
 8001c94:	200001a8 	.word	0x200001a8
 8001c98:	2000019c 	.word	0x2000019c
 8001c9c:	200001a0 	.word	0x200001a0

08001ca0 <Photo_Task>:
 8001ca0:	b580      	push	{r7, lr}
 8001ca2:	b084      	sub	sp, #16
 8001ca4:	af00      	add	r7, sp, #0
 8001ca6:	f000 ffc1 	bl	8002c2c <HAL_GetTick>
 8001caa:	60b8      	str	r0, [r7, #8]
 8001cac:	2300      	movs	r3, #0
 8001cae:	73fb      	strb	r3, [r7, #15]
 8001cb0:	4b2e      	ldr	r3, [pc, #184]	@ (8001d6c <Photo_Task+0xcc>)
 8001cb2:	781b      	ldrb	r3, [r3, #0]
 8001cb4:	b2db      	uxtb	r3, r3
 8001cb6:	2b00      	cmp	r3, #0
 8001cb8:	d02a      	beq.n	8001d10 <Photo_Task+0x70>
 8001cba:	4b2d      	ldr	r3, [pc, #180]	@ (8001d70 <Photo_Task+0xd0>)
 8001cbc:	681b      	ldr	r3, [r3, #0]
 8001cbe:	68ba      	ldr	r2, [r7, #8]
 8001cc0:	1ad3      	subs	r3, r2, r3
 8001cc2:	2b1d      	cmp	r3, #29
 8001cc4:	d801      	bhi.n	8001cca <Photo_Task+0x2a>
 8001cc6:	2300      	movs	r3, #0
 8001cc8:	e04c      	b.n	8001d64 <Photo_Task+0xc4>
 8001cca:	4b28      	ldr	r3, [pc, #160]	@ (8001d6c <Photo_Task+0xcc>)
 8001ccc:	2200      	movs	r2, #0
 8001cce:	701a      	strb	r2, [r3, #0]
 8001cd0:	1d7a      	adds	r2, r7, #5
 8001cd2:	1db9      	adds	r1, r7, #6
 8001cd4:	1dfb      	adds	r3, r7, #7
 8001cd6:	4618      	mov	r0, r3
 8001cd8:	f7ff ff1e 	bl	8001b18 <ReadNow>
 8001cdc:	79fa      	ldrb	r2, [r7, #7]
 8001cde:	4b25      	ldr	r3, [pc, #148]	@ (8001d74 <Photo_Task+0xd4>)
 8001ce0:	781b      	ldrb	r3, [r3, #0]
 8001ce2:	429a      	cmp	r2, r3
 8001ce4:	d109      	bne.n	8001cfa <Photo_Task+0x5a>
 8001ce6:	79ba      	ldrb	r2, [r7, #6]
 8001ce8:	4b23      	ldr	r3, [pc, #140]	@ (8001d78 <Photo_Task+0xd8>)
 8001cea:	781b      	ldrb	r3, [r3, #0]
 8001cec:	429a      	cmp	r2, r3
 8001cee:	d104      	bne.n	8001cfa <Photo_Task+0x5a>
 8001cf0:	797a      	ldrb	r2, [r7, #5]
 8001cf2:	4b22      	ldr	r3, [pc, #136]	@ (8001d7c <Photo_Task+0xdc>)
 8001cf4:	781b      	ldrb	r3, [r3, #0]
 8001cf6:	429a      	cmp	r2, r3
 8001cf8:	d00a      	beq.n	8001d10 <Photo_Task+0x70>
 8001cfa:	79fa      	ldrb	r2, [r7, #7]
 8001cfc:	4b1d      	ldr	r3, [pc, #116]	@ (8001d74 <Photo_Task+0xd4>)
 8001cfe:	701a      	strb	r2, [r3, #0]
 8001d00:	79ba      	ldrb	r2, [r7, #6]
 8001d02:	4b1d      	ldr	r3, [pc, #116]	@ (8001d78 <Photo_Task+0xd8>)
 8001d04:	701a      	strb	r2, [r3, #0]
 8001d06:	797a      	ldrb	r2, [r7, #5]
 8001d08:	4b1c      	ldr	r3, [pc, #112]	@ (8001d7c <Photo_Task+0xdc>)
 8001d0a:	701a      	strb	r2, [r3, #0]
 8001d0c:	2301      	movs	r3, #1
 8001d0e:	73fb      	strb	r3, [r7, #15]
 8001d10:	4b1b      	ldr	r3, [pc, #108]	@ (8001d80 <Photo_Task+0xe0>)
 8001d12:	681b      	ldr	r3, [r3, #0]
 8001d14:	68ba      	ldr	r2, [r7, #8]
 8001d16:	1ad3      	subs	r3, r2, r3
 8001d18:	2b31      	cmp	r3, #49	@ 0x31
 8001d1a:	d922      	bls.n	8001d62 <Photo_Task+0xc2>
 8001d1c:	4a18      	ldr	r2, [pc, #96]	@ (8001d80 <Photo_Task+0xe0>)
 8001d1e:	68bb      	ldr	r3, [r7, #8]
 8001d20:	6013      	str	r3, [r2, #0]
 8001d22:	1cba      	adds	r2, r7, #2
 8001d24:	1cf9      	adds	r1, r7, #3
 8001d26:	1d3b      	adds	r3, r7, #4
 8001d28:	4618      	mov	r0, r3
 8001d2a:	f7ff fef5 	bl	8001b18 <ReadNow>
 8001d2e:	793a      	ldrb	r2, [r7, #4]
 8001d30:	4b10      	ldr	r3, [pc, #64]	@ (8001d74 <Photo_Task+0xd4>)
 8001d32:	781b      	ldrb	r3, [r3, #0]
 8001d34:	429a      	cmp	r2, r3
 8001d36:	d109      	bne.n	8001d4c <Photo_Task+0xac>
 8001d38:	78fa      	ldrb	r2, [r7, #3]
 8001d3a:	4b0f      	ldr	r3, [pc, #60]	@ (8001d78 <Photo_Task+0xd8>)
 8001d3c:	781b      	ldrb	r3, [r3, #0]
 8001d3e:	429a      	cmp	r2, r3
 8001d40:	d104      	bne.n	8001d4c <Photo_Task+0xac>
 8001d42:	78ba      	ldrb	r2, [r7, #2]
 8001d44:	4b0d      	ldr	r3, [pc, #52]	@ (8001d7c <Photo_Task+0xdc>)
 8001d46:	781b      	ldrb	r3, [r3, #0]
 8001d48:	429a      	cmp	r2, r3
 8001d4a:	d00a      	beq.n	8001d62 <Photo_Task+0xc2>
 8001d4c:	793a      	ldrb	r2, [r7, #4]
 8001d4e:	4b09      	ldr	r3, [pc, #36]	@ (8001d74 <Photo_Task+0xd4>)
 8001d50:	701a      	strb	r2, [r3, #0]
 8001d52:	78fa      	ldrb	r2, [r7, #3]
 8001d54:	4b08      	ldr	r3, [pc, #32]	@ (8001d78 <Photo_Task+0xd8>)
 8001d56:	701a      	strb	r2, [r3, #0]
 8001d58:	78ba      	ldrb	r2, [r7, #2]
 8001d5a:	4b08      	ldr	r3, [pc, #32]	@ (8001d7c <Photo_Task+0xdc>)
 8001d5c:	701a      	strb	r2, [r3, #0]
 8001d5e:	2301      	movs	r3, #1
 8001d60:	73fb      	strb	r3, [r7, #15]
 8001d62:	7bfb      	ldrb	r3, [r7, #15]
 8001d64:	4618      	mov	r0, r3
 8001d66:	3710      	adds	r7, #16
 8001d68:	46bd      	mov	sp, r7
 8001d6a:	bd80      	pop	{r7, pc}
 8001d6c:	2000019c 	.word	0x2000019c
 8001d70:	200001a0 	.word	0x200001a0
 8001d74:	200001a4 	.word	0x200001a4
 8001d78:	200001a5 	.word	0x200001a5
 8001d7c:	200001a6 	.word	0x200001a6
 8001d80:	200001ac 	.word	0x200001ac

08001d84 <Photo_GetRaw>:
 8001d84:	b480      	push	{r7}
 8001d86:	b085      	sub	sp, #20
 8001d88:	af00      	add	r7, sp, #0
 8001d8a:	60f8      	str	r0, [r7, #12]
 8001d8c:	60b9      	str	r1, [r7, #8]
 8001d8e:	607a      	str	r2, [r7, #4]
 8001d90:	68fb      	ldr	r3, [r7, #12]
 8001d92:	2b00      	cmp	r3, #0
 8001d94:	d003      	beq.n	8001d9e <Photo_GetRaw+0x1a>
 8001d96:	4b0c      	ldr	r3, [pc, #48]	@ (8001dc8 <Photo_GetRaw+0x44>)
 8001d98:	781a      	ldrb	r2, [r3, #0]
 8001d9a:	68fb      	ldr	r3, [r7, #12]
 8001d9c:	701a      	strb	r2, [r3, #0]
 8001d9e:	68bb      	ldr	r3, [r7, #8]
 8001da0:	2b00      	cmp	r3, #0
 8001da2:	d003      	beq.n	8001dac <Photo_GetRaw+0x28>
 8001da4:	4b09      	ldr	r3, [pc, #36]	@ (8001dcc <Photo_GetRaw+0x48>)
 8001da6:	781a      	ldrb	r2, [r3, #0]
 8001da8:	68bb      	ldr	r3, [r7, #8]
 8001daa:	701a      	strb	r2, [r3, #0]
 8001dac:	687b      	ldr	r3, [r7, #4]
 8001dae:	2b00      	cmp	r3, #0
 8001db0:	d003      	beq.n	8001dba <Photo_GetRaw+0x36>
 8001db2:	4b07      	ldr	r3, [pc, #28]	@ (8001dd0 <Photo_GetRaw+0x4c>)
 8001db4:	781a      	ldrb	r2, [r3, #0]
 8001db6:	687b      	ldr	r3, [r7, #4]
 8001db8:	701a      	strb	r2, [r3, #0]
 8001dba:	bf00      	nop
 8001dbc:	3714      	adds	r7, #20
 8001dbe:	46bd      	mov	sp, r7
 8001dc0:	f85d 7b04 	ldr.w	r7, [sp], #4
 8001dc4:	4770      	bx	lr
 8001dc6:	bf00      	nop
 8001dc8:	200001a4 	.word	0x200001a4
 8001dcc:	200001a5 	.word	0x200001a5
 8001dd0:	200001a6 	.word	0x200001a6

08001dd4 <Photo_GetFSM>:
 8001dd4:	b580      	push	{r7, lr}
 8001dd6:	af00      	add	r7, sp, #0
 8001dd8:	4b08      	ldr	r3, [pc, #32]	@ (8001dfc <Photo_GetFSM+0x28>)
 8001dda:	781b      	ldrb	r3, [r3, #0]
 8001ddc:	2b00      	cmp	r3, #0
 8001dde:	d101      	bne.n	8001de4 <Photo_GetFSM+0x10>
 8001de0:	2300      	movs	r3, #0
 8001de2:	e009      	b.n	8001df8 <Photo_GetFSM+0x24>
 8001de4:	4b06      	ldr	r3, [pc, #24]	@ (8001e00 <Photo_GetFSM+0x2c>)
 8001de6:	781b      	ldrb	r3, [r3, #0]
 8001de8:	4a06      	ldr	r2, [pc, #24]	@ (8001e04 <Photo_GetFSM+0x30>)
 8001dea:	7811      	ldrb	r1, [r2, #0]
 8001dec:	4a06      	ldr	r2, [pc, #24]	@ (8001e08 <Photo_GetFSM+0x34>)
 8001dee:	7812      	ldrb	r2, [r2, #0]
 8001df0:	4618      	mov	r0, r3
 8001df2:	f7ff feb9 	bl	8001b68 <DecodeFSM>
 8001df6:	4603      	mov	r3, r0
 8001df8:	4618      	mov	r0, r3
 8001dfa:	bd80      	pop	{r7, pc}
 8001dfc:	200001a7 	.word	0x200001a7
 8001e00:	200001a4 	.word	0x200001a4
 8001e04:	200001a5 	.word	0x200001a5
 8001e08:	200001a6 	.word	0x200001a6

08001e0c <StartRxIT>:
static uint8_t  s_rx_ch = 0;
static char     s_line[64];
static uint8_t  s_len = 0;

static void StartRxIT(void)
{
 8001e0c:	b580      	push	{r7, lr}
 8001e0e:	af00      	add	r7, sp, #0
  if (!s_huart) return;
 8001e10:	4b06      	ldr	r3, [pc, #24]	@ (8001e2c <StartRxIT+0x20>)
 8001e12:	681b      	ldr	r3, [r3, #0]
 8001e14:	2b00      	cmp	r3, #0
 8001e16:	d007      	beq.n	8001e28 <StartRxIT+0x1c>
  HAL_UART_Receive_IT(s_huart, &s_rx_ch, 1);
 8001e18:	4b04      	ldr	r3, [pc, #16]	@ (8001e2c <StartRxIT+0x20>)
 8001e1a:	681b      	ldr	r3, [r3, #0]
 8001e1c:	2201      	movs	r2, #1
 8001e1e:	4904      	ldr	r1, [pc, #16]	@ (8001e30 <StartRxIT+0x24>)
 8001e20:	4618      	mov	r0, r3
 8001e22:	f003 f808 	bl	8004e36 <HAL_UART_Receive_IT>
 8001e26:	e000      	b.n	8001e2a <StartRxIT+0x1e>
  if (!s_huart) return;
 8001e28:	bf00      	nop
}
 8001e2a:	bd80      	pop	{r7, pc}
 8001e2c:	200001b0 	.word	0x200001b0
 8001e30:	200001b4 	.word	0x200001b4

08001e34 <StateToStr>:

/* ====== 상태 문자열 ====== */
static const char* StateToStr(ELEVATOR_STATE st)
{
 8001e34:	b480      	push	{r7}
 8001e36:	b083      	sub	sp, #12
 8001e38:	af00      	add	r7, sp, #0
 8001e3a:	4603      	mov	r3, r0
 8001e3c:	71fb      	strb	r3, [r7, #7]
  switch (st)
 8001e3e:	79fb      	ldrb	r3, [r7, #7]
 8001e40:	2b06      	cmp	r3, #6
 8001e42:	d81f      	bhi.n	8001e84 <StateToStr+0x50>
 8001e44:	a201      	add	r2, pc, #4	@ (adr r2, 8001e4c <StateToStr+0x18>)
 8001e46:	f852 f023 	ldr.w	pc, [r2, r3, lsl #2]
 8001e4a:	bf00      	nop
 8001e4c:	08001e69 	.word	0x08001e69
 8001e50:	08001e6d 	.word	0x08001e6d
 8001e54:	08001e71 	.word	0x08001e71
 8001e58:	08001e75 	.word	0x08001e75
 8001e5c:	08001e79 	.word	0x08001e79
 8001e60:	08001e7d 	.word	0x08001e7d
 8001e64:	08001e81 	.word	0x08001e81
  {
    case ELEVATOR_IDLE:         return "IDLE";
 8001e68:	4b0a      	ldr	r3, [pc, #40]	@ (8001e94 <StateToStr+0x60>)
 8001e6a:	e00c      	b.n	8001e86 <StateToStr+0x52>
    case ELEVATOR_MOVING_UP:    return "MOVING_UP";
 8001e6c:	4b0a      	ldr	r3, [pc, #40]	@ (8001e98 <StateToStr+0x64>)
 8001e6e:	e00a      	b.n	8001e86 <StateToStr+0x52>
    case ELEVATOR_MOVING_DOWN:  return "MOVING_DOWN";
 8001e70:	4b0a      	ldr	r3, [pc, #40]	@ (8001e9c <StateToStr+0x68>)
 8001e72:	e008      	b.n	8001e86 <StateToStr+0x52>
    case ELEVATOR_DOOR_OPENING: return "DOOR_OPENING";
 8001e74:	4b0a      	ldr	r3, [pc, #40]	@ (8001ea0 <StateToStr+0x6c>)
 8001e76:	e006      	b.n	8001e86 <StateToStr+0x52>
    case ELEVATOR_DOOR_WAIT:    return "DOOR_OPEN";
 8001e78:	4b0a      	ldr	r3, [pc, #40]	@ (8001ea4 <StateToStr+0x70>)
 8001e7a:	e004      	b.n	8001e86 <StateToStr+0x52>
    case ELEVATOR_DOOR_CLOSING: return "DOOR_CLOSING";
 8001e7c:	4b0a      	ldr	r3, [pc, #40]	@ (8001ea8 <StateToStr+0x74>)
 8001e7e:	e002      	b.n	8001e86 <StateToStr+0x52>
    case ELEVATOR_EMG:          return "EMG_STOP";
 8001e80:	4b0a      	ldr	r3, [pc, #40]	@ (8001eac <StateToStr+0x78>)
 8001e82:	e000      	b.n	8001e86 <StateToStr+0x52>
    default:                    return "?";
 8001e84:	4b0a      	ldr	r3, [pc, #40]	@ (8001eb0 <StateToStr+0x7c>)
  }
}
 8001e86:	4618      	mov	r0, r3
 8001e88:	370c      	adds	r7, #12
 8001e8a:	46bd      	mov	sp, r7
 8001e8c:	f85d 7b04 	ldr.w	r7, [sp], #4
 8001e90:	4770      	bx	lr
 8001e92:	bf00      	nop
 8001e94:	080069b8 	.word	0x080069b8
 8001e98:	080069c0 	.word	0x080069c0
 8001e9c:	080069cc 	.word	0x080069cc
 8001ea0:	080069d8 	.word	0x080069d8
 8001ea4:	080069e8 	.word	0x080069e8
 8001ea8:	080069f4 	.word	0x080069f4
 8001eac:	08006a04 	.word	0x08006a04
 8001eb0:	08006a10 	.word	0x08006a10

08001eb4 <PhotoToStr>:

static const char* PhotoToStr(photo_fsm_t f)
{
 8001eb4:	b480      	push	{r7}
 8001eb6:	b083      	sub	sp, #12
 8001eb8:	af00      	add	r7, sp, #0
 8001eba:	4603      	mov	r3, r0
 8001ebc:	71fb      	strb	r3, [r7, #7]
  switch (f)
 8001ebe:	79fb      	ldrb	r3, [r7, #7]
 8001ec0:	2b06      	cmp	r3, #6
 8001ec2:	d81f      	bhi.n	8001f04 <PhotoToStr+0x50>
 8001ec4:	a201      	add	r2, pc, #4	@ (adr r2, 8001ecc <PhotoToStr+0x18>)
 8001ec6:	f852 f023 	ldr.w	pc, [r2, r3, lsl #2]
 8001eca:	bf00      	nop
 8001ecc:	08001efd 	.word	0x08001efd
 8001ed0:	08001ee9 	.word	0x08001ee9
 8001ed4:	08001eed 	.word	0x08001eed
 8001ed8:	08001ef1 	.word	0x08001ef1
 8001edc:	08001ef5 	.word	0x08001ef5
 8001ee0:	08001ef9 	.word	0x08001ef9
 8001ee4:	08001f01 	.word	0x08001f01
  {
    case PF_F1:       return "FLOOR=1";
 8001ee8:	4b0a      	ldr	r3, [pc, #40]	@ (8001f14 <PhotoToStr+0x60>)
 8001eea:	e00c      	b.n	8001f06 <PhotoToStr+0x52>
    case PF_F2:       return "FLOOR=2";
 8001eec:	4b0a      	ldr	r3, [pc, #40]	@ (8001f18 <PhotoToStr+0x64>)
 8001eee:	e00a      	b.n	8001f06 <PhotoToStr+0x52>
    case PF_F3:       return "FLOOR=3";
 8001ef0:	4b0a      	ldr	r3, [pc, #40]	@ (8001f1c <PhotoToStr+0x68>)
 8001ef2:	e008      	b.n	8001f06 <PhotoToStr+0x52>
    case PF_MOVE_1_2: return "MOVE 1~2";
 8001ef4:	4b0a      	ldr	r3, [pc, #40]	@ (8001f20 <PhotoToStr+0x6c>)
 8001ef6:	e006      	b.n	8001f06 <PhotoToStr+0x52>
    case PF_MOVE_2_3: return "MOVE 2~3";
 8001ef8:	4b0a      	ldr	r3, [pc, #40]	@ (8001f24 <PhotoToStr+0x70>)
 8001efa:	e004      	b.n	8001f06 <PhotoToStr+0x52>
    case PF_UNKNOWN:  return "MOVING";
 8001efc:	4b0a      	ldr	r3, [pc, #40]	@ (8001f28 <PhotoToStr+0x74>)
 8001efe:	e002      	b.n	8001f06 <PhotoToStr+0x52>
    case PF_ERROR:    return "ERROR";
 8001f00:	4b0a      	ldr	r3, [pc, #40]	@ (8001f2c <PhotoToStr+0x78>)
 8001f02:	e000      	b.n	8001f06 <PhotoToStr+0x52>
    default:          return "?";
 8001f04:	4b0a      	ldr	r3, [pc, #40]	@ (8001f30 <PhotoToStr+0x7c>)
  }
}
 8001f06:	4618      	mov	r0, r3
 8001f08:	370c      	adds	r7, #12
 8001f0a:	46bd      	mov	sp, r7
 8001f0c:	f85d 7b04 	ldr.w	r7, [sp], #4
 8001f10:	4770      	bx	lr
 8001f12:	bf00      	nop
 8001f14:	08006a14 	.word	0x08006a14
 8001f18:	08006a1c 	.word	0x08006a1c
 8001f1c:	08006a24 	.word	0x08006a24
 8001f20:	08006a2c 	.word	0x08006a2c
 8001f24:	08006a38 	.word	0x08006a38
 8001f28:	08006a44 	.word	0x08006a44
 8001f2c:	08006a4c 	.word	0x08006a4c
 8001f30:	08006a10 	.word	0x08006a10

08001f34 <SimpleStateStr>:

// 거주자 UI 용
static const char* SimpleStateStr(photo_fsm_t f)
{
 8001f34:	b480      	push	{r7}
 8001f36:	b083      	sub	sp, #12
 8001f38:	af00      	add	r7, sp, #0
 8001f3a:	4603      	mov	r3, r0
 8001f3c:	71fb      	strb	r3, [r7, #7]
  switch (f)
 8001f3e:	79fb      	ldrb	r3, [r7, #7]
 8001f40:	2b06      	cmp	r3, #6
 8001f42:	d81f      	bhi.n	8001f84 <SimpleStateStr+0x50>
 8001f44:	a201      	add	r2, pc, #4	@ (adr r2, 8001f4c <SimpleStateStr+0x18>)
 8001f46:	f852 f023 	ldr.w	pc, [r2, r3, lsl #2]
 8001f4a:	bf00      	nop
 8001f4c:	08001f7d 	.word	0x08001f7d
 8001f50:	08001f69 	.word	0x08001f69
 8001f54:	08001f6d 	.word	0x08001f6d
 8001f58:	08001f71 	.word	0x08001f71
 8001f5c:	08001f75 	.word	0x08001f75
 8001f60:	08001f79 	.word	0x08001f79
 8001f64:	08001f81 	.word	0x08001f81
  {
    case PF_F1:       return "FLOOR=1";
 8001f68:	4b0a      	ldr	r3, [pc, #40]	@ (8001f94 <SimpleStateStr+0x60>)
 8001f6a:	e00c      	b.n	8001f86 <SimpleStateStr+0x52>
    case PF_F2:       return "FLOOR=2";
 8001f6c:	4b0a      	ldr	r3, [pc, #40]	@ (8001f98 <SimpleStateStr+0x64>)
 8001f6e:	e00a      	b.n	8001f86 <SimpleStateStr+0x52>
    case PF_F3:       return "FLOOR=3";
 8001f70:	4b0a      	ldr	r3, [pc, #40]	@ (8001f9c <SimpleStateStr+0x68>)
 8001f72:	e008      	b.n	8001f86 <SimpleStateStr+0x52>
    case PF_MOVE_1_2: return "MOVING";
 8001f74:	4b0a      	ldr	r3, [pc, #40]	@ (8001fa0 <SimpleStateStr+0x6c>)
 8001f76:	e006      	b.n	8001f86 <SimpleStateStr+0x52>
    case PF_MOVE_2_3: return "MOVING";
 8001f78:	4b09      	ldr	r3, [pc, #36]	@ (8001fa0 <SimpleStateStr+0x6c>)
 8001f7a:	e004      	b.n	8001f86 <SimpleStateStr+0x52>
    case PF_UNKNOWN:  return "MOVING";
 8001f7c:	4b08      	ldr	r3, [pc, #32]	@ (8001fa0 <SimpleStateStr+0x6c>)
 8001f7e:	e002      	b.n	8001f86 <SimpleStateStr+0x52>
    case PF_ERROR:    return "ERROR";
 8001f80:	4b08      	ldr	r3, [pc, #32]	@ (8001fa4 <SimpleStateStr+0x70>)
 8001f82:	e000      	b.n	8001f86 <SimpleStateStr+0x52>
    default:          return "MOVING";
 8001f84:	4b06      	ldr	r3, [pc, #24]	@ (8001fa0 <SimpleStateStr+0x6c>)
  }
}
 8001f86:	4618      	mov	r0, r3
 8001f88:	370c      	adds	r7, #12
 8001f8a:	46bd      	mov	sp, r7
 8001f8c:	f85d 7b04 	ldr.w	r7, [sp], #4
 8001f90:	4770      	bx	lr
 8001f92:	bf00      	nop
 8001f94:	08006a14 	.word	0x08006a14
 8001f98:	08006a1c 	.word	0x08006a1c
 8001f9c:	08006a24 	.word	0x08006a24
 8001fa0:	08006a44 	.word	0x08006a44
 8001fa4:	08006a4c 	.word	0x08006a4c

08001fa8 <Resident_AutoSendSimpleState>:

static void Resident_AutoSendSimpleState(void)
{
 8001fa8:	b580      	push	{r7, lr}
 8001faa:	b082      	sub	sp, #8
 8001fac:	af00      	add	r7, sp, #0
  static photo_fsm_t last = (photo_fsm_t)0xFF;

  photo_fsm_t now = Photo_GetFSM();
 8001fae:	f7ff ff11 	bl	8001dd4 <Photo_GetFSM>
 8001fb2:	4603      	mov	r3, r0
 8001fb4:	71fb      	strb	r3, [r7, #7]

  // 변할 때만 출력
  if (now != last)
 8001fb6:	4b0a      	ldr	r3, [pc, #40]	@ (8001fe0 <Resident_AutoSendSimpleState+0x38>)
 8001fb8:	781b      	ldrb	r3, [r3, #0]
 8001fba:	79fa      	ldrb	r2, [r7, #7]
 8001fbc:	429a      	cmp	r2, r3
 8001fbe:	d00b      	beq.n	8001fd8 <Resident_AutoSendSimpleState+0x30>
  {
    last = now;
 8001fc0:	4a07      	ldr	r2, [pc, #28]	@ (8001fe0 <Resident_AutoSendSimpleState+0x38>)
 8001fc2:	79fb      	ldrb	r3, [r7, #7]
 8001fc4:	7013      	strb	r3, [r2, #0]
    Log_Printf("%s\r\n", SimpleStateStr(now));
 8001fc6:	79fb      	ldrb	r3, [r7, #7]
 8001fc8:	4618      	mov	r0, r3
 8001fca:	f7ff ffb3 	bl	8001f34 <SimpleStateStr>
 8001fce:	4603      	mov	r3, r0
 8001fd0:	4619      	mov	r1, r3
 8001fd2:	4804      	ldr	r0, [pc, #16]	@ (8001fe4 <Resident_AutoSendSimpleState+0x3c>)
 8001fd4:	f7ff fcae 	bl	8001934 <Log_Printf>
  }
}
 8001fd8:	bf00      	nop
 8001fda:	3708      	adds	r7, #8
 8001fdc:	46bd      	mov	sp, r7
 8001fde:	bd80      	pop	{r7, pc}
 8001fe0:	200000a0 	.word	0x200000a0
 8001fe4:	08006a54 	.word	0x08006a54

08001fe8 <PrintHelp>:



static void PrintHelp(void)
{
 8001fe8:	b580      	push	{r7, lr}
 8001fea:	af00      	add	r7, sp, #0
  Log_Printf(
 8001fec:	4802      	ldr	r0, [pc, #8]	@ (8001ff8 <PrintHelp+0x10>)
 8001fee:	f7ff fca1 	bl	8001934 <Log_Printf>
    "  CALL 1|2|3\r\n"
    "  STATUS\r\n"
    "  RESUME\r\n"
    "  HELP\r\n"
  );
}
 8001ff2:	bf00      	nop
 8001ff4:	bd80      	pop	{r7, pc}
 8001ff6:	bf00      	nop
 8001ff8:	08006a5c 	.word	0x08006a5c

08001ffc <PrintStatus>:

static void PrintStatus(void)
{
 8001ffc:	b5f0      	push	{r4, r5, r6, r7, lr}
 8001ffe:	b097      	sub	sp, #92	@ 0x5c
 8002000:	af02      	add	r7, sp, #8
  uint8_t p1,p2,p3;
  Photo_GetRaw(&p1,&p2,&p3);
 8002002:	f107 0245 	add.w	r2, r7, #69	@ 0x45
 8002006:	f107 0146 	add.w	r1, r7, #70	@ 0x46
 800200a:	f107 0347 	add.w	r3, r7, #71	@ 0x47
 800200e:	4618      	mov	r0, r3
 8002010:	f7ff feb8 	bl	8001d84 <Photo_GetRaw>
  photo_fsm_t pf = Photo_GetFSM();
 8002014:	f7ff fede 	bl	8001dd4 <Photo_GetFSM>
 8002018:	4603      	mov	r3, r0
 800201a:	f887 304f 	strb.w	r3, [r7, #79]	@ 0x4f

  uint8_t cur = Elevator_GetCurrentFloor();
 800201e:	f7ff f81b 	bl	8001058 <Elevator_GetCurrentFloor>
 8002022:	4603      	mov	r3, r0
 8002024:	f887 304e 	strb.w	r3, [r7, #78]	@ 0x4e
  ELEVATOR_STATE st = Elevator_GetState();
 8002028:	f7ff f822 	bl	8001070 <Elevator_GetState>
 800202c:	4603      	mov	r3, r0
 800202e:	f887 304d 	strb.w	r3, [r7, #77]	@ 0x4d
  const char *door = Servo_IsOpened() ? "OPEN" : (Servo_IsClosed() ? "CLOSE" : "HOLD");
 8002032:	f000 fa0d 	bl	8002450 <Servo_IsOpened>
 8002036:	4603      	mov	r3, r0
 8002038:	2b00      	cmp	r3, #0
 800203a:	d108      	bne.n	800204e <PrintStatus+0x52>
 800203c:	f000 fa18 	bl	8002470 <Servo_IsClosed>
 8002040:	4603      	mov	r3, r0
 8002042:	2b00      	cmp	r3, #0
 8002044:	d001      	beq.n	800204a <PrintStatus+0x4e>
 8002046:	4b1f      	ldr	r3, [pc, #124]	@ (80020c4 <PrintStatus+0xc8>)
 8002048:	e002      	b.n	8002050 <PrintStatus+0x54>
 800204a:	4b1f      	ldr	r3, [pc, #124]	@ (80020c8 <PrintStatus+0xcc>)
 800204c:	e000      	b.n	8002050 <PrintStatus+0x54>
 800204e:	4b1f      	ldr	r3, [pc, #124]	@ (80020cc <PrintStatus+0xd0>)
 8002050:	64bb      	str	r3, [r7, #72]	@ 0x48

  /* 큐(요청) 출력 */
  char qbuf[64];
  Elevator_GetQueueString(qbuf, sizeof(qbuf));
 8002052:	1d3b      	adds	r3, r7, #4
 8002054:	2140      	movs	r1, #64	@ 0x40
 8002056:	4618      	mov	r0, r3
 8002058:	f7ff f826 	bl	80010a8 <Elevator_GetQueueString>

  Log_Printf("RAW=%u%u%u %s\r\n", p1,p2,p3, PhotoToStr(pf));
 800205c:	f897 3047 	ldrb.w	r3, [r7, #71]	@ 0x47
 8002060:	461c      	mov	r4, r3
 8002062:	f897 3046 	ldrb.w	r3, [r7, #70]	@ 0x46
 8002066:	461d      	mov	r5, r3
 8002068:	f897 3045 	ldrb.w	r3, [r7, #69]	@ 0x45
 800206c:	461e      	mov	r6, r3
 800206e:	f897 304f 	ldrb.w	r3, [r7, #79]	@ 0x4f
 8002072:	4618      	mov	r0, r3
 8002074:	f7ff ff1e 	bl	8001eb4 <PhotoToStr>
 8002078:	4603      	mov	r3, r0
 800207a:	9300      	str	r3, [sp, #0]
 800207c:	4633      	mov	r3, r6
 800207e:	462a      	mov	r2, r5
 8002080:	4621      	mov	r1, r4
 8002082:	4813      	ldr	r0, [pc, #76]	@ (80020d0 <PrintStatus+0xd4>)
 8002084:	f7ff fc56 	bl	8001934 <Log_Printf>
  Log_Printf("FLOOR=%u\r\n", cur);
 8002088:	f897 304e 	ldrb.w	r3, [r7, #78]	@ 0x4e
 800208c:	4619      	mov	r1, r3
 800208e:	4811      	ldr	r0, [pc, #68]	@ (80020d4 <PrintStatus+0xd8>)
 8002090:	f7ff fc50 	bl	8001934 <Log_Printf>
  Log_Printf("STATE=%s\r\n", StateToStr(st));
 8002094:	f897 304d 	ldrb.w	r3, [r7, #77]	@ 0x4d
 8002098:	4618      	mov	r0, r3
 800209a:	f7ff fecb 	bl	8001e34 <StateToStr>
 800209e:	4603      	mov	r3, r0
 80020a0:	4619      	mov	r1, r3
 80020a2:	480d      	ldr	r0, [pc, #52]	@ (80020d8 <PrintStatus+0xdc>)
 80020a4:	f7ff fc46 	bl	8001934 <Log_Printf>
  Log_Printf("DOOR=%s\r\n", door);
 80020a8:	6cb9      	ldr	r1, [r7, #72]	@ 0x48
 80020aa:	480c      	ldr	r0, [pc, #48]	@ (80020dc <PrintStatus+0xe0>)
 80020ac:	f7ff fc42 	bl	8001934 <Log_Printf>
  Log_Printf("QUEUE=%s\r\n", qbuf);
 80020b0:	1d3b      	adds	r3, r7, #4
 80020b2:	4619      	mov	r1, r3
 80020b4:	480a      	ldr	r0, [pc, #40]	@ (80020e0 <PrintStatus+0xe4>)
 80020b6:	f7ff fc3d 	bl	8001934 <Log_Printf>
}
 80020ba:	bf00      	nop
 80020bc:	3754      	adds	r7, #84	@ 0x54
 80020be:	46bd      	mov	sp, r7
 80020c0:	bdf0      	pop	{r4, r5, r6, r7, pc}
 80020c2:	bf00      	nop
 80020c4:	08006a90 	.word	0x08006a90
 80020c8:	08006a98 	.word	0x08006a98
 80020cc:	08006aa0 	.word	0x08006aa0
 80020d0:	08006aa8 	.word	0x08006aa8
 80020d4:	08006ab8 	.word	0x08006ab8
 80020d8:	08006ac4 	.word	0x08006ac4
 80020dc:	08006ad0 	.word	0x08006ad0
 80020e0:	08006adc 	.word	0x08006adc

080020e4 <StrToUpper>:

static void StrToUpper(char *s)
{
 80020e4:	b480      	push	{r7}
 80020e6:	b085      	sub	sp, #20
 80020e8:	af00      	add	r7, sp, #0
 80020ea:	6078      	str	r0, [r7, #4]
  for (; *s; s++) *s = (char)toupper((unsigned char)*s);
 80020ec:	e015      	b.n	800211a <StrToUpper+0x36>
 80020ee:	687b      	ldr	r3, [r7, #4]
 80020f0:	781b      	ldrb	r3, [r3, #0]
 80020f2:	73fb      	strb	r3, [r7, #15]
 80020f4:	7bfb      	ldrb	r3, [r7, #15]
 80020f6:	3301      	adds	r3, #1
 80020f8:	4a0d      	ldr	r2, [pc, #52]	@ (8002130 <StrToUpper+0x4c>)
 80020fa:	4413      	add	r3, r2
 80020fc:	781b      	ldrb	r3, [r3, #0]
 80020fe:	f003 0303 	and.w	r3, r3, #3
 8002102:	2b02      	cmp	r3, #2
 8002104:	d102      	bne.n	800210c <StrToUpper+0x28>
 8002106:	7bfb      	ldrb	r3, [r7, #15]
 8002108:	3b20      	subs	r3, #32
 800210a:	e000      	b.n	800210e <StrToUpper+0x2a>
 800210c:	7bfb      	ldrb	r3, [r7, #15]
 800210e:	b2da      	uxtb	r2, r3
 8002110:	687b      	ldr	r3, [r7, #4]
 8002112:	701a      	strb	r2, [r3, #0]
 8002114:	687b      	ldr	r3, [r7, #4]
 8002116:	3301      	adds	r3, #1
 8002118:	607b      	str	r3, [r7, #4]
 800211a:	687b      	ldr	r3, [r7, #4]
 800211c:	781b      	ldrb	r3, [r3, #0]
 800211e:	2b00      	cmp	r3, #0
 8002120:	d1e5      	bne.n	80020ee <StrToUpper+0xa>
}
 8002122:	bf00      	nop
 8002124:	bf00      	nop
 8002126:	3714      	adds	r7, #20
 8002128:	46bd      	mov	sp, r7
 800212a:	f85d 7b04 	ldr.w	r7, [sp], #4
 800212e:	4770      	bx	lr
 8002130:	08006bac 	.word	0x08006bac

08002134 <HandleLine>:

static void HandleLine(char *line)
{
 8002134:	b580      	push	{r7, lr}
 8002136:	b094      	sub	sp, #80	@ 0x50
 8002138:	af00      	add	r7, sp, #0
 800213a:	6078      	str	r0, [r7, #4]
  while (*line==' ' || *line=='\t') line++;
 800213c:	e002      	b.n	8002144 <HandleLine+0x10>
 800213e:	687b      	ldr	r3, [r7, #4]
 8002140:	3301      	adds	r3, #1
 8002142:	607b      	str	r3, [r7, #4]
 8002144:	687b      	ldr	r3, [r7, #4]
 8002146:	781b      	ldrb	r3, [r3, #0]
 8002148:	2b20      	cmp	r3, #32
 800214a:	d0f8      	beq.n	800213e <HandleLine+0xa>
 800214c:	687b      	ldr	r3, [r7, #4]
 800214e:	781b      	ldrb	r3, [r3, #0]
 8002150:	2b09      	cmp	r3, #9
 8002152:	d0f4      	beq.n	800213e <HandleLine+0xa>
  if (*line == 0) return;
 8002154:	687b      	ldr	r3, [r7, #4]
 8002156:	781b      	ldrb	r3, [r3, #0]
 8002158:	2b00      	cmp	r3, #0
 800215a:	d06e      	beq.n	800223a <HandleLine+0x106>

  char tmp[64];
  strncpy(tmp, line, sizeof(tmp)-1);
 800215c:	f107 0308 	add.w	r3, r7, #8
 8002160:	223f      	movs	r2, #63	@ 0x3f
 8002162:	6879      	ldr	r1, [r7, #4]
 8002164:	4618      	mov	r0, r3
 8002166:	f003 ff0b 	bl	8005f80 <strncpy>
  tmp[sizeof(tmp)-1] = 0;
 800216a:	2300      	movs	r3, #0
 800216c:	f887 3047 	strb.w	r3, [r7, #71]	@ 0x47
  StrToUpper(tmp);
 8002170:	f107 0308 	add.w	r3, r7, #8
 8002174:	4618      	mov	r0, r3
 8002176:	f7ff ffb5 	bl	80020e4 <StrToUpper>

  if (!strncmp(tmp, "HELP", 4))
 800217a:	f107 0308 	add.w	r3, r7, #8
 800217e:	2204      	movs	r2, #4
 8002180:	4930      	ldr	r1, [pc, #192]	@ (8002244 <HandleLine+0x110>)
 8002182:	4618      	mov	r0, r3
 8002184:	f003 feea 	bl	8005f5c <strncmp>
 8002188:	4603      	mov	r3, r0
 800218a:	2b00      	cmp	r3, #0
 800218c:	d102      	bne.n	8002194 <HandleLine+0x60>
  {
    PrintHelp();
 800218e:	f7ff ff2b 	bl	8001fe8 <PrintHelp>
    return;
 8002192:	e053      	b.n	800223c <HandleLine+0x108>
  }

  if (!strncmp(tmp, "STATUS", 6))
 8002194:	f107 0308 	add.w	r3, r7, #8
 8002198:	2206      	movs	r2, #6
 800219a:	492b      	ldr	r1, [pc, #172]	@ (8002248 <HandleLine+0x114>)
 800219c:	4618      	mov	r0, r3
 800219e:	f003 fedd 	bl	8005f5c <strncmp>
 80021a2:	4603      	mov	r3, r0
 80021a4:	2b00      	cmp	r3, #0
 80021a6:	d102      	bne.n	80021ae <HandleLine+0x7a>
  {
    PrintStatus();
 80021a8:	f7ff ff28 	bl	8001ffc <PrintStatus>
    return;
 80021ac:	e046      	b.n	800223c <HandleLine+0x108>
  }

  if (!strncmp(tmp, "RESUME", 6))
 80021ae:	f107 0308 	add.w	r3, r7, #8
 80021b2:	2206      	movs	r2, #6
 80021b4:	4925      	ldr	r1, [pc, #148]	@ (800224c <HandleLine+0x118>)
 80021b6:	4618      	mov	r0, r3
 80021b8:	f003 fed0 	bl	8005f5c <strncmp>
 80021bc:	4603      	mov	r3, r0
 80021be:	2b00      	cmp	r3, #0
 80021c0:	d105      	bne.n	80021ce <HandleLine+0x9a>
  {
    Elevator_ResumeFromEMG();
 80021c2:	f7fe ff61 	bl	8001088 <Elevator_ResumeFromEMG>
    Log_Printf("RESUME OK\r\n");
 80021c6:	4822      	ldr	r0, [pc, #136]	@ (8002250 <HandleLine+0x11c>)
 80021c8:	f7ff fbb4 	bl	8001934 <Log_Printf>
    return;
 80021cc:	e036      	b.n	800223c <HandleLine+0x108>
  }

  if (!strncmp(tmp, "CALL", 4))
 80021ce:	f107 0308 	add.w	r3, r7, #8
 80021d2:	2204      	movs	r2, #4
 80021d4:	491f      	ldr	r1, [pc, #124]	@ (8002254 <HandleLine+0x120>)
 80021d6:	4618      	mov	r0, r3
 80021d8:	f003 fec0 	bl	8005f5c <strncmp>
 80021dc:	4603      	mov	r3, r0
 80021de:	2b00      	cmp	r3, #0
 80021e0:	d127      	bne.n	8002232 <HandleLine+0xfe>
  {
    char *p = tmp + 4;
 80021e2:	f107 0308 	add.w	r3, r7, #8
 80021e6:	3304      	adds	r3, #4
 80021e8:	64fb      	str	r3, [r7, #76]	@ 0x4c
    while (*p==' ' || *p=='\t') p++;
 80021ea:	e002      	b.n	80021f2 <HandleLine+0xbe>
 80021ec:	6cfb      	ldr	r3, [r7, #76]	@ 0x4c
 80021ee:	3301      	adds	r3, #1
 80021f0:	64fb      	str	r3, [r7, #76]	@ 0x4c
 80021f2:	6cfb      	ldr	r3, [r7, #76]	@ 0x4c
 80021f4:	781b      	ldrb	r3, [r3, #0]
 80021f6:	2b20      	cmp	r3, #32
 80021f8:	d0f8      	beq.n	80021ec <HandleLine+0xb8>
 80021fa:	6cfb      	ldr	r3, [r7, #76]	@ 0x4c
 80021fc:	781b      	ldrb	r3, [r3, #0]
 80021fe:	2b09      	cmp	r3, #9
 8002200:	d0f4      	beq.n	80021ec <HandleLine+0xb8>
    int f = atoi(p);
 8002202:	6cf8      	ldr	r0, [r7, #76]	@ 0x4c
 8002204:	f003 fda8 	bl	8005d58 <atoi>
 8002208:	64b8      	str	r0, [r7, #72]	@ 0x48
    if (f < 1 || f > 3)
 800220a:	6cbb      	ldr	r3, [r7, #72]	@ 0x48
 800220c:	2b00      	cmp	r3, #0
 800220e:	dd02      	ble.n	8002216 <HandleLine+0xe2>
 8002210:	6cbb      	ldr	r3, [r7, #72]	@ 0x48
 8002212:	2b03      	cmp	r3, #3
 8002214:	dd03      	ble.n	800221e <HandleLine+0xea>
    {
      Log_Printf("ERR: CALL 1|2|3\r\n");
 8002216:	4810      	ldr	r0, [pc, #64]	@ (8002258 <HandleLine+0x124>)
 8002218:	f7ff fb8c 	bl	8001934 <Log_Printf>
      return;
 800221c:	e00e      	b.n	800223c <HandleLine+0x108>
    }
    Elevator_RequestCar((uint8_t)f);
 800221e:	6cbb      	ldr	r3, [r7, #72]	@ 0x48
 8002220:	b2db      	uxtb	r3, r3
 8002222:	4618      	mov	r0, r3
 8002224:	f7fe fd24 	bl	8000c70 <Elevator_RequestCar>
    Log_Printf("OK: CALL %d\r\n", f);
 8002228:	6cb9      	ldr	r1, [r7, #72]	@ 0x48
 800222a:	480c      	ldr	r0, [pc, #48]	@ (800225c <HandleLine+0x128>)
 800222c:	f7ff fb82 	bl	8001934 <Log_Printf>
    return;
 8002230:	e004      	b.n	800223c <HandleLine+0x108>
  }

  Log_Printf("ERR: UNKNOWN CMD (HELP)\r\n");
 8002232:	480b      	ldr	r0, [pc, #44]	@ (8002260 <HandleLine+0x12c>)
 8002234:	f7ff fb7e 	bl	8001934 <Log_Printf>
 8002238:	e000      	b.n	800223c <HandleLine+0x108>
  if (*line == 0) return;
 800223a:	bf00      	nop
}
 800223c:	3750      	adds	r7, #80	@ 0x50
 800223e:	46bd      	mov	sp, r7
 8002240:	bd80      	pop	{r7, pc}
 8002242:	bf00      	nop
 8002244:	08006ae8 	.word	0x08006ae8
 8002248:	08006af0 	.word	0x08006af0
 800224c:	08006af8 	.word	0x08006af8
 8002250:	08006b00 	.word	0x08006b00
 8002254:	08006b0c 	.word	0x08006b0c
 8002258:	08006b14 	.word	0x08006b14
 800225c:	08006b28 	.word	0x08006b28
 8002260:	08006b38 	.word	0x08006b38

08002264 <ResidentUART_Init>:

void ResidentUART_Init(UART_HandleTypeDef *huart)
{
 8002264:	b580      	push	{r7, lr}
 8002266:	b082      	sub	sp, #8
 8002268:	af00      	add	r7, sp, #0
 800226a:	6078      	str	r0, [r7, #4]
  s_huart = huart;
 800226c:	4a09      	ldr	r2, [pc, #36]	@ (8002294 <ResidentUART_Init+0x30>)
 800226e:	687b      	ldr	r3, [r7, #4]
 8002270:	6013      	str	r3, [r2, #0]
  s_len = 0;
 8002272:	4b09      	ldr	r3, [pc, #36]	@ (8002298 <ResidentUART_Init+0x34>)
 8002274:	2200      	movs	r2, #0
 8002276:	701a      	strb	r2, [r3, #0]
  memset(s_line, 0, sizeof(s_line));
 8002278:	2240      	movs	r2, #64	@ 0x40
 800227a:	2100      	movs	r1, #0
 800227c:	4807      	ldr	r0, [pc, #28]	@ (800229c <ResidentUART_Init+0x38>)
 800227e:	f003 fe65 	bl	8005f4c <memset>
  StartRxIT();
 8002282:	f7ff fdc3 	bl	8001e0c <StartRxIT>
  Log_Printf("UART2 CMD READY\r\n");
 8002286:	4806      	ldr	r0, [pc, #24]	@ (80022a0 <ResidentUART_Init+0x3c>)
 8002288:	f7ff fb54 	bl	8001934 <Log_Printf>
}
 800228c:	bf00      	nop
 800228e:	3708      	adds	r7, #8
 8002290:	46bd      	mov	sp, r7
 8002292:	bd80      	pop	{r7, pc}
 8002294:	200001b0 	.word	0x200001b0
 8002298:	200001f8 	.word	0x200001f8
 800229c:	200001b8 	.word	0x200001b8
 80022a0:	08006b54 	.word	0x08006b54

080022a4 <ResidentUART_Task>:

void ResidentUART_Task(void)
{
 80022a4:	b580      	push	{r7, lr}
 80022a6:	af00      	add	r7, sp, #0
  Resident_AutoSendSimpleState();
 80022a8:	f7ff fe7e 	bl	8001fa8 <Resident_AutoSendSimpleState>

  /* 수신은 인터럽트 콜백에서 s_line에 쌓임. 여기서는 할 일 없음 */
}
 80022ac:	bf00      	nop
 80022ae:	bd80      	pop	{r7, pc}

080022b0 <HAL_UART_RxCpltCallback>:

/* ====== 반드시 main.c 또는 stm32xx_it.c에 추가 ======
   아래 콜백을 프로젝트 어딘가(전역) 1개만 두면 됨.
*/
void HAL_UART_RxCpltCallback(UART_HandleTypeDef *huart2)
{
 80022b0:	b580      	push	{r7, lr}
 80022b2:	b084      	sub	sp, #16
 80022b4:	af00      	add	r7, sp, #0
 80022b6:	6078      	str	r0, [r7, #4]
  if (s_huart && huart2 == s_huart)
 80022b8:	4b1d      	ldr	r3, [pc, #116]	@ (8002330 <HAL_UART_RxCpltCallback+0x80>)
 80022ba:	681b      	ldr	r3, [r3, #0]
 80022bc:	2b00      	cmp	r3, #0
 80022be:	d032      	beq.n	8002326 <HAL_UART_RxCpltCallback+0x76>
 80022c0:	4b1b      	ldr	r3, [pc, #108]	@ (8002330 <HAL_UART_RxCpltCallback+0x80>)
 80022c2:	681b      	ldr	r3, [r3, #0]
 80022c4:	687a      	ldr	r2, [r7, #4]
 80022c6:	429a      	cmp	r2, r3
 80022c8:	d12d      	bne.n	8002326 <HAL_UART_RxCpltCallback+0x76>
  {
    char c = (char)s_rx_ch;
 80022ca:	4b1a      	ldr	r3, [pc, #104]	@ (8002334 <HAL_UART_RxCpltCallback+0x84>)
 80022cc:	781b      	ldrb	r3, [r3, #0]
 80022ce:	73fb      	strb	r3, [r7, #15]

    if (c == '\r' || c == '\n')
 80022d0:	7bfb      	ldrb	r3, [r7, #15]
 80022d2:	2b0d      	cmp	r3, #13
 80022d4:	d002      	beq.n	80022dc <HAL_UART_RxCpltCallback+0x2c>
 80022d6:	7bfb      	ldrb	r3, [r7, #15]
 80022d8:	2b0a      	cmp	r3, #10
 80022da:	d110      	bne.n	80022fe <HAL_UART_RxCpltCallback+0x4e>
    {
      if (s_len > 0)
 80022dc:	4b16      	ldr	r3, [pc, #88]	@ (8002338 <HAL_UART_RxCpltCallback+0x88>)
 80022de:	781b      	ldrb	r3, [r3, #0]
 80022e0:	2b00      	cmp	r3, #0
 80022e2:	d01e      	beq.n	8002322 <HAL_UART_RxCpltCallback+0x72>
      {
        s_line[s_len] = 0;
 80022e4:	4b14      	ldr	r3, [pc, #80]	@ (8002338 <HAL_UART_RxCpltCallback+0x88>)
 80022e6:	781b      	ldrb	r3, [r3, #0]
 80022e8:	461a      	mov	r2, r3
 80022ea:	4b14      	ldr	r3, [pc, #80]	@ (800233c <HAL_UART_RxCpltCallback+0x8c>)
 80022ec:	2100      	movs	r1, #0
 80022ee:	5499      	strb	r1, [r3, r2]
        HandleLine(s_line);
 80022f0:	4812      	ldr	r0, [pc, #72]	@ (800233c <HAL_UART_RxCpltCallback+0x8c>)
 80022f2:	f7ff ff1f 	bl	8002134 <HandleLine>
        s_len = 0;
 80022f6:	4b10      	ldr	r3, [pc, #64]	@ (8002338 <HAL_UART_RxCpltCallback+0x88>)
 80022f8:	2200      	movs	r2, #0
 80022fa:	701a      	strb	r2, [r3, #0]
      if (s_len > 0)
 80022fc:	e011      	b.n	8002322 <HAL_UART_RxCpltCallback+0x72>
      }
    }
    else
    {
      if (s_len < (sizeof(s_line)-1))
 80022fe:	4b0e      	ldr	r3, [pc, #56]	@ (8002338 <HAL_UART_RxCpltCallback+0x88>)
 8002300:	781b      	ldrb	r3, [r3, #0]
 8002302:	2b3e      	cmp	r3, #62	@ 0x3e
 8002304:	d80a      	bhi.n	800231c <HAL_UART_RxCpltCallback+0x6c>
        s_line[s_len++] = c;
 8002306:	4b0c      	ldr	r3, [pc, #48]	@ (8002338 <HAL_UART_RxCpltCallback+0x88>)
 8002308:	781b      	ldrb	r3, [r3, #0]
 800230a:	1c5a      	adds	r2, r3, #1
 800230c:	b2d1      	uxtb	r1, r2
 800230e:	4a0a      	ldr	r2, [pc, #40]	@ (8002338 <HAL_UART_RxCpltCallback+0x88>)
 8002310:	7011      	strb	r1, [r2, #0]
 8002312:	4619      	mov	r1, r3
 8002314:	4a09      	ldr	r2, [pc, #36]	@ (800233c <HAL_UART_RxCpltCallback+0x8c>)
 8002316:	7bfb      	ldrb	r3, [r7, #15]
 8002318:	5453      	strb	r3, [r2, r1]
 800231a:	e002      	b.n	8002322 <HAL_UART_RxCpltCallback+0x72>
      else
        s_len = 0; // overflow 방지: 라인 리셋
 800231c:	4b06      	ldr	r3, [pc, #24]	@ (8002338 <HAL_UART_RxCpltCallback+0x88>)
 800231e:	2200      	movs	r2, #0
 8002320:	701a      	strb	r2, [r3, #0]
    }

    StartRxIT();
 8002322:	f7ff fd73 	bl	8001e0c <StartRxIT>
  }
}
 8002326:	bf00      	nop
 8002328:	3710      	adds	r7, #16
 800232a:	46bd      	mov	sp, r7
 800232c:	bd80      	pop	{r7, pc}
 800232e:	bf00      	nop
 8002330:	200001b0 	.word	0x200001b0
 8002334:	200001b4 	.word	0x200001b4
 8002338:	200001f8 	.word	0x200001f8
 800233c:	200001b8 	.word	0x200001b8

08002340 <Servo_Init>:
 8002340:	b580      	push	{r7, lr}
 8002342:	af00      	add	r7, sp, #0
 8002344:	4b09      	ldr	r3, [pc, #36]	@ (800236c <Servo_Init+0x2c>)
 8002346:	2200      	movs	r2, #0
 8002348:	701a      	strb	r2, [r3, #0]
 800234a:	4b09      	ldr	r3, [pc, #36]	@ (8002370 <Servo_Init+0x30>)
 800234c:	2228      	movs	r2, #40	@ 0x28
 800234e:	801a      	strh	r2, [r3, #0]
 8002350:	4b08      	ldr	r3, [pc, #32]	@ (8002374 <Servo_Init+0x34>)
 8002352:	2228      	movs	r2, #40	@ 0x28
 8002354:	801a      	strh	r2, [r3, #0]
 8002356:	f000 fc69 	bl	8002c2c <HAL_GetTick>
 800235a:	4603      	mov	r3, r0
 800235c:	4a06      	ldr	r2, [pc, #24]	@ (8002378 <Servo_Init+0x38>)
 800235e:	6013      	str	r3, [r2, #0]
 8002360:	4b03      	ldr	r3, [pc, #12]	@ (8002370 <Servo_Init+0x30>)
 8002362:	881a      	ldrh	r2, [r3, #0]
 8002364:	4b05      	ldr	r3, [pc, #20]	@ (800237c <Servo_Init+0x3c>)
 8002366:	635a      	str	r2, [r3, #52]	@ 0x34
 8002368:	bf00      	nop
 800236a:	bd80      	pop	{r7, pc}
 800236c:	200001f9 	.word	0x200001f9
 8002370:	200001fa 	.word	0x200001fa
 8002374:	200001fc 	.word	0x200001fc
 8002378:	20000200 	.word	0x20000200
 800237c:	40010000 	.word	0x40010000

08002380 <Servo_Open>:
 8002380:	b480      	push	{r7}
 8002382:	af00      	add	r7, sp, #0
 8002384:	4b05      	ldr	r3, [pc, #20]	@ (800239c <Servo_Open+0x1c>)
 8002386:	22f0      	movs	r2, #240	@ 0xf0
 8002388:	801a      	strh	r2, [r3, #0]
 800238a:	4b05      	ldr	r3, [pc, #20]	@ (80023a0 <Servo_Open+0x20>)
 800238c:	2201      	movs	r2, #1
 800238e:	701a      	strb	r2, [r3, #0]
 8002390:	bf00      	nop
 8002392:	46bd      	mov	sp, r7
 8002394:	f85d 7b04 	ldr.w	r7, [sp], #4
 8002398:	4770      	bx	lr
 800239a:	bf00      	nop
 800239c:	200001fc 	.word	0x200001fc
 80023a0:	200001f9 	.word	0x200001f9

080023a4 <Servo_Close>:
 80023a4:	b480      	push	{r7}
 80023a6:	af00      	add	r7, sp, #0
 80023a8:	4b05      	ldr	r3, [pc, #20]	@ (80023c0 <Servo_Close+0x1c>)
 80023aa:	2228      	movs	r2, #40	@ 0x28
 80023ac:	801a      	strh	r2, [r3, #0]
 80023ae:	4b05      	ldr	r3, [pc, #20]	@ (80023c4 <Servo_Close+0x20>)
 80023b0:	2201      	movs	r2, #1
 80023b2:	701a      	strb	r2, [r3, #0]
 80023b4:	bf00      	nop
 80023b6:	46bd      	mov	sp, r7
 80023b8:	f85d 7b04 	ldr.w	r7, [sp], #4
 80023bc:	4770      	bx	lr
 80023be:	bf00      	nop
 80023c0:	200001fc 	.word	0x200001fc
 80023c4:	200001f9 	.word	0x200001f9

080023c8 <Servo_Run>:
 80023c8:	b580      	push	{r7, lr}
 80023ca:	af00      	add	r7, sp, #0
 80023cc:	4b1b      	ldr	r3, [pc, #108]	@ (800243c <Servo_Run+0x74>)
 80023ce:	781b      	ldrb	r3, [r3, #0]
 80023d0:	2b00      	cmp	r3, #0
 80023d2:	d02e      	beq.n	8002432 <Servo_Run+0x6a>
 80023d4:	f000 fc2a 	bl	8002c2c <HAL_GetTick>
 80023d8:	4602      	mov	r2, r0
 80023da:	4b19      	ldr	r3, [pc, #100]	@ (8002440 <Servo_Run+0x78>)
 80023dc:	681b      	ldr	r3, [r3, #0]
 80023de:	1ad3      	subs	r3, r2, r3
 80023e0:	2b13      	cmp	r3, #19
 80023e2:	d928      	bls.n	8002436 <Servo_Run+0x6e>
 80023e4:	f000 fc22 	bl	8002c2c <HAL_GetTick>
 80023e8:	4603      	mov	r3, r0
 80023ea:	4a15      	ldr	r2, [pc, #84]	@ (8002440 <Servo_Run+0x78>)
 80023ec:	6013      	str	r3, [r2, #0]
 80023ee:	4b15      	ldr	r3, [pc, #84]	@ (8002444 <Servo_Run+0x7c>)
 80023f0:	881a      	ldrh	r2, [r3, #0]
 80023f2:	4b15      	ldr	r3, [pc, #84]	@ (8002448 <Servo_Run+0x80>)
 80023f4:	881b      	ldrh	r3, [r3, #0]
 80023f6:	429a      	cmp	r2, r3
 80023f8:	d206      	bcs.n	8002408 <Servo_Run+0x40>
 80023fa:	4b12      	ldr	r3, [pc, #72]	@ (8002444 <Servo_Run+0x7c>)
 80023fc:	881b      	ldrh	r3, [r3, #0]
 80023fe:	3301      	adds	r3, #1
 8002400:	b29a      	uxth	r2, r3
 8002402:	4b10      	ldr	r3, [pc, #64]	@ (8002444 <Servo_Run+0x7c>)
 8002404:	801a      	strh	r2, [r3, #0]
 8002406:	e00f      	b.n	8002428 <Servo_Run+0x60>
 8002408:	4b0e      	ldr	r3, [pc, #56]	@ (8002444 <Servo_Run+0x7c>)
 800240a:	881a      	ldrh	r2, [r3, #0]
 800240c:	4b0e      	ldr	r3, [pc, #56]	@ (8002448 <Servo_Run+0x80>)
 800240e:	881b      	ldrh	r3, [r3, #0]
 8002410:	429a      	cmp	r2, r3
 8002412:	d906      	bls.n	8002422 <Servo_Run+0x5a>
 8002414:	4b0b      	ldr	r3, [pc, #44]	@ (8002444 <Servo_Run+0x7c>)
 8002416:	881b      	ldrh	r3, [r3, #0]
 8002418:	3b01      	subs	r3, #1
 800241a:	b29a      	uxth	r2, r3
 800241c:	4b09      	ldr	r3, [pc, #36]	@ (8002444 <Servo_Run+0x7c>)
 800241e:	801a      	strh	r2, [r3, #0]
 8002420:	e002      	b.n	8002428 <Servo_Run+0x60>
 8002422:	4b06      	ldr	r3, [pc, #24]	@ (800243c <Servo_Run+0x74>)
 8002424:	2200      	movs	r2, #0
 8002426:	701a      	strb	r2, [r3, #0]
 8002428:	4b06      	ldr	r3, [pc, #24]	@ (8002444 <Servo_Run+0x7c>)
 800242a:	881a      	ldrh	r2, [r3, #0]
 800242c:	4b07      	ldr	r3, [pc, #28]	@ (800244c <Servo_Run+0x84>)
 800242e:	635a      	str	r2, [r3, #52]	@ 0x34
 8002430:	e002      	b.n	8002438 <Servo_Run+0x70>
 8002432:	bf00      	nop
 8002434:	e000      	b.n	8002438 <Servo_Run+0x70>
 8002436:	bf00      	nop
 8002438:	bd80      	pop	{r7, pc}
 800243a:	bf00      	nop
 800243c:	200001f9 	.word	0x200001f9
 8002440:	20000200 	.word	0x20000200
 8002444:	200001fa 	.word	0x200001fa
 8002448:	200001fc 	.word	0x200001fc
 800244c:	40010000 	.word	0x40010000

08002450 <Servo_IsOpened>:
 8002450:	b480      	push	{r7}
 8002452:	af00      	add	r7, sp, #0
 8002454:	4b05      	ldr	r3, [pc, #20]	@ (800246c <Servo_IsOpened+0x1c>)
 8002456:	881b      	ldrh	r3, [r3, #0]
 8002458:	2bf0      	cmp	r3, #240	@ 0xf0
 800245a:	bf0c      	ite	eq
 800245c:	2301      	moveq	r3, #1
 800245e:	2300      	movne	r3, #0
 8002460:	b2db      	uxtb	r3, r3
 8002462:	4618      	mov	r0, r3
 8002464:	46bd      	mov	sp, r7
 8002466:	f85d 7b04 	ldr.w	r7, [sp], #4
 800246a:	4770      	bx	lr
 800246c:	200001fa 	.word	0x200001fa

08002470 <Servo_IsClosed>:
 8002470:	b480      	push	{r7}
 8002472:	af00      	add	r7, sp, #0
 8002474:	4b05      	ldr	r3, [pc, #20]	@ (800248c <Servo_IsClosed+0x1c>)
 8002476:	881b      	ldrh	r3, [r3, #0]
 8002478:	2b28      	cmp	r3, #40	@ 0x28
 800247a:	bf0c      	ite	eq
 800247c:	2301      	moveq	r3, #1
 800247e:	2300      	movne	r3, #0
 8002480:	b2db      	uxtb	r3, r3
 8002482:	4618      	mov	r0, r3
 8002484:	46bd      	mov	sp, r7
 8002486:	f85d 7b04 	ldr.w	r7, [sp], #4
 800248a:	4770      	bx	lr
 800248c:	200001fa 	.word	0x200001fa

08002490 <Stepper_WritePhase>:
 8002490:	b580      	push	{r7, lr}
 8002492:	b082      	sub	sp, #8
 8002494:	af00      	add	r7, sp, #0
 8002496:	4603      	mov	r3, r0
 8002498:	71fb      	strb	r3, [r7, #7]
 800249a:	79fb      	ldrb	r3, [r7, #7]
 800249c:	4a1e      	ldr	r2, [pc, #120]	@ (8002518 <Stepper_WritePhase+0x88>)
 800249e:	f812 3023 	ldrb.w	r3, [r2, r3, lsl #2]
 80024a2:	2b00      	cmp	r3, #0
 80024a4:	bf14      	ite	ne
 80024a6:	2301      	movne	r3, #1
 80024a8:	2300      	moveq	r3, #0
 80024aa:	b2db      	uxtb	r3, r3
 80024ac:	461a      	mov	r2, r3
 80024ae:	2110      	movs	r1, #16
 80024b0:	481a      	ldr	r0, [pc, #104]	@ (800251c <Stepper_WritePhase+0x8c>)
 80024b2:	f000 ff07 	bl	80032c4 <HAL_GPIO_WritePin>
 80024b6:	79fb      	ldrb	r3, [r7, #7]
 80024b8:	4a17      	ldr	r2, [pc, #92]	@ (8002518 <Stepper_WritePhase+0x88>)
 80024ba:	009b      	lsls	r3, r3, #2
 80024bc:	4413      	add	r3, r2
 80024be:	785b      	ldrb	r3, [r3, #1]
 80024c0:	2b00      	cmp	r3, #0
 80024c2:	bf14      	ite	ne
 80024c4:	2301      	movne	r3, #1
 80024c6:	2300      	moveq	r3, #0
 80024c8:	b2db      	uxtb	r3, r3
 80024ca:	461a      	mov	r2, r3
 80024cc:	2101      	movs	r1, #1
 80024ce:	4814      	ldr	r0, [pc, #80]	@ (8002520 <Stepper_WritePhase+0x90>)
 80024d0:	f000 fef8 	bl	80032c4 <HAL_GPIO_WritePin>
 80024d4:	79fb      	ldrb	r3, [r7, #7]
 80024d6:	4a10      	ldr	r2, [pc, #64]	@ (8002518 <Stepper_WritePhase+0x88>)
 80024d8:	009b      	lsls	r3, r3, #2
 80024da:	4413      	add	r3, r2
 80024dc:	789b      	ldrb	r3, [r3, #2]
 80024de:	2b00      	cmp	r3, #0
 80024e0:	bf14      	ite	ne
 80024e2:	2301      	movne	r3, #1
 80024e4:	2300      	moveq	r3, #0
 80024e6:	b2db      	uxtb	r3, r3
 80024e8:	461a      	mov	r2, r3
 80024ea:	2102      	movs	r1, #2
 80024ec:	480d      	ldr	r0, [pc, #52]	@ (8002524 <Stepper_WritePhase+0x94>)
 80024ee:	f000 fee9 	bl	80032c4 <HAL_GPIO_WritePin>
 80024f2:	79fb      	ldrb	r3, [r7, #7]
 80024f4:	4a08      	ldr	r2, [pc, #32]	@ (8002518 <Stepper_WritePhase+0x88>)
 80024f6:	009b      	lsls	r3, r3, #2
 80024f8:	4413      	add	r3, r2
 80024fa:	78db      	ldrb	r3, [r3, #3]
 80024fc:	2b00      	cmp	r3, #0
 80024fe:	bf14      	ite	ne
 8002500:	2301      	movne	r3, #1
 8002502:	2300      	moveq	r3, #0
 8002504:	b2db      	uxtb	r3, r3
 8002506:	461a      	mov	r2, r3
 8002508:	2101      	movs	r1, #1
 800250a:	4806      	ldr	r0, [pc, #24]	@ (8002524 <Stepper_WritePhase+0x94>)
 800250c:	f000 feda 	bl	80032c4 <HAL_GPIO_WritePin>
 8002510:	bf00      	nop
 8002512:	3708      	adds	r7, #8
 8002514:	46bd      	mov	sp, r7
 8002516:	bd80      	pop	{r7, pc}
 8002518:	08006b74 	.word	0x08006b74
 800251c:	40020000 	.word	0x40020000
 8002520:	40020400 	.word	0x40020400
 8002524:	40020800 	.word	0x40020800

08002528 <Stepper_Init>:
 8002528:	b580      	push	{r7, lr}
 800252a:	af00      	add	r7, sp, #0
 800252c:	4b09      	ldr	r3, [pc, #36]	@ (8002554 <Stepper_Init+0x2c>)
 800252e:	2200      	movs	r2, #0
 8002530:	701a      	strb	r2, [r3, #0]
 8002532:	f000 fb7b 	bl	8002c2c <HAL_GetTick>
 8002536:	4603      	mov	r3, r0
 8002538:	4a07      	ldr	r2, [pc, #28]	@ (8002558 <Stepper_Init+0x30>)
 800253a:	6013      	str	r3, [r2, #0]
 800253c:	4b07      	ldr	r3, [pc, #28]	@ (800255c <Stepper_Init+0x34>)
 800253e:	2200      	movs	r2, #0
 8002540:	701a      	strb	r2, [r3, #0]
 8002542:	4b07      	ldr	r3, [pc, #28]	@ (8002560 <Stepper_Init+0x38>)
 8002544:	2200      	movs	r2, #0
 8002546:	701a      	strb	r2, [r3, #0]
 8002548:	2000      	movs	r0, #0
 800254a:	f7ff ffa1 	bl	8002490 <Stepper_WritePhase>
 800254e:	bf00      	nop
 8002550:	bd80      	pop	{r7, pc}
 8002552:	bf00      	nop
 8002554:	20000204 	.word	0x20000204
 8002558:	20000208 	.word	0x20000208
 800255c:	2000020c 	.word	0x2000020c
 8002560:	2000020d 	.word	0x2000020d

08002564 <Stepper_StartContinuous>:
 8002564:	b480      	push	{r7}
 8002566:	b083      	sub	sp, #12
 8002568:	af00      	add	r7, sp, #0
 800256a:	4603      	mov	r3, r0
 800256c:	71fb      	strb	r3, [r7, #7]
 800256e:	4a06      	ldr	r2, [pc, #24]	@ (8002588 <Stepper_StartContinuous+0x24>)
 8002570:	79fb      	ldrb	r3, [r7, #7]
 8002572:	7013      	strb	r3, [r2, #0]
 8002574:	4b05      	ldr	r3, [pc, #20]	@ (800258c <Stepper_StartContinuous+0x28>)
 8002576:	2201      	movs	r2, #1
 8002578:	701a      	strb	r2, [r3, #0]
 800257a:	bf00      	nop
 800257c:	370c      	adds	r7, #12
 800257e:	46bd      	mov	sp, r7
 8002580:	f85d 7b04 	ldr.w	r7, [sp], #4
 8002584:	4770      	bx	lr
 8002586:	bf00      	nop
 8002588:	2000020d 	.word	0x2000020d
 800258c:	2000020c 	.word	0x2000020c

08002590 <Stepper_Stop>:
 8002590:	b580      	push	{r7, lr}
 8002592:	af00      	add	r7, sp, #0
 8002594:	4b03      	ldr	r3, [pc, #12]	@ (80025a4 <Stepper_Stop+0x14>)
 8002596:	2200      	movs	r2, #0
 8002598:	701a      	strb	r2, [r3, #0]
 800259a:	2000      	movs	r0, #0
 800259c:	f7ff ff78 	bl	8002490 <Stepper_WritePhase>
 80025a0:	bf00      	nop
 80025a2:	bd80      	pop	{r7, pc}
 80025a4:	2000020c 	.word	0x2000020c

080025a8 <Stepper_Task>:
 80025a8:	b580      	push	{r7, lr}
 80025aa:	b082      	sub	sp, #8
 80025ac:	af00      	add	r7, sp, #0
 80025ae:	4b1c      	ldr	r3, [pc, #112]	@ (8002620 <Stepper_Task+0x78>)
 80025b0:	781b      	ldrb	r3, [r3, #0]
 80025b2:	b2db      	uxtb	r3, r3
 80025b4:	f083 0301 	eor.w	r3, r3, #1
 80025b8:	b2db      	uxtb	r3, r3
 80025ba:	2b00      	cmp	r3, #0
 80025bc:	d129      	bne.n	8002612 <Stepper_Task+0x6a>
 80025be:	f000 fb35 	bl	8002c2c <HAL_GetTick>
 80025c2:	6078      	str	r0, [r7, #4]
 80025c4:	4b17      	ldr	r3, [pc, #92]	@ (8002624 <Stepper_Task+0x7c>)
 80025c6:	681b      	ldr	r3, [r3, #0]
 80025c8:	687a      	ldr	r2, [r7, #4]
 80025ca:	1ad3      	subs	r3, r2, r3
 80025cc:	2b01      	cmp	r3, #1
 80025ce:	d922      	bls.n	8002616 <Stepper_Task+0x6e>
 80025d0:	4a14      	ldr	r2, [pc, #80]	@ (8002624 <Stepper_Task+0x7c>)
 80025d2:	687b      	ldr	r3, [r7, #4]
 80025d4:	6013      	str	r3, [r2, #0]
 80025d6:	4b14      	ldr	r3, [pc, #80]	@ (8002628 <Stepper_Task+0x80>)
 80025d8:	781b      	ldrb	r3, [r3, #0]
 80025da:	b2db      	uxtb	r3, r3
 80025dc:	2b00      	cmp	r3, #0
 80025de:	d109      	bne.n	80025f4 <Stepper_Task+0x4c>
 80025e0:	4b12      	ldr	r3, [pc, #72]	@ (800262c <Stepper_Task+0x84>)
 80025e2:	781b      	ldrb	r3, [r3, #0]
 80025e4:	3301      	adds	r3, #1
 80025e6:	b2db      	uxtb	r3, r3
 80025e8:	f003 0307 	and.w	r3, r3, #7
 80025ec:	b2da      	uxtb	r2, r3
 80025ee:	4b0f      	ldr	r3, [pc, #60]	@ (800262c <Stepper_Task+0x84>)
 80025f0:	701a      	strb	r2, [r3, #0]
 80025f2:	e008      	b.n	8002606 <Stepper_Task+0x5e>
 80025f4:	4b0d      	ldr	r3, [pc, #52]	@ (800262c <Stepper_Task+0x84>)
 80025f6:	781b      	ldrb	r3, [r3, #0]
 80025f8:	3307      	adds	r3, #7
 80025fa:	b2db      	uxtb	r3, r3
 80025fc:	f003 0307 	and.w	r3, r3, #7
 8002600:	b2da      	uxtb	r2, r3
 8002602:	4b0a      	ldr	r3, [pc, #40]	@ (800262c <Stepper_Task+0x84>)
 8002604:	701a      	strb	r2, [r3, #0]
 8002606:	4b09      	ldr	r3, [pc, #36]	@ (800262c <Stepper_Task+0x84>)
 8002608:	781b      	ldrb	r3, [r3, #0]
 800260a:	4618      	mov	r0, r3
 800260c:	f7ff ff40 	bl	8002490 <Stepper_WritePhase>
 8002610:	e002      	b.n	8002618 <Stepper_Task+0x70>
 8002612:	bf00      	nop
 8002614:	e000      	b.n	8002618 <Stepper_Task+0x70>
 8002616:	bf00      	nop
 8002618:	3708      	adds	r7, #8
 800261a:	46bd      	mov	sp, r7
 800261c:	bd80      	pop	{r7, pc}
 800261e:	bf00      	nop
 8002620:	2000020c 	.word	0x2000020c
 8002624:	20000208 	.word	0x20000208
 8002628:	2000020d 	.word	0x2000020d
 800262c:	20000204 	.word	0x20000204

08002630 <HAL_MspInit>:
 8002630:	b480      	push	{r7}
 8002632:	b083      	sub	sp, #12
 8002634:	af00      	add	r7, sp, #0
 8002636:	2300      	movs	r3, #0
 8002638:	607b      	str	r3, [r7, #4]
 800263a:	4b10      	ldr	r3, [pc, #64]	@ (800267c <HAL_MspInit+0x4c>)
 800263c:	6c5b      	ldr	r3, [r3, #68]	@ 0x44
 800263e:	4a0f      	ldr	r2, [pc, #60]	@ (800267c <HAL_MspInit+0x4c>)
 8002640:	f443 4380 	orr.w	r3, r3, #16384	@ 0x4000
 8002644:	6453      	str	r3, [r2, #68]	@ 0x44
 8002646:	4b0d      	ldr	r3, [pc, #52]	@ (800267c <HAL_MspInit+0x4c>)
 8002648:	6c5b      	ldr	r3, [r3, #68]	@ 0x44
 800264a:	f403 4380 	and.w	r3, r3, #16384	@ 0x4000
 800264e:	607b      	str	r3, [r7, #4]
 8002650:	687b      	ldr	r3, [r7, #4]
 8002652:	2300      	movs	r3, #0
 8002654:	603b      	str	r3, [r7, #0]
 8002656:	4b09      	ldr	r3, [pc, #36]	@ (800267c <HAL_MspInit+0x4c>)
 8002658:	6c1b      	ldr	r3, [r3, #64]	@ 0x40
 800265a:	4a08      	ldr	r2, [pc, #32]	@ (800267c <HAL_MspInit+0x4c>)
 800265c:	f043 5380 	orr.w	r3, r3, #268435456	@ 0x10000000
 8002660:	6413      	str	r3, [r2, #64]	@ 0x40
 8002662:	4b06      	ldr	r3, [pc, #24]	@ (800267c <HAL_MspInit+0x4c>)
 8002664:	6c1b      	ldr	r3, [r3, #64]	@ 0x40
 8002666:	f003 5380 	and.w	r3, r3, #268435456	@ 0x10000000
 800266a:	603b      	str	r3, [r7, #0]
 800266c:	683b      	ldr	r3, [r7, #0]
 800266e:	bf00      	nop
 8002670:	370c      	adds	r7, #12
 8002672:	46bd      	mov	sp, r7
 8002674:	f85d 7b04 	ldr.w	r7, [sp], #4
 8002678:	4770      	bx	lr
 800267a:	bf00      	nop
 800267c:	40023800 	.word	0x40023800

08002680 <NMI_Handler>:
 8002680:	b480      	push	{r7}
 8002682:	af00      	add	r7, sp, #0
 8002684:	bf00      	nop
 8002686:	e7fd      	b.n	8002684 <NMI_Handler+0x4>

08002688 <HardFault_Handler>:
 8002688:	b480      	push	{r7}
 800268a:	af00      	add	r7, sp, #0
 800268c:	bf00      	nop
 800268e:	e7fd      	b.n	800268c <HardFault_Handler+0x4>

08002690 <MemManage_Handler>:
 8002690:	b480      	push	{r7}
 8002692:	af00      	add	r7, sp, #0
 8002694:	bf00      	nop
 8002696:	e7fd      	b.n	8002694 <MemManage_Handler+0x4>

08002698 <BusFault_Handler>:
 8002698:	b480      	push	{r7}
 800269a:	af00      	add	r7, sp, #0
 800269c:	bf00      	nop
 800269e:	e7fd      	b.n	800269c <BusFault_Handler+0x4>

080026a0 <UsageFault_Handler>:
 80026a0:	b480      	push	{r7}
 80026a2:	af00      	add	r7, sp, #0
 80026a4:	bf00      	nop
 80026a6:	e7fd      	b.n	80026a4 <UsageFault_Handler+0x4>

080026a8 <SVC_Handler>:
 80026a8:	b480      	push	{r7}
 80026aa:	af00      	add	r7, sp, #0
 80026ac:	bf00      	nop
 80026ae:	46bd      	mov	sp, r7
 80026b0:	f85d 7b04 	ldr.w	r7, [sp], #4
 80026b4:	4770      	bx	lr

080026b6 <DebugMon_Handler>:
 80026b6:	b480      	push	{r7}
 80026b8:	af00      	add	r7, sp, #0
 80026ba:	bf00      	nop
 80026bc:	46bd      	mov	sp, r7
 80026be:	f85d 7b04 	ldr.w	r7, [sp], #4
 80026c2:	4770      	bx	lr

080026c4 <PendSV_Handler>:
 80026c4:	b480      	push	{r7}
 80026c6:	af00      	add	r7, sp, #0
 80026c8:	bf00      	nop
 80026ca:	46bd      	mov	sp, r7
 80026cc:	f85d 7b04 	ldr.w	r7, [sp], #4
 80026d0:	4770      	bx	lr

080026d2 <SysTick_Handler>:
 80026d2:	b580      	push	{r7, lr}
 80026d4:	af00      	add	r7, sp, #0
 80026d6:	f000 fa95 	bl	8002c04 <HAL_IncTick>
 80026da:	bf00      	nop
 80026dc:	bd80      	pop	{r7, pc}

080026de <EXTI9_5_IRQHandler>:
 80026de:	b580      	push	{r7, lr}
 80026e0:	af00      	add	r7, sp, #0
 80026e2:	2080      	movs	r0, #128	@ 0x80
 80026e4:	f000 fe08 	bl	80032f8 <HAL_GPIO_EXTI_IRQHandler>
 80026e8:	bf00      	nop
 80026ea:	bd80      	pop	{r7, pc}

080026ec <USART2_IRQHandler>:
 80026ec:	b580      	push	{r7, lr}
 80026ee:	af00      	add	r7, sp, #0
 80026f0:	4802      	ldr	r0, [pc, #8]	@ (80026fc <USART2_IRQHandler+0x10>)
 80026f2:	f002 fbc5 	bl	8004e80 <HAL_UART_IRQHandler>
 80026f6:	bf00      	nop
 80026f8:	bd80      	pop	{r7, pc}
 80026fa:	bf00      	nop
 80026fc:	200002a4 	.word	0x200002a4

08002700 <EXTI15_10_IRQHandler>:
 8002700:	b580      	push	{r7, lr}
 8002702:	af00      	add	r7, sp, #0
 8002704:	f44f 6080 	mov.w	r0, #1024	@ 0x400
 8002708:	f000 fdf6 	bl	80032f8 <HAL_GPIO_EXTI_IRQHandler>
 800270c:	f44f 5080 	mov.w	r0, #4096	@ 0x1000
 8002710:	f000 fdf2 	bl	80032f8 <HAL_GPIO_EXTI_IRQHandler>
 8002714:	bf00      	nop
 8002716:	bd80      	pop	{r7, pc}

08002718 <_sbrk>:
 8002718:	b580      	push	{r7, lr}
 800271a:	b086      	sub	sp, #24
 800271c:	af00      	add	r7, sp, #0
 800271e:	6078      	str	r0, [r7, #4]
 8002720:	4a14      	ldr	r2, [pc, #80]	@ (8002774 <_sbrk+0x5c>)
 8002722:	4b15      	ldr	r3, [pc, #84]	@ (8002778 <_sbrk+0x60>)
 8002724:	1ad3      	subs	r3, r2, r3
 8002726:	617b      	str	r3, [r7, #20]
 8002728:	697b      	ldr	r3, [r7, #20]
 800272a:	613b      	str	r3, [r7, #16]
 800272c:	4b13      	ldr	r3, [pc, #76]	@ (800277c <_sbrk+0x64>)
 800272e:	681b      	ldr	r3, [r3, #0]
 8002730:	2b00      	cmp	r3, #0
 8002732:	d102      	bne.n	800273a <_sbrk+0x22>
 8002734:	4b11      	ldr	r3, [pc, #68]	@ (800277c <_sbrk+0x64>)
 8002736:	4a12      	ldr	r2, [pc, #72]	@ (8002780 <_sbrk+0x68>)
 8002738:	601a      	str	r2, [r3, #0]
 800273a:	4b10      	ldr	r3, [pc, #64]	@ (800277c <_sbrk+0x64>)
 800273c:	681a      	ldr	r2, [r3, #0]
 800273e:	687b      	ldr	r3, [r7, #4]
 8002740:	4413      	add	r3, r2
 8002742:	693a      	ldr	r2, [r7, #16]
 8002744:	429a      	cmp	r2, r3
 8002746:	d207      	bcs.n	8002758 <_sbrk+0x40>
 8002748:	f003 fc2e 	bl	8005fa8 <__errno>
 800274c:	4603      	mov	r3, r0
 800274e:	220c      	movs	r2, #12
 8002750:	601a      	str	r2, [r3, #0]
 8002752:	f04f 33ff 	mov.w	r3, #4294967295	@ 0xffffffff
 8002756:	e009      	b.n	800276c <_sbrk+0x54>
 8002758:	4b08      	ldr	r3, [pc, #32]	@ (800277c <_sbrk+0x64>)
 800275a:	681b      	ldr	r3, [r3, #0]
 800275c:	60fb      	str	r3, [r7, #12]
 800275e:	4b07      	ldr	r3, [pc, #28]	@ (800277c <_sbrk+0x64>)
 8002760:	681a      	ldr	r2, [r3, #0]
 8002762:	687b      	ldr	r3, [r7, #4]
 8002764:	4413      	add	r3, r2
 8002766:	4a05      	ldr	r2, [pc, #20]	@ (800277c <_sbrk+0x64>)
 8002768:	6013      	str	r3, [r2, #0]
 800276a:	68fb      	ldr	r3, [r7, #12]
 800276c:	4618      	mov	r0, r3
 800276e:	3718      	adds	r7, #24
 8002770:	46bd      	mov	sp, r7
 8002772:	bd80      	pop	{r7, pc}
 8002774:	20020000 	.word	0x20020000
 8002778:	00000400 	.word	0x00000400
 800277c:	20000210 	.word	0x20000210
 8002780:	20000438 	.word	0x20000438

08002784 <SystemInit>:
 8002784:	b480      	push	{r7}
 8002786:	af00      	add	r7, sp, #0
 8002788:	4b06      	ldr	r3, [pc, #24]	@ (80027a4 <SystemInit+0x20>)
 800278a:	f8d3 3088 	ldr.w	r3, [r3, #136]	@ 0x88
 800278e:	4a05      	ldr	r2, [pc, #20]	@ (80027a4 <SystemInit+0x20>)
 8002790:	f443 0370 	orr.w	r3, r3, #15728640	@ 0xf00000
 8002794:	f8c2 3088 	str.w	r3, [r2, #136]	@ 0x88
 8002798:	bf00      	nop
 800279a:	46bd      	mov	sp, r7
 800279c:	f85d 7b04 	ldr.w	r7, [sp], #4
 80027a0:	4770      	bx	lr
 80027a2:	bf00      	nop
 80027a4:	e000ed00 	.word	0xe000ed00

080027a8 <MX_TIM1_Init>:
 80027a8:	b580      	push	{r7, lr}
 80027aa:	b096      	sub	sp, #88	@ 0x58
 80027ac:	af00      	add	r7, sp, #0
 80027ae:	f107 0348 	add.w	r3, r7, #72	@ 0x48
 80027b2:	2200      	movs	r2, #0
 80027b4:	601a      	str	r2, [r3, #0]
 80027b6:	605a      	str	r2, [r3, #4]
 80027b8:	609a      	str	r2, [r3, #8]
 80027ba:	60da      	str	r2, [r3, #12]
 80027bc:	f107 0340 	add.w	r3, r7, #64	@ 0x40
 80027c0:	2200      	movs	r2, #0
 80027c2:	601a      	str	r2, [r3, #0]
 80027c4:	605a      	str	r2, [r3, #4]
 80027c6:	f107 0324 	add.w	r3, r7, #36	@ 0x24
 80027ca:	2200      	movs	r2, #0
 80027cc:	601a      	str	r2, [r3, #0]
 80027ce:	605a      	str	r2, [r3, #4]
 80027d0:	609a      	str	r2, [r3, #8]
 80027d2:	60da      	str	r2, [r3, #12]
 80027d4:	611a      	str	r2, [r3, #16]
 80027d6:	615a      	str	r2, [r3, #20]
 80027d8:	619a      	str	r2, [r3, #24]
 80027da:	1d3b      	adds	r3, r7, #4
 80027dc:	2220      	movs	r2, #32
 80027de:	2100      	movs	r1, #0
 80027e0:	4618      	mov	r0, r3
 80027e2:	f003 fbb3 	bl	8005f4c <memset>
 80027e6:	4b3f      	ldr	r3, [pc, #252]	@ (80028e4 <MX_TIM1_Init+0x13c>)
 80027e8:	4a3f      	ldr	r2, [pc, #252]	@ (80028e8 <MX_TIM1_Init+0x140>)
 80027ea:	601a      	str	r2, [r3, #0]
 80027ec:	4b3d      	ldr	r3, [pc, #244]	@ (80028e4 <MX_TIM1_Init+0x13c>)
 80027ee:	f240 32e7 	movw	r2, #999	@ 0x3e7
 80027f2:	605a      	str	r2, [r3, #4]
 80027f4:	4b3b      	ldr	r3, [pc, #236]	@ (80028e4 <MX_TIM1_Init+0x13c>)
 80027f6:	2200      	movs	r2, #0
 80027f8:	609a      	str	r2, [r3, #8]
 80027fa:	4b3a      	ldr	r3, [pc, #232]	@ (80028e4 <MX_TIM1_Init+0x13c>)
 80027fc:	f240 72cf 	movw	r2, #1999	@ 0x7cf
 8002800:	60da      	str	r2, [r3, #12]
 8002802:	4b38      	ldr	r3, [pc, #224]	@ (80028e4 <MX_TIM1_Init+0x13c>)
 8002804:	2200      	movs	r2, #0
 8002806:	611a      	str	r2, [r3, #16]
 8002808:	4b36      	ldr	r3, [pc, #216]	@ (80028e4 <MX_TIM1_Init+0x13c>)
 800280a:	2200      	movs	r2, #0
 800280c:	615a      	str	r2, [r3, #20]
 800280e:	4b35      	ldr	r3, [pc, #212]	@ (80028e4 <MX_TIM1_Init+0x13c>)
 8002810:	2200      	movs	r2, #0
 8002812:	619a      	str	r2, [r3, #24]
 8002814:	4833      	ldr	r0, [pc, #204]	@ (80028e4 <MX_TIM1_Init+0x13c>)
 8002816:	f001 fb63 	bl	8003ee0 <HAL_TIM_Base_Init>
 800281a:	4603      	mov	r3, r0
 800281c:	2b00      	cmp	r3, #0
 800281e:	d001      	beq.n	8002824 <MX_TIM1_Init+0x7c>
 8002820:	f7ff f95e 	bl	8001ae0 <Error_Handler>
 8002824:	f44f 5380 	mov.w	r3, #4096	@ 0x1000
 8002828:	64bb      	str	r3, [r7, #72]	@ 0x48
 800282a:	f107 0348 	add.w	r3, r7, #72	@ 0x48
 800282e:	4619      	mov	r1, r3
 8002830:	482c      	ldr	r0, [pc, #176]	@ (80028e4 <MX_TIM1_Init+0x13c>)
 8002832:	f001 fdcb 	bl	80043cc <HAL_TIM_ConfigClockSource>
 8002836:	4603      	mov	r3, r0
 8002838:	2b00      	cmp	r3, #0
 800283a:	d001      	beq.n	8002840 <MX_TIM1_Init+0x98>
 800283c:	f7ff f950 	bl	8001ae0 <Error_Handler>
 8002840:	4828      	ldr	r0, [pc, #160]	@ (80028e4 <MX_TIM1_Init+0x13c>)
 8002842:	f001 fbf7 	bl	8004034 <HAL_TIM_PWM_Init>
 8002846:	4603      	mov	r3, r0
 8002848:	2b00      	cmp	r3, #0
 800284a:	d001      	beq.n	8002850 <MX_TIM1_Init+0xa8>
 800284c:	f7ff f948 	bl	8001ae0 <Error_Handler>
 8002850:	2300      	movs	r3, #0
 8002852:	643b      	str	r3, [r7, #64]	@ 0x40
 8002854:	2300      	movs	r3, #0
 8002856:	647b      	str	r3, [r7, #68]	@ 0x44
 8002858:	f107 0340 	add.w	r3, r7, #64	@ 0x40
 800285c:	4619      	mov	r1, r3
 800285e:	4821      	ldr	r0, [pc, #132]	@ (80028e4 <MX_TIM1_Init+0x13c>)
 8002860:	f002 f94e 	bl	8004b00 <HAL_TIMEx_MasterConfigSynchronization>
 8002864:	4603      	mov	r3, r0
 8002866:	2b00      	cmp	r3, #0
 8002868:	d001      	beq.n	800286e <MX_TIM1_Init+0xc6>
 800286a:	f7ff f939 	bl	8001ae0 <Error_Handler>
 800286e:	2360      	movs	r3, #96	@ 0x60
 8002870:	627b      	str	r3, [r7, #36]	@ 0x24
 8002872:	2328      	movs	r3, #40	@ 0x28
 8002874:	62bb      	str	r3, [r7, #40]	@ 0x28
 8002876:	2300      	movs	r3, #0
 8002878:	62fb      	str	r3, [r7, #44]	@ 0x2c
 800287a:	2300      	movs	r3, #0
 800287c:	633b      	str	r3, [r7, #48]	@ 0x30
 800287e:	2300      	movs	r3, #0
 8002880:	637b      	str	r3, [r7, #52]	@ 0x34
 8002882:	2300      	movs	r3, #0
 8002884:	63bb      	str	r3, [r7, #56]	@ 0x38
 8002886:	2300      	movs	r3, #0
 8002888:	63fb      	str	r3, [r7, #60]	@ 0x3c
 800288a:	f107 0324 	add.w	r3, r7, #36	@ 0x24
 800288e:	2200      	movs	r2, #0
 8002890:	4619      	mov	r1, r3
 8002892:	4814      	ldr	r0, [pc, #80]	@ (80028e4 <MX_TIM1_Init+0x13c>)
 8002894:	f001 fcd8 	bl	8004248 <HAL_TIM_PWM_ConfigChannel>
 8002898:	4603      	mov	r3, r0
 800289a:	2b00      	cmp	r3, #0
 800289c:	d001      	beq.n	80028a2 <MX_TIM1_Init+0xfa>
 800289e:	f7ff f91f 	bl	8001ae0 <Error_Handler>
 80028a2:	2300      	movs	r3, #0
 80028a4:	607b      	str	r3, [r7, #4]
 80028a6:	2300      	movs	r3, #0
 80028a8:	60bb      	str	r3, [r7, #8]
 80028aa:	2300      	movs	r3, #0
 80028ac:	60fb      	str	r3, [r7, #12]
 80028ae:	2300      	movs	r3, #0
 80028b0:	613b      	str	r3, [r7, #16]
 80028b2:	2300      	movs	r3, #0
 80028b4:	617b      	str	r3, [r7, #20]
 80028b6:	f44f 5300 	mov.w	r3, #8192	@ 0x2000
 80028ba:	61bb      	str	r3, [r7, #24]
 80028bc:	2300      	movs	r3, #0
 80028be:	623b      	str	r3, [r7, #32]
 80028c0:	1d3b      	adds	r3, r7, #4
 80028c2:	4619      	mov	r1, r3
 80028c4:	4807      	ldr	r0, [pc, #28]	@ (80028e4 <MX_TIM1_Init+0x13c>)
 80028c6:	f002 f989 	bl	8004bdc <HAL_TIMEx_ConfigBreakDeadTime>
 80028ca:	4603      	mov	r3, r0
 80028cc:	2b00      	cmp	r3, #0
 80028ce:	d001      	beq.n	80028d4 <MX_TIM1_Init+0x12c>
 80028d0:	f7ff f906 	bl	8001ae0 <Error_Handler>
 80028d4:	4803      	ldr	r0, [pc, #12]	@ (80028e4 <MX_TIM1_Init+0x13c>)
 80028d6:	f000 f865 	bl	80029a4 <HAL_TIM_MspPostInit>
 80028da:	bf00      	nop
 80028dc:	3758      	adds	r7, #88	@ 0x58
 80028de:	46bd      	mov	sp, r7
 80028e0:	bd80      	pop	{r7, pc}
 80028e2:	bf00      	nop
 80028e4:	20000214 	.word	0x20000214
 80028e8:	40010000 	.word	0x40010000

080028ec <MX_TIM11_Init>:
 80028ec:	b580      	push	{r7, lr}
 80028ee:	af00      	add	r7, sp, #0
 80028f0:	4b0e      	ldr	r3, [pc, #56]	@ (800292c <MX_TIM11_Init+0x40>)
 80028f2:	4a0f      	ldr	r2, [pc, #60]	@ (8002930 <MX_TIM11_Init+0x44>)
 80028f4:	601a      	str	r2, [r3, #0]
 80028f6:	4b0d      	ldr	r3, [pc, #52]	@ (800292c <MX_TIM11_Init+0x40>)
 80028f8:	2263      	movs	r2, #99	@ 0x63
 80028fa:	605a      	str	r2, [r3, #4]
 80028fc:	4b0b      	ldr	r3, [pc, #44]	@ (800292c <MX_TIM11_Init+0x40>)
 80028fe:	2200      	movs	r2, #0
 8002900:	609a      	str	r2, [r3, #8]
 8002902:	4b0a      	ldr	r3, [pc, #40]	@ (800292c <MX_TIM11_Init+0x40>)
 8002904:	f64f 72ff 	movw	r2, #65535	@ 0xffff
 8002908:	60da      	str	r2, [r3, #12]
 800290a:	4b08      	ldr	r3, [pc, #32]	@ (800292c <MX_TIM11_Init+0x40>)
 800290c:	2200      	movs	r2, #0
 800290e:	611a      	str	r2, [r3, #16]
 8002910:	4b06      	ldr	r3, [pc, #24]	@ (800292c <MX_TIM11_Init+0x40>)
 8002912:	2200      	movs	r2, #0
 8002914:	619a      	str	r2, [r3, #24]
 8002916:	4805      	ldr	r0, [pc, #20]	@ (800292c <MX_TIM11_Init+0x40>)
 8002918:	f001 fae2 	bl	8003ee0 <HAL_TIM_Base_Init>
 800291c:	4603      	mov	r3, r0
 800291e:	2b00      	cmp	r3, #0
 8002920:	d001      	beq.n	8002926 <MX_TIM11_Init+0x3a>
 8002922:	f7ff f8dd 	bl	8001ae0 <Error_Handler>
 8002926:	bf00      	nop
 8002928:	bd80      	pop	{r7, pc}
 800292a:	bf00      	nop
 800292c:	2000025c 	.word	0x2000025c
 8002930:	40014800 	.word	0x40014800

08002934 <HAL_TIM_Base_MspInit>:
 8002934:	b480      	push	{r7}
 8002936:	b085      	sub	sp, #20
 8002938:	af00      	add	r7, sp, #0
 800293a:	6078      	str	r0, [r7, #4]
 800293c:	687b      	ldr	r3, [r7, #4]
 800293e:	681b      	ldr	r3, [r3, #0]
 8002940:	4a15      	ldr	r2, [pc, #84]	@ (8002998 <HAL_TIM_Base_MspInit+0x64>)
 8002942:	4293      	cmp	r3, r2
 8002944:	d10e      	bne.n	8002964 <HAL_TIM_Base_MspInit+0x30>
 8002946:	2300      	movs	r3, #0
 8002948:	60fb      	str	r3, [r7, #12]
 800294a:	4b14      	ldr	r3, [pc, #80]	@ (800299c <HAL_TIM_Base_MspInit+0x68>)
 800294c:	6c5b      	ldr	r3, [r3, #68]	@ 0x44
 800294e:	4a13      	ldr	r2, [pc, #76]	@ (800299c <HAL_TIM_Base_MspInit+0x68>)
 8002950:	f043 0301 	orr.w	r3, r3, #1
 8002954:	6453      	str	r3, [r2, #68]	@ 0x44
 8002956:	4b11      	ldr	r3, [pc, #68]	@ (800299c <HAL_TIM_Base_MspInit+0x68>)
 8002958:	6c5b      	ldr	r3, [r3, #68]	@ 0x44
 800295a:	f003 0301 	and.w	r3, r3, #1
 800295e:	60fb      	str	r3, [r7, #12]
 8002960:	68fb      	ldr	r3, [r7, #12]
 8002962:	e012      	b.n	800298a <HAL_TIM_Base_MspInit+0x56>
 8002964:	687b      	ldr	r3, [r7, #4]
 8002966:	681b      	ldr	r3, [r3, #0]
 8002968:	4a0d      	ldr	r2, [pc, #52]	@ (80029a0 <HAL_TIM_Base_MspInit+0x6c>)
 800296a:	4293      	cmp	r3, r2
 800296c:	d10d      	bne.n	800298a <HAL_TIM_Base_MspInit+0x56>
 800296e:	2300      	movs	r3, #0
 8002970:	60bb      	str	r3, [r7, #8]
 8002972:	4b0a      	ldr	r3, [pc, #40]	@ (800299c <HAL_TIM_Base_MspInit+0x68>)
 8002974:	6c5b      	ldr	r3, [r3, #68]	@ 0x44
 8002976:	4a09      	ldr	r2, [pc, #36]	@ (800299c <HAL_TIM_Base_MspInit+0x68>)
 8002978:	f443 2380 	orr.w	r3, r3, #262144	@ 0x40000
 800297c:	6453      	str	r3, [r2, #68]	@ 0x44
 800297e:	4b07      	ldr	r3, [pc, #28]	@ (800299c <HAL_TIM_Base_MspInit+0x68>)
 8002980:	6c5b      	ldr	r3, [r3, #68]	@ 0x44
 8002982:	f403 2380 	and.w	r3, r3, #262144	@ 0x40000
 8002986:	60bb      	str	r3, [r7, #8]
 8002988:	68bb      	ldr	r3, [r7, #8]
 800298a:	bf00      	nop
 800298c:	3714      	adds	r7, #20
 800298e:	46bd      	mov	sp, r7
 8002990:	f85d 7b04 	ldr.w	r7, [sp], #4
 8002994:	4770      	bx	lr
 8002996:	bf00      	nop
 8002998:	40010000 	.word	0x40010000
 800299c:	40023800 	.word	0x40023800
 80029a0:	40014800 	.word	0x40014800

080029a4 <HAL_TIM_MspPostInit>:
 80029a4:	b580      	push	{r7, lr}
 80029a6:	b088      	sub	sp, #32
 80029a8:	af00      	add	r7, sp, #0
 80029aa:	6078      	str	r0, [r7, #4]
 80029ac:	f107 030c 	add.w	r3, r7, #12
 80029b0:	2200      	movs	r2, #0
 80029b2:	601a      	str	r2, [r3, #0]
 80029b4:	605a      	str	r2, [r3, #4]
 80029b6:	609a      	str	r2, [r3, #8]
 80029b8:	60da      	str	r2, [r3, #12]
 80029ba:	611a      	str	r2, [r3, #16]
 80029bc:	687b      	ldr	r3, [r7, #4]
 80029be:	681b      	ldr	r3, [r3, #0]
 80029c0:	4a12      	ldr	r2, [pc, #72]	@ (8002a0c <HAL_TIM_MspPostInit+0x68>)
 80029c2:	4293      	cmp	r3, r2
 80029c4:	d11e      	bne.n	8002a04 <HAL_TIM_MspPostInit+0x60>
 80029c6:	2300      	movs	r3, #0
 80029c8:	60bb      	str	r3, [r7, #8]
 80029ca:	4b11      	ldr	r3, [pc, #68]	@ (8002a10 <HAL_TIM_MspPostInit+0x6c>)
 80029cc:	6b1b      	ldr	r3, [r3, #48]	@ 0x30
 80029ce:	4a10      	ldr	r2, [pc, #64]	@ (8002a10 <HAL_TIM_MspPostInit+0x6c>)
 80029d0:	f043 0301 	orr.w	r3, r3, #1
 80029d4:	6313      	str	r3, [r2, #48]	@ 0x30
 80029d6:	4b0e      	ldr	r3, [pc, #56]	@ (8002a10 <HAL_TIM_MspPostInit+0x6c>)
 80029d8:	6b1b      	ldr	r3, [r3, #48]	@ 0x30
 80029da:	f003 0301 	and.w	r3, r3, #1
 80029de:	60bb      	str	r3, [r7, #8]
 80029e0:	68bb      	ldr	r3, [r7, #8]
 80029e2:	f44f 7380 	mov.w	r3, #256	@ 0x100
 80029e6:	60fb      	str	r3, [r7, #12]
 80029e8:	2302      	movs	r3, #2
 80029ea:	613b      	str	r3, [r7, #16]
 80029ec:	2300      	movs	r3, #0
 80029ee:	617b      	str	r3, [r7, #20]
 80029f0:	2300      	movs	r3, #0
 80029f2:	61bb      	str	r3, [r7, #24]
 80029f4:	2301      	movs	r3, #1
 80029f6:	61fb      	str	r3, [r7, #28]
 80029f8:	f107 030c 	add.w	r3, r7, #12
 80029fc:	4619      	mov	r1, r3
 80029fe:	4805      	ldr	r0, [pc, #20]	@ (8002a14 <HAL_TIM_MspPostInit+0x70>)
 8002a00:	f000 fac4 	bl	8002f8c <HAL_GPIO_Init>
 8002a04:	bf00      	nop
 8002a06:	3720      	adds	r7, #32
 8002a08:	46bd      	mov	sp, r7
 8002a0a:	bd80      	pop	{r7, pc}
 8002a0c:	40010000 	.word	0x40010000
 8002a10:	40023800 	.word	0x40023800
 8002a14:	40020000 	.word	0x40020000

08002a18 <MX_USART2_UART_Init>:
 8002a18:	b580      	push	{r7, lr}
 8002a1a:	af00      	add	r7, sp, #0
 8002a1c:	4b11      	ldr	r3, [pc, #68]	@ (8002a64 <MX_USART2_UART_Init+0x4c>)
 8002a1e:	4a12      	ldr	r2, [pc, #72]	@ (8002a68 <MX_USART2_UART_Init+0x50>)
 8002a20:	601a      	str	r2, [r3, #0]
 8002a22:	4b10      	ldr	r3, [pc, #64]	@ (8002a64 <MX_USART2_UART_Init+0x4c>)
 8002a24:	f44f 32e1 	mov.w	r2, #115200	@ 0x1c200
 8002a28:	605a      	str	r2, [r3, #4]
 8002a2a:	4b0e      	ldr	r3, [pc, #56]	@ (8002a64 <MX_USART2_UART_Init+0x4c>)
 8002a2c:	2200      	movs	r2, #0
 8002a2e:	609a      	str	r2, [r3, #8]
 8002a30:	4b0c      	ldr	r3, [pc, #48]	@ (8002a64 <MX_USART2_UART_Init+0x4c>)
 8002a32:	2200      	movs	r2, #0
 8002a34:	60da      	str	r2, [r3, #12]
 8002a36:	4b0b      	ldr	r3, [pc, #44]	@ (8002a64 <MX_USART2_UART_Init+0x4c>)
 8002a38:	2200      	movs	r2, #0
 8002a3a:	611a      	str	r2, [r3, #16]
 8002a3c:	4b09      	ldr	r3, [pc, #36]	@ (8002a64 <MX_USART2_UART_Init+0x4c>)
 8002a3e:	220c      	movs	r2, #12
 8002a40:	615a      	str	r2, [r3, #20]
 8002a42:	4b08      	ldr	r3, [pc, #32]	@ (8002a64 <MX_USART2_UART_Init+0x4c>)
 8002a44:	2200      	movs	r2, #0
 8002a46:	619a      	str	r2, [r3, #24]
 8002a48:	4b06      	ldr	r3, [pc, #24]	@ (8002a64 <MX_USART2_UART_Init+0x4c>)
 8002a4a:	2200      	movs	r2, #0
 8002a4c:	61da      	str	r2, [r3, #28]
 8002a4e:	4805      	ldr	r0, [pc, #20]	@ (8002a64 <MX_USART2_UART_Init+0x4c>)
 8002a50:	f002 f916 	bl	8004c80 <HAL_UART_Init>
 8002a54:	4603      	mov	r3, r0
 8002a56:	2b00      	cmp	r3, #0
 8002a58:	d001      	beq.n	8002a5e <MX_USART2_UART_Init+0x46>
 8002a5a:	f7ff f841 	bl	8001ae0 <Error_Handler>
 8002a5e:	bf00      	nop
 8002a60:	bd80      	pop	{r7, pc}
 8002a62:	bf00      	nop
 8002a64:	200002a4 	.word	0x200002a4
 8002a68:	40004400 	.word	0x40004400

08002a6c <HAL_UART_MspInit>:
 8002a6c:	b580      	push	{r7, lr}
 8002a6e:	b08a      	sub	sp, #40	@ 0x28
 8002a70:	af00      	add	r7, sp, #0
 8002a72:	6078      	str	r0, [r7, #4]
 8002a74:	f107 0314 	add.w	r3, r7, #20
 8002a78:	2200      	movs	r2, #0
 8002a7a:	601a      	str	r2, [r3, #0]
 8002a7c:	605a      	str	r2, [r3, #4]
 8002a7e:	609a      	str	r2, [r3, #8]
 8002a80:	60da      	str	r2, [r3, #12]
 8002a82:	611a      	str	r2, [r3, #16]
 8002a84:	687b      	ldr	r3, [r7, #4]
 8002a86:	681b      	ldr	r3, [r3, #0]
 8002a88:	4a1d      	ldr	r2, [pc, #116]	@ (8002b00 <HAL_UART_MspInit+0x94>)
 8002a8a:	4293      	cmp	r3, r2
 8002a8c:	d133      	bne.n	8002af6 <HAL_UART_MspInit+0x8a>
 8002a8e:	2300      	movs	r3, #0
 8002a90:	613b      	str	r3, [r7, #16]
 8002a92:	4b1c      	ldr	r3, [pc, #112]	@ (8002b04 <HAL_UART_MspInit+0x98>)
 8002a94:	6c1b      	ldr	r3, [r3, #64]	@ 0x40
 8002a96:	4a1b      	ldr	r2, [pc, #108]	@ (8002b04 <HAL_UART_MspInit+0x98>)
 8002a98:	f443 3300 	orr.w	r3, r3, #131072	@ 0x20000
 8002a9c:	6413      	str	r3, [r2, #64]	@ 0x40
 8002a9e:	4b19      	ldr	r3, [pc, #100]	@ (8002b04 <HAL_UART_MspInit+0x98>)
 8002aa0:	6c1b      	ldr	r3, [r3, #64]	@ 0x40
 8002aa2:	f403 3300 	and.w	r3, r3, #131072	@ 0x20000
 8002aa6:	613b      	str	r3, [r7, #16]
 8002aa8:	693b      	ldr	r3, [r7, #16]
 8002aaa:	2300      	movs	r3, #0
 8002aac:	60fb      	str	r3, [r7, #12]
 8002aae:	4b15      	ldr	r3, [pc, #84]	@ (8002b04 <HAL_UART_MspInit+0x98>)
 8002ab0:	6b1b      	ldr	r3, [r3, #48]	@ 0x30
 8002ab2:	4a14      	ldr	r2, [pc, #80]	@ (8002b04 <HAL_UART_MspInit+0x98>)
 8002ab4:	f043 0301 	orr.w	r3, r3, #1
 8002ab8:	6313      	str	r3, [r2, #48]	@ 0x30
 8002aba:	4b12      	ldr	r3, [pc, #72]	@ (8002b04 <HAL_UART_MspInit+0x98>)
 8002abc:	6b1b      	ldr	r3, [r3, #48]	@ 0x30
 8002abe:	f003 0301 	and.w	r3, r3, #1
 8002ac2:	60fb      	str	r3, [r7, #12]
 8002ac4:	68fb      	ldr	r3, [r7, #12]
 8002ac6:	230c      	movs	r3, #12
 8002ac8:	617b      	str	r3, [r7, #20]
 8002aca:	2302      	movs	r3, #2
 8002acc:	61bb      	str	r3, [r7, #24]
 8002ace:	2300      	movs	r3, #0
 8002ad0:	61fb      	str	r3, [r7, #28]
 8002ad2:	2303      	movs	r3, #3
 8002ad4:	623b      	str	r3, [r7, #32]
 8002ad6:	2307      	movs	r3, #7
 8002ad8:	627b      	str	r3, [r7, #36]	@ 0x24
 8002ada:	f107 0314 	add.w	r3, r7, #20
 8002ade:	4619      	mov	r1, r3
 8002ae0:	4809      	ldr	r0, [pc, #36]	@ (8002b08 <HAL_UART_MspInit+0x9c>)
 8002ae2:	f000 fa53 	bl	8002f8c <HAL_GPIO_Init>
 8002ae6:	2200      	movs	r2, #0
 8002ae8:	2100      	movs	r1, #0
 8002aea:	2026      	movs	r0, #38	@ 0x26
 8002aec:	f000 f985 	bl	8002dfa <HAL_NVIC_SetPriority>
 8002af0:	2026      	movs	r0, #38	@ 0x26
 8002af2:	f000 f99e 	bl	8002e32 <HAL_NVIC_EnableIRQ>
 8002af6:	bf00      	nop
 8002af8:	3728      	adds	r7, #40	@ 0x28
 8002afa:	46bd      	mov	sp, r7
 8002afc:	bd80      	pop	{r7, pc}
 8002afe:	bf00      	nop
 8002b00:	40004400 	.word	0x40004400
 8002b04:	40023800 	.word	0x40023800
 8002b08:	40020000 	.word	0x40020000

08002b0c <Reset_Handler>:
 8002b0c:	f8df d034 	ldr.w	sp, [pc, #52]	@ 8002b44 <LoopFillZerobss+0xe>
 8002b10:	f7ff fe38 	bl	8002784 <SystemInit>
 8002b14:	480c      	ldr	r0, [pc, #48]	@ (8002b48 <LoopFillZerobss+0x12>)
 8002b16:	490d      	ldr	r1, [pc, #52]	@ (8002b4c <LoopFillZerobss+0x16>)
 8002b18:	4a0d      	ldr	r2, [pc, #52]	@ (8002b50 <LoopFillZerobss+0x1a>)
 8002b1a:	2300      	movs	r3, #0
 8002b1c:	e002      	b.n	8002b24 <LoopCopyDataInit>

08002b1e <CopyDataInit>:
 8002b1e:	58d4      	ldr	r4, [r2, r3]
 8002b20:	50c4      	str	r4, [r0, r3]
 8002b22:	3304      	adds	r3, #4

08002b24 <LoopCopyDataInit>:
 8002b24:	18c4      	adds	r4, r0, r3
 8002b26:	428c      	cmp	r4, r1
 8002b28:	d3f9      	bcc.n	8002b1e <CopyDataInit>
 8002b2a:	4a0a      	ldr	r2, [pc, #40]	@ (8002b54 <LoopFillZerobss+0x1e>)
 8002b2c:	4c0a      	ldr	r4, [pc, #40]	@ (8002b58 <LoopFillZerobss+0x22>)
 8002b2e:	2300      	movs	r3, #0
 8002b30:	e001      	b.n	8002b36 <LoopFillZerobss>

08002b32 <FillZerobss>:
 8002b32:	6013      	str	r3, [r2, #0]
 8002b34:	3204      	adds	r2, #4

08002b36 <LoopFillZerobss>:
 8002b36:	42a2      	cmp	r2, r4
 8002b38:	d3fb      	bcc.n	8002b32 <FillZerobss>
 8002b3a:	f003 fa3b 	bl	8005fb4 <__libc_init_array>
 8002b3e:	f7fe ff41 	bl	80019c4 <main>
 8002b42:	4770      	bx	lr
 8002b44:	20020000 	.word	0x20020000
 8002b48:	20000000 	.word	0x20000000
 8002b4c:	20000100 	.word	0x20000100
 8002b50:	08006cf0 	.word	0x08006cf0
 8002b54:	20000100 	.word	0x20000100
 8002b58:	20000438 	.word	0x20000438

08002b5c <ADC_IRQHandler>:
 8002b5c:	e7fe      	b.n	8002b5c <ADC_IRQHandler>
	...

08002b60 <HAL_Init>:
 8002b60:	b580      	push	{r7, lr}
 8002b62:	af00      	add	r7, sp, #0
 8002b64:	4b0e      	ldr	r3, [pc, #56]	@ (8002ba0 <HAL_Init+0x40>)
 8002b66:	681b      	ldr	r3, [r3, #0]
 8002b68:	4a0d      	ldr	r2, [pc, #52]	@ (8002ba0 <HAL_Init+0x40>)
 8002b6a:	f443 7300 	orr.w	r3, r3, #512	@ 0x200
 8002b6e:	6013      	str	r3, [r2, #0]
 8002b70:	4b0b      	ldr	r3, [pc, #44]	@ (8002ba0 <HAL_Init+0x40>)
 8002b72:	681b      	ldr	r3, [r3, #0]
 8002b74:	4a0a      	ldr	r2, [pc, #40]	@ (8002ba0 <HAL_Init+0x40>)
 8002b76:	f443 6380 	orr.w	r3, r3, #1024	@ 0x400
 8002b7a:	6013      	str	r3, [r2, #0]
 8002b7c:	4b08      	ldr	r3, [pc, #32]	@ (8002ba0 <HAL_Init+0x40>)
 8002b7e:	681b      	ldr	r3, [r3, #0]
 8002b80:	4a07      	ldr	r2, [pc, #28]	@ (8002ba0 <HAL_Init+0x40>)
 8002b82:	f443 7380 	orr.w	r3, r3, #256	@ 0x100
 8002b86:	6013      	str	r3, [r2, #0]
 8002b88:	2003      	movs	r0, #3
 8002b8a:	f000 f92b 	bl	8002de4 <HAL_NVIC_SetPriorityGrouping>
 8002b8e:	200f      	movs	r0, #15
 8002b90:	f000 f808 	bl	8002ba4 <HAL_InitTick>
 8002b94:	f7ff fd4c 	bl	8002630 <HAL_MspInit>
 8002b98:	2300      	movs	r3, #0
 8002b9a:	4618      	mov	r0, r3
 8002b9c:	bd80      	pop	{r7, pc}
 8002b9e:	bf00      	nop
 8002ba0:	40023c00 	.word	0x40023c00

08002ba4 <HAL_InitTick>:
 8002ba4:	b580      	push	{r7, lr}
 8002ba6:	b082      	sub	sp, #8
 8002ba8:	af00      	add	r7, sp, #0
 8002baa:	6078      	str	r0, [r7, #4]
 8002bac:	4b12      	ldr	r3, [pc, #72]	@ (8002bf8 <HAL_InitTick+0x54>)
 8002bae:	681a      	ldr	r2, [r3, #0]
 8002bb0:	4b12      	ldr	r3, [pc, #72]	@ (8002bfc <HAL_InitTick+0x58>)
 8002bb2:	781b      	ldrb	r3, [r3, #0]
 8002bb4:	4619      	mov	r1, r3
 8002bb6:	f44f 737a 	mov.w	r3, #1000	@ 0x3e8
 8002bba:	fbb3 f3f1 	udiv	r3, r3, r1
 8002bbe:	fbb2 f3f3 	udiv	r3, r2, r3
 8002bc2:	4618      	mov	r0, r3
 8002bc4:	f000 f943 	bl	8002e4e <HAL_SYSTICK_Config>
 8002bc8:	4603      	mov	r3, r0
 8002bca:	2b00      	cmp	r3, #0
 8002bcc:	d001      	beq.n	8002bd2 <HAL_InitTick+0x2e>
 8002bce:	2301      	movs	r3, #1
 8002bd0:	e00e      	b.n	8002bf0 <HAL_InitTick+0x4c>
 8002bd2:	687b      	ldr	r3, [r7, #4]
 8002bd4:	2b0f      	cmp	r3, #15
 8002bd6:	d80a      	bhi.n	8002bee <HAL_InitTick+0x4a>
 8002bd8:	2200      	movs	r2, #0
 8002bda:	6879      	ldr	r1, [r7, #4]
 8002bdc:	f04f 30ff 	mov.w	r0, #4294967295	@ 0xffffffff
 8002be0:	f000 f90b 	bl	8002dfa <HAL_NVIC_SetPriority>
 8002be4:	4a06      	ldr	r2, [pc, #24]	@ (8002c00 <HAL_InitTick+0x5c>)
 8002be6:	687b      	ldr	r3, [r7, #4]
 8002be8:	6013      	str	r3, [r2, #0]
 8002bea:	2300      	movs	r3, #0
 8002bec:	e000      	b.n	8002bf0 <HAL_InitTick+0x4c>
 8002bee:	2301      	movs	r3, #1
 8002bf0:	4618      	mov	r0, r3
 8002bf2:	3708      	adds	r7, #8
 8002bf4:	46bd      	mov	sp, r7
 8002bf6:	bd80      	pop	{r7, pc}
 8002bf8:	200000a4 	.word	0x200000a4
 8002bfc:	200000ac 	.word	0x200000ac
 8002c00:	200000a8 	.word	0x200000a8

08002c04 <HAL_IncTick>:
 8002c04:	b480      	push	{r7}
 8002c06:	af00      	add	r7, sp, #0
 8002c08:	4b06      	ldr	r3, [pc, #24]	@ (8002c24 <HAL_IncTick+0x20>)
 8002c0a:	781b      	ldrb	r3, [r3, #0]
 8002c0c:	461a      	mov	r2, r3
 8002c0e:	4b06      	ldr	r3, [pc, #24]	@ (8002c28 <HAL_IncTick+0x24>)
 8002c10:	681b      	ldr	r3, [r3, #0]
 8002c12:	4413      	add	r3, r2
 8002c14:	4a04      	ldr	r2, [pc, #16]	@ (8002c28 <HAL_IncTick+0x24>)
 8002c16:	6013      	str	r3, [r2, #0]
 8002c18:	bf00      	nop
 8002c1a:	46bd      	mov	sp, r7
 8002c1c:	f85d 7b04 	ldr.w	r7, [sp], #4
 8002c20:	4770      	bx	lr
 8002c22:	bf00      	nop
 8002c24:	200000ac 	.word	0x200000ac
 8002c28:	200002ec 	.word	0x200002ec

08002c2c <HAL_GetTick>:
 8002c2c:	b480      	push	{r7}
 8002c2e:	af00      	add	r7, sp, #0
 8002c30:	4b03      	ldr	r3, [pc, #12]	@ (8002c40 <HAL_GetTick+0x14>)
 8002c32:	681b      	ldr	r3, [r3, #0]
 8002c34:	4618      	mov	r0, r3
 8002c36:	46bd      	mov	sp, r7
 8002c38:	f85d 7b04 	ldr.w	r7, [sp], #4
 8002c3c:	4770      	bx	lr
 8002c3e:	bf00      	nop
 8002c40:	200002ec 	.word	0x200002ec

08002c44 <__NVIC_SetPriorityGrouping>:
 8002c44:	b480      	push	{r7}
 8002c46:	b085      	sub	sp, #20
 8002c48:	af00      	add	r7, sp, #0
 8002c4a:	6078      	str	r0, [r7, #4]
 8002c4c:	687b      	ldr	r3, [r7, #4]
 8002c4e:	f003 0307 	and.w	r3, r3, #7
 8002c52:	60fb      	str	r3, [r7, #12]
 8002c54:	4b0c      	ldr	r3, [pc, #48]	@ (8002c88 <__NVIC_SetPriorityGrouping+0x44>)
 8002c56:	68db      	ldr	r3, [r3, #12]
 8002c58:	60bb      	str	r3, [r7, #8]
 8002c5a:	68ba      	ldr	r2, [r7, #8]
 8002c5c:	f64f 03ff 	movw	r3, #63743	@ 0xf8ff
 8002c60:	4013      	ands	r3, r2
 8002c62:	60bb      	str	r3, [r7, #8]
 8002c64:	68fb      	ldr	r3, [r7, #12]
 8002c66:	021a      	lsls	r2, r3, #8
 8002c68:	68bb      	ldr	r3, [r7, #8]
 8002c6a:	4313      	orrs	r3, r2
 8002c6c:	f043 63bf 	orr.w	r3, r3, #100139008	@ 0x5f80000
 8002c70:	f443 3300 	orr.w	r3, r3, #131072	@ 0x20000
 8002c74:	60bb      	str	r3, [r7, #8]
 8002c76:	4a04      	ldr	r2, [pc, #16]	@ (8002c88 <__NVIC_SetPriorityGrouping+0x44>)
 8002c78:	68bb      	ldr	r3, [r7, #8]
 8002c7a:	60d3      	str	r3, [r2, #12]
 8002c7c:	bf00      	nop
 8002c7e:	3714      	adds	r7, #20
 8002c80:	46bd      	mov	sp, r7
 8002c82:	f85d 7b04 	ldr.w	r7, [sp], #4
 8002c86:	4770      	bx	lr
 8002c88:	e000ed00 	.word	0xe000ed00

08002c8c <__NVIC_GetPriorityGrouping>:
 8002c8c:	b480      	push	{r7}
 8002c8e:	af00      	add	r7, sp, #0
 8002c90:	4b04      	ldr	r3, [pc, #16]	@ (8002ca4 <__NVIC_GetPriorityGrouping+0x18>)
 8002c92:	68db      	ldr	r3, [r3, #12]
 8002c94:	0a1b      	lsrs	r3, r3, #8
 8002c96:	f003 0307 	and.w	r3, r3, #7
 8002c9a:	4618      	mov	r0, r3
 8002c9c:	46bd      	mov	sp, r7
 8002c9e:	f85d 7b04 	ldr.w	r7, [sp], #4
 8002ca2:	4770      	bx	lr
 8002ca4:	e000ed00 	.word	0xe000ed00

08002ca8 <__NVIC_EnableIRQ>:
 8002ca8:	b480      	push	{r7}
 8002caa:	b083      	sub	sp, #12
 8002cac:	af00      	add	r7, sp, #0
 8002cae:	4603      	mov	r3, r0
 8002cb0:	71fb      	strb	r3, [r7, #7]
 8002cb2:	f997 3007 	ldrsb.w	r3, [r7, #7]
 8002cb6:	2b00      	cmp	r3, #0
 8002cb8:	db0b      	blt.n	8002cd2 <__NVIC_EnableIRQ+0x2a>
 8002cba:	79fb      	ldrb	r3, [r7, #7]
 8002cbc:	f003 021f 	and.w	r2, r3, #31
 8002cc0:	4907      	ldr	r1, [pc, #28]	@ (8002ce0 <__NVIC_EnableIRQ+0x38>)
 8002cc2:	f997 3007 	ldrsb.w	r3, [r7, #7]
 8002cc6:	095b      	lsrs	r3, r3, #5
 8002cc8:	2001      	movs	r0, #1
 8002cca:	fa00 f202 	lsl.w	r2, r0, r2
 8002cce:	f841 2023 	str.w	r2, [r1, r3, lsl #2]
 8002cd2:	bf00      	nop
 8002cd4:	370c      	adds	r7, #12
 8002cd6:	46bd      	mov	sp, r7
 8002cd8:	f85d 7b04 	ldr.w	r7, [sp], #4
 8002cdc:	4770      	bx	lr
 8002cde:	bf00      	nop
 8002ce0:	e000e100 	.word	0xe000e100

08002ce4 <__NVIC_SetPriority>:
 8002ce4:	b480      	push	{r7}
 8002ce6:	b083      	sub	sp, #12
 8002ce8:	af00      	add	r7, sp, #0
 8002cea:	4603      	mov	r3, r0
 8002cec:	6039      	str	r1, [r7, #0]
 8002cee:	71fb      	strb	r3, [r7, #7]
 8002cf0:	f997 3007 	ldrsb.w	r3, [r7, #7]
 8002cf4:	2b00      	cmp	r3, #0
 8002cf6:	db0a      	blt.n	8002d0e <__NVIC_SetPriority+0x2a>
 8002cf8:	683b      	ldr	r3, [r7, #0]
 8002cfa:	b2da      	uxtb	r2, r3
 8002cfc:	490c      	ldr	r1, [pc, #48]	@ (8002d30 <__NVIC_SetPriority+0x4c>)
 8002cfe:	f997 3007 	ldrsb.w	r3, [r7, #7]
 8002d02:	0112      	lsls	r2, r2, #4
 8002d04:	b2d2      	uxtb	r2, r2
 8002d06:	440b      	add	r3, r1
 8002d08:	f883 2300 	strb.w	r2, [r3, #768]	@ 0x300
 8002d0c:	e00a      	b.n	8002d24 <__NVIC_SetPriority+0x40>
 8002d0e:	683b      	ldr	r3, [r7, #0]
 8002d10:	b2da      	uxtb	r2, r3
 8002d12:	4908      	ldr	r1, [pc, #32]	@ (8002d34 <__NVIC_SetPriority+0x50>)
 8002d14:	79fb      	ldrb	r3, [r7, #7]
 8002d16:	f003 030f 	and.w	r3, r3, #15
 8002d1a:	3b04      	subs	r3, #4
 8002d1c:	0112      	lsls	r2, r2, #4
 8002d1e:	b2d2      	uxtb	r2, r2
 8002d20:	440b      	add	r3, r1
 8002d22:	761a      	strb	r2, [r3, #24]
 8002d24:	bf00      	nop
 8002d26:	370c      	adds	r7, #12
 8002d28:	46bd      	mov	sp, r7
 8002d2a:	f85d 7b04 	ldr.w	r7, [sp], #4
 8002d2e:	4770      	bx	lr
 8002d30:	e000e100 	.word	0xe000e100
 8002d34:	e000ed00 	.word	0xe000ed00

08002d38 <NVIC_EncodePriority>:
 8002d38:	b480      	push	{r7}
 8002d3a:	b089      	sub	sp, #36	@ 0x24
 8002d3c:	af00      	add	r7, sp, #0
 8002d3e:	60f8      	str	r0, [r7, #12]
 8002d40:	60b9      	str	r1, [r7, #8]
 8002d42:	607a      	str	r2, [r7, #4]
 8002d44:	68fb      	ldr	r3, [r7, #12]
 8002d46:	f003 0307 	and.w	r3, r3, #7
 8002d4a:	61fb      	str	r3, [r7, #28]
 8002d4c:	69fb      	ldr	r3, [r7, #28]
 8002d4e:	f1c3 0307 	rsb	r3, r3, #7
 8002d52:	2b04      	cmp	r3, #4
 8002d54:	bf28      	it	cs
 8002d56:	2304      	movcs	r3, #4
 8002d58:	61bb      	str	r3, [r7, #24]
 8002d5a:	69fb      	ldr	r3, [r7, #28]
 8002d5c:	3304      	adds	r3, #4
 8002d5e:	2b06      	cmp	r3, #6
 8002d60:	d902      	bls.n	8002d68 <NVIC_EncodePriority+0x30>
 8002d62:	69fb      	ldr	r3, [r7, #28]
 8002d64:	3b03      	subs	r3, #3
 8002d66:	e000      	b.n	8002d6a <NVIC_EncodePriority+0x32>
 8002d68:	2300      	movs	r3, #0
 8002d6a:	617b      	str	r3, [r7, #20]
 8002d6c:	f04f 32ff 	mov.w	r2, #4294967295	@ 0xffffffff
 8002d70:	69bb      	ldr	r3, [r7, #24]
 8002d72:	fa02 f303 	lsl.w	r3, r2, r3
 8002d76:	43da      	mvns	r2, r3
 8002d78:	68bb      	ldr	r3, [r7, #8]
 8002d7a:	401a      	ands	r2, r3
 8002d7c:	697b      	ldr	r3, [r7, #20]
 8002d7e:	409a      	lsls	r2, r3
 8002d80:	f04f 31ff 	mov.w	r1, #4294967295	@ 0xffffffff
 8002d84:	697b      	ldr	r3, [r7, #20]
 8002d86:	fa01 f303 	lsl.w	r3, r1, r3
 8002d8a:	43d9      	mvns	r1, r3
 8002d8c:	687b      	ldr	r3, [r7, #4]
 8002d8e:	400b      	ands	r3, r1
 8002d90:	4313      	orrs	r3, r2
 8002d92:	4618      	mov	r0, r3
 8002d94:	3724      	adds	r7, #36	@ 0x24
 8002d96:	46bd      	mov	sp, r7
 8002d98:	f85d 7b04 	ldr.w	r7, [sp], #4
 8002d9c:	4770      	bx	lr
	...

08002da0 <SysTick_Config>:
 8002da0:	b580      	push	{r7, lr}
 8002da2:	b082      	sub	sp, #8
 8002da4:	af00      	add	r7, sp, #0
 8002da6:	6078      	str	r0, [r7, #4]
 8002da8:	687b      	ldr	r3, [r7, #4]
 8002daa:	3b01      	subs	r3, #1
 8002dac:	f1b3 7f80 	cmp.w	r3, #16777216	@ 0x1000000
 8002db0:	d301      	bcc.n	8002db6 <SysTick_Config+0x16>
 8002db2:	2301      	movs	r3, #1
 8002db4:	e00f      	b.n	8002dd6 <SysTick_Config+0x36>
 8002db6:	4a0a      	ldr	r2, [pc, #40]	@ (8002de0 <SysTick_Config+0x40>)
 8002db8:	687b      	ldr	r3, [r7, #4]
 8002dba:	3b01      	subs	r3, #1
 8002dbc:	6053      	str	r3, [r2, #4]
 8002dbe:	210f      	movs	r1, #15
 8002dc0:	f04f 30ff 	mov.w	r0, #4294967295	@ 0xffffffff
 8002dc4:	f7ff ff8e 	bl	8002ce4 <__NVIC_SetPriority>
 8002dc8:	4b05      	ldr	r3, [pc, #20]	@ (8002de0 <SysTick_Config+0x40>)
 8002dca:	2200      	movs	r2, #0
 8002dcc:	609a      	str	r2, [r3, #8]
 8002dce:	4b04      	ldr	r3, [pc, #16]	@ (8002de0 <SysTick_Config+0x40>)
 8002dd0:	2207      	movs	r2, #7
 8002dd2:	601a      	str	r2, [r3, #0]
 8002dd4:	2300      	movs	r3, #0
 8002dd6:	4618      	mov	r0, r3
 8002dd8:	3708      	adds	r7, #8
 8002dda:	46bd      	mov	sp, r7
 8002ddc:	bd80      	pop	{r7, pc}
 8002dde:	bf00      	nop
 8002de0:	e000e010 	.word	0xe000e010

08002de4 <HAL_NVIC_SetPriorityGrouping>:
 8002de4:	b580      	push	{r7, lr}
 8002de6:	b082      	sub	sp, #8
 8002de8:	af00      	add	r7, sp, #0
 8002dea:	6078      	str	r0, [r7, #4]
 8002dec:	6878      	ldr	r0, [r7, #4]
 8002dee:	f7ff ff29 	bl	8002c44 <__NVIC_SetPriorityGrouping>
 8002df2:	bf00      	nop
 8002df4:	3708      	adds	r7, #8
 8002df6:	46bd      	mov	sp, r7
 8002df8:	bd80      	pop	{r7, pc}

08002dfa <HAL_NVIC_SetPriority>:
 8002dfa:	b580      	push	{r7, lr}
 8002dfc:	b086      	sub	sp, #24
 8002dfe:	af00      	add	r7, sp, #0
 8002e00:	4603      	mov	r3, r0
 8002e02:	60b9      	str	r1, [r7, #8]
 8002e04:	607a      	str	r2, [r7, #4]
 8002e06:	73fb      	strb	r3, [r7, #15]
 8002e08:	2300      	movs	r3, #0
 8002e0a:	617b      	str	r3, [r7, #20]
 8002e0c:	f7ff ff3e 	bl	8002c8c <__NVIC_GetPriorityGrouping>
 8002e10:	6178      	str	r0, [r7, #20]
 8002e12:	687a      	ldr	r2, [r7, #4]
 8002e14:	68b9      	ldr	r1, [r7, #8]
 8002e16:	6978      	ldr	r0, [r7, #20]
 8002e18:	f7ff ff8e 	bl	8002d38 <NVIC_EncodePriority>
 8002e1c:	4602      	mov	r2, r0
 8002e1e:	f997 300f 	ldrsb.w	r3, [r7, #15]
 8002e22:	4611      	mov	r1, r2
 8002e24:	4618      	mov	r0, r3
 8002e26:	f7ff ff5d 	bl	8002ce4 <__NVIC_SetPriority>
 8002e2a:	bf00      	nop
 8002e2c:	3718      	adds	r7, #24
 8002e2e:	46bd      	mov	sp, r7
 8002e30:	bd80      	pop	{r7, pc}

08002e32 <HAL_NVIC_EnableIRQ>:
 8002e32:	b580      	push	{r7, lr}
 8002e34:	b082      	sub	sp, #8
 8002e36:	af00      	add	r7, sp, #0
 8002e38:	4603      	mov	r3, r0
 8002e3a:	71fb      	strb	r3, [r7, #7]
 8002e3c:	f997 3007 	ldrsb.w	r3, [r7, #7]
 8002e40:	4618      	mov	r0, r3
 8002e42:	f7ff ff31 	bl	8002ca8 <__NVIC_EnableIRQ>
 8002e46:	bf00      	nop
 8002e48:	3708      	adds	r7, #8
 8002e4a:	46bd      	mov	sp, r7
 8002e4c:	bd80      	pop	{r7, pc}

08002e4e <HAL_SYSTICK_Config>:
 8002e4e:	b580      	push	{r7, lr}
 8002e50:	b082      	sub	sp, #8
 8002e52:	af00      	add	r7, sp, #0
 8002e54:	6078      	str	r0, [r7, #4]
 8002e56:	6878      	ldr	r0, [r7, #4]
 8002e58:	f7ff ffa2 	bl	8002da0 <SysTick_Config>
 8002e5c:	4603      	mov	r3, r0
 8002e5e:	4618      	mov	r0, r3
 8002e60:	3708      	adds	r7, #8
 8002e62:	46bd      	mov	sp, r7
 8002e64:	bd80      	pop	{r7, pc}

08002e66 <HAL_DMA_Abort>:
 8002e66:	b580      	push	{r7, lr}
 8002e68:	b084      	sub	sp, #16
 8002e6a:	af00      	add	r7, sp, #0
 8002e6c:	6078      	str	r0, [r7, #4]
 8002e6e:	687b      	ldr	r3, [r7, #4]
 8002e70:	6d9b      	ldr	r3, [r3, #88]	@ 0x58
 8002e72:	60fb      	str	r3, [r7, #12]
 8002e74:	f7ff feda 	bl	8002c2c <HAL_GetTick>
 8002e78:	60b8      	str	r0, [r7, #8]
 8002e7a:	687b      	ldr	r3, [r7, #4]
 8002e7c:	f893 3035 	ldrb.w	r3, [r3, #53]	@ 0x35
 8002e80:	b2db      	uxtb	r3, r3
 8002e82:	2b02      	cmp	r3, #2
 8002e84:	d008      	beq.n	8002e98 <HAL_DMA_Abort+0x32>
 8002e86:	687b      	ldr	r3, [r7, #4]
 8002e88:	2280      	movs	r2, #128	@ 0x80
 8002e8a:	655a      	str	r2, [r3, #84]	@ 0x54
 8002e8c:	687b      	ldr	r3, [r7, #4]
 8002e8e:	2200      	movs	r2, #0
 8002e90:	f883 2034 	strb.w	r2, [r3, #52]	@ 0x34
 8002e94:	2301      	movs	r3, #1
 8002e96:	e052      	b.n	8002f3e <HAL_DMA_Abort+0xd8>
 8002e98:	687b      	ldr	r3, [r7, #4]
 8002e9a:	681b      	ldr	r3, [r3, #0]
 8002e9c:	681a      	ldr	r2, [r3, #0]
 8002e9e:	687b      	ldr	r3, [r7, #4]
 8002ea0:	681b      	ldr	r3, [r3, #0]
 8002ea2:	f022 0216 	bic.w	r2, r2, #22
 8002ea6:	601a      	str	r2, [r3, #0]
 8002ea8:	687b      	ldr	r3, [r7, #4]
 8002eaa:	681b      	ldr	r3, [r3, #0]
 8002eac:	695a      	ldr	r2, [r3, #20]
 8002eae:	687b      	ldr	r3, [r7, #4]
 8002eb0:	681b      	ldr	r3, [r3, #0]
 8002eb2:	f022 0280 	bic.w	r2, r2, #128	@ 0x80
 8002eb6:	615a      	str	r2, [r3, #20]
 8002eb8:	687b      	ldr	r3, [r7, #4]
 8002eba:	6c1b      	ldr	r3, [r3, #64]	@ 0x40
 8002ebc:	2b00      	cmp	r3, #0
 8002ebe:	d103      	bne.n	8002ec8 <HAL_DMA_Abort+0x62>
 8002ec0:	687b      	ldr	r3, [r7, #4]
 8002ec2:	6c9b      	ldr	r3, [r3, #72]	@ 0x48
 8002ec4:	2b00      	cmp	r3, #0
 8002ec6:	d007      	beq.n	8002ed8 <HAL_DMA_Abort+0x72>
 8002ec8:	687b      	ldr	r3, [r7, #4]
 8002eca:	681b      	ldr	r3, [r3, #0]
 8002ecc:	681a      	ldr	r2, [r3, #0]
 8002ece:	687b      	ldr	r3, [r7, #4]
 8002ed0:	681b      	ldr	r3, [r3, #0]
 8002ed2:	f022 0208 	bic.w	r2, r2, #8
 8002ed6:	601a      	str	r2, [r3, #0]
 8002ed8:	687b      	ldr	r3, [r7, #4]
 8002eda:	681b      	ldr	r3, [r3, #0]
 8002edc:	681a      	ldr	r2, [r3, #0]
 8002ede:	687b      	ldr	r3, [r7, #4]
 8002ee0:	681b      	ldr	r3, [r3, #0]
 8002ee2:	f022 0201 	bic.w	r2, r2, #1
 8002ee6:	601a      	str	r2, [r3, #0]
 8002ee8:	e013      	b.n	8002f12 <HAL_DMA_Abort+0xac>
 8002eea:	f7ff fe9f 	bl	8002c2c <HAL_GetTick>
 8002eee:	4602      	mov	r2, r0
 8002ef0:	68bb      	ldr	r3, [r7, #8]
 8002ef2:	1ad3      	subs	r3, r2, r3
 8002ef4:	2b05      	cmp	r3, #5
 8002ef6:	d90c      	bls.n	8002f12 <HAL_DMA_Abort+0xac>
 8002ef8:	687b      	ldr	r3, [r7, #4]
 8002efa:	2220      	movs	r2, #32
 8002efc:	655a      	str	r2, [r3, #84]	@ 0x54
 8002efe:	687b      	ldr	r3, [r7, #4]
 8002f00:	2203      	movs	r2, #3
 8002f02:	f883 2035 	strb.w	r2, [r3, #53]	@ 0x35
 8002f06:	687b      	ldr	r3, [r7, #4]
 8002f08:	2200      	movs	r2, #0
 8002f0a:	f883 2034 	strb.w	r2, [r3, #52]	@ 0x34
 8002f0e:	2303      	movs	r3, #3
 8002f10:	e015      	b.n	8002f3e <HAL_DMA_Abort+0xd8>
 8002f12:	687b      	ldr	r3, [r7, #4]
 8002f14:	681b      	ldr	r3, [r3, #0]
 8002f16:	681b      	ldr	r3, [r3, #0]
 8002f18:	f003 0301 	and.w	r3, r3, #1
 8002f1c:	2b00      	cmp	r3, #0
 8002f1e:	d1e4      	bne.n	8002eea <HAL_DMA_Abort+0x84>
 8002f20:	687b      	ldr	r3, [r7, #4]
 8002f22:	6ddb      	ldr	r3, [r3, #92]	@ 0x5c
 8002f24:	223f      	movs	r2, #63	@ 0x3f
 8002f26:	409a      	lsls	r2, r3
 8002f28:	68fb      	ldr	r3, [r7, #12]
 8002f2a:	609a      	str	r2, [r3, #8]
 8002f2c:	687b      	ldr	r3, [r7, #4]
 8002f2e:	2201      	movs	r2, #1
 8002f30:	f883 2035 	strb.w	r2, [r3, #53]	@ 0x35
 8002f34:	687b      	ldr	r3, [r7, #4]
 8002f36:	2200      	movs	r2, #0
 8002f38:	f883 2034 	strb.w	r2, [r3, #52]	@ 0x34
 8002f3c:	2300      	movs	r3, #0
 8002f3e:	4618      	mov	r0, r3
 8002f40:	3710      	adds	r7, #16
 8002f42:	46bd      	mov	sp, r7
 8002f44:	bd80      	pop	{r7, pc}

08002f46 <HAL_DMA_Abort_IT>:
 8002f46:	b480      	push	{r7}
 8002f48:	b083      	sub	sp, #12
 8002f4a:	af00      	add	r7, sp, #0
 8002f4c:	6078      	str	r0, [r7, #4]
 8002f4e:	687b      	ldr	r3, [r7, #4]
 8002f50:	f893 3035 	ldrb.w	r3, [r3, #53]	@ 0x35
 8002f54:	b2db      	uxtb	r3, r3
 8002f56:	2b02      	cmp	r3, #2
 8002f58:	d004      	beq.n	8002f64 <HAL_DMA_Abort_IT+0x1e>
 8002f5a:	687b      	ldr	r3, [r7, #4]
 8002f5c:	2280      	movs	r2, #128	@ 0x80
 8002f5e:	655a      	str	r2, [r3, #84]	@ 0x54
 8002f60:	2301      	movs	r3, #1
 8002f62:	e00c      	b.n	8002f7e <HAL_DMA_Abort_IT+0x38>
 8002f64:	687b      	ldr	r3, [r7, #4]
 8002f66:	2205      	movs	r2, #5
 8002f68:	f883 2035 	strb.w	r2, [r3, #53]	@ 0x35
 8002f6c:	687b      	ldr	r3, [r7, #4]
 8002f6e:	681b      	ldr	r3, [r3, #0]
 8002f70:	681a      	ldr	r2, [r3, #0]
 8002f72:	687b      	ldr	r3, [r7, #4]
 8002f74:	681b      	ldr	r3, [r3, #0]
 8002f76:	f022 0201 	bic.w	r2, r2, #1
 8002f7a:	601a      	str	r2, [r3, #0]
 8002f7c:	2300      	movs	r3, #0
 8002f7e:	4618      	mov	r0, r3
 8002f80:	370c      	adds	r7, #12
 8002f82:	46bd      	mov	sp, r7
 8002f84:	f85d 7b04 	ldr.w	r7, [sp], #4
 8002f88:	4770      	bx	lr
	...

08002f8c <HAL_GPIO_Init>:
 8002f8c:	b480      	push	{r7}
 8002f8e:	b089      	sub	sp, #36	@ 0x24
 8002f90:	af00      	add	r7, sp, #0
 8002f92:	6078      	str	r0, [r7, #4]
 8002f94:	6039      	str	r1, [r7, #0]
 8002f96:	2300      	movs	r3, #0
 8002f98:	617b      	str	r3, [r7, #20]
 8002f9a:	2300      	movs	r3, #0
 8002f9c:	613b      	str	r3, [r7, #16]
 8002f9e:	2300      	movs	r3, #0
 8002fa0:	61bb      	str	r3, [r7, #24]
 8002fa2:	2300      	movs	r3, #0
 8002fa4:	61fb      	str	r3, [r7, #28]
 8002fa6:	e159      	b.n	800325c <HAL_GPIO_Init+0x2d0>
 8002fa8:	2201      	movs	r2, #1
 8002faa:	69fb      	ldr	r3, [r7, #28]
 8002fac:	fa02 f303 	lsl.w	r3, r2, r3
 8002fb0:	617b      	str	r3, [r7, #20]
 8002fb2:	683b      	ldr	r3, [r7, #0]
 8002fb4:	681b      	ldr	r3, [r3, #0]
 8002fb6:	697a      	ldr	r2, [r7, #20]
 8002fb8:	4013      	ands	r3, r2
 8002fba:	613b      	str	r3, [r7, #16]
 8002fbc:	693a      	ldr	r2, [r7, #16]
 8002fbe:	697b      	ldr	r3, [r7, #20]
 8002fc0:	429a      	cmp	r2, r3
 8002fc2:	f040 8148 	bne.w	8003256 <HAL_GPIO_Init+0x2ca>
 8002fc6:	683b      	ldr	r3, [r7, #0]
 8002fc8:	685b      	ldr	r3, [r3, #4]
 8002fca:	f003 0303 	and.w	r3, r3, #3
 8002fce:	2b01      	cmp	r3, #1
 8002fd0:	d005      	beq.n	8002fde <HAL_GPIO_Init+0x52>
 8002fd2:	683b      	ldr	r3, [r7, #0]
 8002fd4:	685b      	ldr	r3, [r3, #4]
 8002fd6:	f003 0303 	and.w	r3, r3, #3
 8002fda:	2b02      	cmp	r3, #2
 8002fdc:	d130      	bne.n	8003040 <HAL_GPIO_Init+0xb4>
 8002fde:	687b      	ldr	r3, [r7, #4]
 8002fe0:	689b      	ldr	r3, [r3, #8]
 8002fe2:	61bb      	str	r3, [r7, #24]
 8002fe4:	69fb      	ldr	r3, [r7, #28]
 8002fe6:	005b      	lsls	r3, r3, #1
 8002fe8:	2203      	movs	r2, #3
 8002fea:	fa02 f303 	lsl.w	r3, r2, r3
 8002fee:	43db      	mvns	r3, r3
 8002ff0:	69ba      	ldr	r2, [r7, #24]
 8002ff2:	4013      	ands	r3, r2
 8002ff4:	61bb      	str	r3, [r7, #24]
 8002ff6:	683b      	ldr	r3, [r7, #0]
 8002ff8:	68da      	ldr	r2, [r3, #12]
 8002ffa:	69fb      	ldr	r3, [r7, #28]
 8002ffc:	005b      	lsls	r3, r3, #1
 8002ffe:	fa02 f303 	lsl.w	r3, r2, r3
 8003002:	69ba      	ldr	r2, [r7, #24]
 8003004:	4313      	orrs	r3, r2
 8003006:	61bb      	str	r3, [r7, #24]
 8003008:	687b      	ldr	r3, [r7, #4]
 800300a:	69ba      	ldr	r2, [r7, #24]
 800300c:	609a      	str	r2, [r3, #8]
 800300e:	687b      	ldr	r3, [r7, #4]
 8003010:	685b      	ldr	r3, [r3, #4]
 8003012:	61bb      	str	r3, [r7, #24]
 8003014:	2201      	movs	r2, #1
 8003016:	69fb      	ldr	r3, [r7, #28]
 8003018:	fa02 f303 	lsl.w	r3, r2, r3
 800301c:	43db      	mvns	r3, r3
 800301e:	69ba      	ldr	r2, [r7, #24]
 8003020:	4013      	ands	r3, r2
 8003022:	61bb      	str	r3, [r7, #24]
 8003024:	683b      	ldr	r3, [r7, #0]
 8003026:	685b      	ldr	r3, [r3, #4]
 8003028:	091b      	lsrs	r3, r3, #4
 800302a:	f003 0201 	and.w	r2, r3, #1
 800302e:	69fb      	ldr	r3, [r7, #28]
 8003030:	fa02 f303 	lsl.w	r3, r2, r3
 8003034:	69ba      	ldr	r2, [r7, #24]
 8003036:	4313      	orrs	r3, r2
 8003038:	61bb      	str	r3, [r7, #24]
 800303a:	687b      	ldr	r3, [r7, #4]
 800303c:	69ba      	ldr	r2, [r7, #24]
 800303e:	605a      	str	r2, [r3, #4]
 8003040:	683b      	ldr	r3, [r7, #0]
 8003042:	685b      	ldr	r3, [r3, #4]
 8003044:	f003 0303 	and.w	r3, r3, #3
 8003048:	2b03      	cmp	r3, #3
 800304a:	d017      	beq.n	800307c <HAL_GPIO_Init+0xf0>
 800304c:	687b      	ldr	r3, [r7, #4]
 800304e:	68db      	ldr	r3, [r3, #12]
 8003050:	61bb      	str	r3, [r7, #24]
 8003052:	69fb      	ldr	r3, [r7, #28]
 8003054:	005b      	lsls	r3, r3, #1
 8003056:	2203      	movs	r2, #3
 8003058:	fa02 f303 	lsl.w	r3, r2, r3
 800305c:	43db      	mvns	r3, r3
 800305e:	69ba      	ldr	r2, [r7, #24]
 8003060:	4013      	ands	r3, r2
 8003062:	61bb      	str	r3, [r7, #24]
 8003064:	683b      	ldr	r3, [r7, #0]
 8003066:	689a      	ldr	r2, [r3, #8]
 8003068:	69fb      	ldr	r3, [r7, #28]
 800306a:	005b      	lsls	r3, r3, #1
 800306c:	fa02 f303 	lsl.w	r3, r2, r3
 8003070:	69ba      	ldr	r2, [r7, #24]
 8003072:	4313      	orrs	r3, r2
 8003074:	61bb      	str	r3, [r7, #24]
 8003076:	687b      	ldr	r3, [r7, #4]
 8003078:	69ba      	ldr	r2, [r7, #24]
 800307a:	60da      	str	r2, [r3, #12]
 800307c:	683b      	ldr	r3, [r7, #0]
 800307e:	685b      	ldr	r3, [r3, #4]
 8003080:	f003 0303 	and.w	r3, r3, #3
 8003084:	2b02      	cmp	r3, #2
 8003086:	d123      	bne.n	80030d0 <HAL_GPIO_Init+0x144>
 8003088:	69fb      	ldr	r3, [r7, #28]
 800308a:	08da      	lsrs	r2, r3, #3
 800308c:	687b      	ldr	r3, [r7, #4]
 800308e:	3208      	adds	r2, #8
 8003090:	f853 3022 	ldr.w	r3, [r3, r2, lsl #2]
 8003094:	61bb      	str	r3, [r7, #24]
 8003096:	69fb      	ldr	r3, [r7, #28]
 8003098:	f003 0307 	and.w	r3, r3, #7
 800309c:	009b      	lsls	r3, r3, #2
 800309e:	220f      	movs	r2, #15
 80030a0:	fa02 f303 	lsl.w	r3, r2, r3
 80030a4:	43db      	mvns	r3, r3
 80030a6:	69ba      	ldr	r2, [r7, #24]
 80030a8:	4013      	ands	r3, r2
 80030aa:	61bb      	str	r3, [r7, #24]
 80030ac:	683b      	ldr	r3, [r7, #0]
 80030ae:	691a      	ldr	r2, [r3, #16]
 80030b0:	69fb      	ldr	r3, [r7, #28]
 80030b2:	f003 0307 	and.w	r3, r3, #7
 80030b6:	009b      	lsls	r3, r3, #2
 80030b8:	fa02 f303 	lsl.w	r3, r2, r3
 80030bc:	69ba      	ldr	r2, [r7, #24]
 80030be:	4313      	orrs	r3, r2
 80030c0:	61bb      	str	r3, [r7, #24]
 80030c2:	69fb      	ldr	r3, [r7, #28]
 80030c4:	08da      	lsrs	r2, r3, #3
 80030c6:	687b      	ldr	r3, [r7, #4]
 80030c8:	3208      	adds	r2, #8
 80030ca:	69b9      	ldr	r1, [r7, #24]
 80030cc:	f843 1022 	str.w	r1, [r3, r2, lsl #2]
 80030d0:	687b      	ldr	r3, [r7, #4]
 80030d2:	681b      	ldr	r3, [r3, #0]
 80030d4:	61bb      	str	r3, [r7, #24]
 80030d6:	69fb      	ldr	r3, [r7, #28]
 80030d8:	005b      	lsls	r3, r3, #1
 80030da:	2203      	movs	r2, #3
 80030dc:	fa02 f303 	lsl.w	r3, r2, r3
 80030e0:	43db      	mvns	r3, r3
 80030e2:	69ba      	ldr	r2, [r7, #24]
 80030e4:	4013      	ands	r3, r2
 80030e6:	61bb      	str	r3, [r7, #24]
 80030e8:	683b      	ldr	r3, [r7, #0]
 80030ea:	685b      	ldr	r3, [r3, #4]
 80030ec:	f003 0203 	and.w	r2, r3, #3
 80030f0:	69fb      	ldr	r3, [r7, #28]
 80030f2:	005b      	lsls	r3, r3, #1
 80030f4:	fa02 f303 	lsl.w	r3, r2, r3
 80030f8:	69ba      	ldr	r2, [r7, #24]
 80030fa:	4313      	orrs	r3, r2
 80030fc:	61bb      	str	r3, [r7, #24]
 80030fe:	687b      	ldr	r3, [r7, #4]
 8003100:	69ba      	ldr	r2, [r7, #24]
 8003102:	601a      	str	r2, [r3, #0]
 8003104:	683b      	ldr	r3, [r7, #0]
 8003106:	685b      	ldr	r3, [r3, #4]
 8003108:	f403 3340 	and.w	r3, r3, #196608	@ 0x30000
 800310c:	2b00      	cmp	r3, #0
 800310e:	f000 80a2 	beq.w	8003256 <HAL_GPIO_Init+0x2ca>
 8003112:	2300      	movs	r3, #0
 8003114:	60fb      	str	r3, [r7, #12]
 8003116:	4b57      	ldr	r3, [pc, #348]	@ (8003274 <HAL_GPIO_Init+0x2e8>)
 8003118:	6c5b      	ldr	r3, [r3, #68]	@ 0x44
 800311a:	4a56      	ldr	r2, [pc, #344]	@ (8003274 <HAL_GPIO_Init+0x2e8>)
 800311c:	f443 4380 	orr.w	r3, r3, #16384	@ 0x4000
 8003120:	6453      	str	r3, [r2, #68]	@ 0x44
 8003122:	4b54      	ldr	r3, [pc, #336]	@ (8003274 <HAL_GPIO_Init+0x2e8>)
 8003124:	6c5b      	ldr	r3, [r3, #68]	@ 0x44
 8003126:	f403 4380 	and.w	r3, r3, #16384	@ 0x4000
 800312a:	60fb      	str	r3, [r7, #12]
 800312c:	68fb      	ldr	r3, [r7, #12]
 800312e:	4a52      	ldr	r2, [pc, #328]	@ (8003278 <HAL_GPIO_Init+0x2ec>)
 8003130:	69fb      	ldr	r3, [r7, #28]
 8003132:	089b      	lsrs	r3, r3, #2
 8003134:	3302      	adds	r3, #2
 8003136:	f852 3023 	ldr.w	r3, [r2, r3, lsl #2]
 800313a:	61bb      	str	r3, [r7, #24]
 800313c:	69fb      	ldr	r3, [r7, #28]
 800313e:	f003 0303 	and.w	r3, r3, #3
 8003142:	009b      	lsls	r3, r3, #2
 8003144:	220f      	movs	r2, #15
 8003146:	fa02 f303 	lsl.w	r3, r2, r3
 800314a:	43db      	mvns	r3, r3
 800314c:	69ba      	ldr	r2, [r7, #24]
 800314e:	4013      	ands	r3, r2
 8003150:	61bb      	str	r3, [r7, #24]
 8003152:	687b      	ldr	r3, [r7, #4]
 8003154:	4a49      	ldr	r2, [pc, #292]	@ (800327c <HAL_GPIO_Init+0x2f0>)
 8003156:	4293      	cmp	r3, r2
 8003158:	d019      	beq.n	800318e <HAL_GPIO_Init+0x202>
 800315a:	687b      	ldr	r3, [r7, #4]
 800315c:	4a48      	ldr	r2, [pc, #288]	@ (8003280 <HAL_GPIO_Init+0x2f4>)
 800315e:	4293      	cmp	r3, r2
 8003160:	d013      	beq.n	800318a <HAL_GPIO_Init+0x1fe>
 8003162:	687b      	ldr	r3, [r7, #4]
 8003164:	4a47      	ldr	r2, [pc, #284]	@ (8003284 <HAL_GPIO_Init+0x2f8>)
 8003166:	4293      	cmp	r3, r2
 8003168:	d00d      	beq.n	8003186 <HAL_GPIO_Init+0x1fa>
 800316a:	687b      	ldr	r3, [r7, #4]
 800316c:	4a46      	ldr	r2, [pc, #280]	@ (8003288 <HAL_GPIO_Init+0x2fc>)
 800316e:	4293      	cmp	r3, r2
 8003170:	d007      	beq.n	8003182 <HAL_GPIO_Init+0x1f6>
 8003172:	687b      	ldr	r3, [r7, #4]
 8003174:	4a45      	ldr	r2, [pc, #276]	@ (800328c <HAL_GPIO_Init+0x300>)
 8003176:	4293      	cmp	r3, r2
 8003178:	d101      	bne.n	800317e <HAL_GPIO_Init+0x1f2>
 800317a:	2304      	movs	r3, #4
 800317c:	e008      	b.n	8003190 <HAL_GPIO_Init+0x204>
 800317e:	2307      	movs	r3, #7
 8003180:	e006      	b.n	8003190 <HAL_GPIO_Init+0x204>
 8003182:	2303      	movs	r3, #3
 8003184:	e004      	b.n	8003190 <HAL_GPIO_Init+0x204>
 8003186:	2302      	movs	r3, #2
 8003188:	e002      	b.n	8003190 <HAL_GPIO_Init+0x204>
 800318a:	2301      	movs	r3, #1
 800318c:	e000      	b.n	8003190 <HAL_GPIO_Init+0x204>
 800318e:	2300      	movs	r3, #0
 8003190:	69fa      	ldr	r2, [r7, #28]
 8003192:	f002 0203 	and.w	r2, r2, #3
 8003196:	0092      	lsls	r2, r2, #2
 8003198:	4093      	lsls	r3, r2
 800319a:	69ba      	ldr	r2, [r7, #24]
 800319c:	4313      	orrs	r3, r2
 800319e:	61bb      	str	r3, [r7, #24]
 80031a0:	4935      	ldr	r1, [pc, #212]	@ (8003278 <HAL_GPIO_Init+0x2ec>)
 80031a2:	69fb      	ldr	r3, [r7, #28]
 80031a4:	089b      	lsrs	r3, r3, #2
 80031a6:	3302      	adds	r3, #2
 80031a8:	69ba      	ldr	r2, [r7, #24]
 80031aa:	f841 2023 	str.w	r2, [r1, r3, lsl #2]
 80031ae:	4b38      	ldr	r3, [pc, #224]	@ (8003290 <HAL_GPIO_Init+0x304>)
 80031b0:	689b      	ldr	r3, [r3, #8]
 80031b2:	61bb      	str	r3, [r7, #24]
 80031b4:	693b      	ldr	r3, [r7, #16]
 80031b6:	43db      	mvns	r3, r3
 80031b8:	69ba      	ldr	r2, [r7, #24]
 80031ba:	4013      	ands	r3, r2
 80031bc:	61bb      	str	r3, [r7, #24]
 80031be:	683b      	ldr	r3, [r7, #0]
 80031c0:	685b      	ldr	r3, [r3, #4]
 80031c2:	f403 1380 	and.w	r3, r3, #1048576	@ 0x100000
 80031c6:	2b00      	cmp	r3, #0
 80031c8:	d003      	beq.n	80031d2 <HAL_GPIO_Init+0x246>
 80031ca:	69ba      	ldr	r2, [r7, #24]
 80031cc:	693b      	ldr	r3, [r7, #16]
 80031ce:	4313      	orrs	r3, r2
 80031d0:	61bb      	str	r3, [r7, #24]
 80031d2:	4a2f      	ldr	r2, [pc, #188]	@ (8003290 <HAL_GPIO_Init+0x304>)
 80031d4:	69bb      	ldr	r3, [r7, #24]
 80031d6:	6093      	str	r3, [r2, #8]
 80031d8:	4b2d      	ldr	r3, [pc, #180]	@ (8003290 <HAL_GPIO_Init+0x304>)
 80031da:	68db      	ldr	r3, [r3, #12]
 80031dc:	61bb      	str	r3, [r7, #24]
 80031de:	693b      	ldr	r3, [r7, #16]
 80031e0:	43db      	mvns	r3, r3
 80031e2:	69ba      	ldr	r2, [r7, #24]
 80031e4:	4013      	ands	r3, r2
 80031e6:	61bb      	str	r3, [r7, #24]
 80031e8:	683b      	ldr	r3, [r7, #0]
 80031ea:	685b      	ldr	r3, [r3, #4]
 80031ec:	f403 1300 	and.w	r3, r3, #2097152	@ 0x200000
 80031f0:	2b00      	cmp	r3, #0
 80031f2:	d003      	beq.n	80031fc <HAL_GPIO_Init+0x270>
 80031f4:	69ba      	ldr	r2, [r7, #24]
 80031f6:	693b      	ldr	r3, [r7, #16]
 80031f8:	4313      	orrs	r3, r2
 80031fa:	61bb      	str	r3, [r7, #24]
 80031fc:	4a24      	ldr	r2, [pc, #144]	@ (8003290 <HAL_GPIO_Init+0x304>)
 80031fe:	69bb      	ldr	r3, [r7, #24]
 8003200:	60d3      	str	r3, [r2, #12]
 8003202:	4b23      	ldr	r3, [pc, #140]	@ (8003290 <HAL_GPIO_Init+0x304>)
 8003204:	685b      	ldr	r3, [r3, #4]
 8003206:	61bb      	str	r3, [r7, #24]
 8003208:	693b      	ldr	r3, [r7, #16]
 800320a:	43db      	mvns	r3, r3
 800320c:	69ba      	ldr	r2, [r7, #24]
 800320e:	4013      	ands	r3, r2
 8003210:	61bb      	str	r3, [r7, #24]
 8003212:	683b      	ldr	r3, [r7, #0]
 8003214:	685b      	ldr	r3, [r3, #4]
 8003216:	f403 3300 	and.w	r3, r3, #131072	@ 0x20000
 800321a:	2b00      	cmp	r3, #0
 800321c:	d003      	beq.n	8003226 <HAL_GPIO_Init+0x29a>
 800321e:	69ba      	ldr	r2, [r7, #24]
 8003220:	693b      	ldr	r3, [r7, #16]
 8003222:	4313      	orrs	r3, r2
 8003224:	61bb      	str	r3, [r7, #24]
 8003226:	4a1a      	ldr	r2, [pc, #104]	@ (8003290 <HAL_GPIO_Init+0x304>)
 8003228:	69bb      	ldr	r3, [r7, #24]
 800322a:	6053      	str	r3, [r2, #4]
 800322c:	4b18      	ldr	r3, [pc, #96]	@ (8003290 <HAL_GPIO_Init+0x304>)
 800322e:	681b      	ldr	r3, [r3, #0]
 8003230:	61bb      	str	r3, [r7, #24]
 8003232:	693b      	ldr	r3, [r7, #16]
 8003234:	43db      	mvns	r3, r3
 8003236:	69ba      	ldr	r2, [r7, #24]
 8003238:	4013      	ands	r3, r2
 800323a:	61bb      	str	r3, [r7, #24]
 800323c:	683b      	ldr	r3, [r7, #0]
 800323e:	685b      	ldr	r3, [r3, #4]
 8003240:	f403 3380 	and.w	r3, r3, #65536	@ 0x10000
 8003244:	2b00      	cmp	r3, #0
 8003246:	d003      	beq.n	8003250 <HAL_GPIO_Init+0x2c4>
 8003248:	69ba      	ldr	r2, [r7, #24]
 800324a:	693b      	ldr	r3, [r7, #16]
 800324c:	4313      	orrs	r3, r2
 800324e:	61bb      	str	r3, [r7, #24]
 8003250:	4a0f      	ldr	r2, [pc, #60]	@ (8003290 <HAL_GPIO_Init+0x304>)
 8003252:	69bb      	ldr	r3, [r7, #24]
 8003254:	6013      	str	r3, [r2, #0]
 8003256:	69fb      	ldr	r3, [r7, #28]
 8003258:	3301      	adds	r3, #1
 800325a:	61fb      	str	r3, [r7, #28]
 800325c:	69fb      	ldr	r3, [r7, #28]
 800325e:	2b0f      	cmp	r3, #15
 8003260:	f67f aea2 	bls.w	8002fa8 <HAL_GPIO_Init+0x1c>
 8003264:	bf00      	nop
 8003266:	bf00      	nop
 8003268:	3724      	adds	r7, #36	@ 0x24
 800326a:	46bd      	mov	sp, r7
 800326c:	f85d 7b04 	ldr.w	r7, [sp], #4
 8003270:	4770      	bx	lr
 8003272:	bf00      	nop
 8003274:	40023800 	.word	0x40023800
 8003278:	40013800 	.word	0x40013800
 800327c:	40020000 	.word	0x40020000
 8003280:	40020400 	.word	0x40020400
 8003284:	40020800 	.word	0x40020800
 8003288:	40020c00 	.word	0x40020c00
 800328c:	40021000 	.word	0x40021000
 8003290:	40013c00 	.word	0x40013c00

08003294 <HAL_GPIO_ReadPin>:
 8003294:	b480      	push	{r7}
 8003296:	b085      	sub	sp, #20
 8003298:	af00      	add	r7, sp, #0
 800329a:	6078      	str	r0, [r7, #4]
 800329c:	460b      	mov	r3, r1
 800329e:	807b      	strh	r3, [r7, #2]
 80032a0:	687b      	ldr	r3, [r7, #4]
 80032a2:	691a      	ldr	r2, [r3, #16]
 80032a4:	887b      	ldrh	r3, [r7, #2]
 80032a6:	4013      	ands	r3, r2
 80032a8:	2b00      	cmp	r3, #0
 80032aa:	d002      	beq.n	80032b2 <HAL_GPIO_ReadPin+0x1e>
 80032ac:	2301      	movs	r3, #1
 80032ae:	73fb      	strb	r3, [r7, #15]
 80032b0:	e001      	b.n	80032b6 <HAL_GPIO_ReadPin+0x22>
 80032b2:	2300      	movs	r3, #0
 80032b4:	73fb      	strb	r3, [r7, #15]
 80032b6:	7bfb      	ldrb	r3, [r7, #15]
 80032b8:	4618      	mov	r0, r3
 80032ba:	3714      	adds	r7, #20
 80032bc:	46bd      	mov	sp, r7
 80032be:	f85d 7b04 	ldr.w	r7, [sp], #4
 80032c2:	4770      	bx	lr

080032c4 <HAL_GPIO_WritePin>:
 80032c4:	b480      	push	{r7}
 80032c6:	b083      	sub	sp, #12
 80032c8:	af00      	add	r7, sp, #0
 80032ca:	6078      	str	r0, [r7, #4]
 80032cc:	460b      	mov	r3, r1
 80032ce:	807b      	strh	r3, [r7, #2]
 80032d0:	4613      	mov	r3, r2
 80032d2:	707b      	strb	r3, [r7, #1]
 80032d4:	787b      	ldrb	r3, [r7, #1]
 80032d6:	2b00      	cmp	r3, #0
 80032d8:	d003      	beq.n	80032e2 <HAL_GPIO_WritePin+0x1e>
 80032da:	887a      	ldrh	r2, [r7, #2]
 80032dc:	687b      	ldr	r3, [r7, #4]
 80032de:	619a      	str	r2, [r3, #24]
 80032e0:	e003      	b.n	80032ea <HAL_GPIO_WritePin+0x26>
 80032e2:	887b      	ldrh	r3, [r7, #2]
 80032e4:	041a      	lsls	r2, r3, #16
 80032e6:	687b      	ldr	r3, [r7, #4]
 80032e8:	619a      	str	r2, [r3, #24]
 80032ea:	bf00      	nop
 80032ec:	370c      	adds	r7, #12
 80032ee:	46bd      	mov	sp, r7
 80032f0:	f85d 7b04 	ldr.w	r7, [sp], #4
 80032f4:	4770      	bx	lr
	...

080032f8 <HAL_GPIO_EXTI_IRQHandler>:
 80032f8:	b580      	push	{r7, lr}
 80032fa:	b082      	sub	sp, #8
 80032fc:	af00      	add	r7, sp, #0
 80032fe:	4603      	mov	r3, r0
 8003300:	80fb      	strh	r3, [r7, #6]
 8003302:	4b08      	ldr	r3, [pc, #32]	@ (8003324 <HAL_GPIO_EXTI_IRQHandler+0x2c>)
 8003304:	695a      	ldr	r2, [r3, #20]
 8003306:	88fb      	ldrh	r3, [r7, #6]
 8003308:	4013      	ands	r3, r2
 800330a:	2b00      	cmp	r3, #0
 800330c:	d006      	beq.n	800331c <HAL_GPIO_EXTI_IRQHandler+0x24>
 800330e:	4a05      	ldr	r2, [pc, #20]	@ (8003324 <HAL_GPIO_EXTI_IRQHandler+0x2c>)
 8003310:	88fb      	ldrh	r3, [r7, #6]
 8003312:	6153      	str	r3, [r2, #20]
 8003314:	88fb      	ldrh	r3, [r7, #6]
 8003316:	4618      	mov	r0, r3
 8003318:	f7fe fb46 	bl	80019a8 <HAL_GPIO_EXTI_Callback>
 800331c:	bf00      	nop
 800331e:	3708      	adds	r7, #8
 8003320:	46bd      	mov	sp, r7
 8003322:	bd80      	pop	{r7, pc}
 8003324:	40013c00 	.word	0x40013c00

08003328 <HAL_I2C_Init>:
 8003328:	b580      	push	{r7, lr}
 800332a:	b084      	sub	sp, #16
 800332c:	af00      	add	r7, sp, #0
 800332e:	6078      	str	r0, [r7, #4]
 8003330:	687b      	ldr	r3, [r7, #4]
 8003332:	2b00      	cmp	r3, #0
 8003334:	d101      	bne.n	800333a <HAL_I2C_Init+0x12>
 8003336:	2301      	movs	r3, #1
 8003338:	e12b      	b.n	8003592 <HAL_I2C_Init+0x26a>
 800333a:	687b      	ldr	r3, [r7, #4]
 800333c:	f893 303d 	ldrb.w	r3, [r3, #61]	@ 0x3d
 8003340:	b2db      	uxtb	r3, r3
 8003342:	2b00      	cmp	r3, #0
 8003344:	d106      	bne.n	8003354 <HAL_I2C_Init+0x2c>
 8003346:	687b      	ldr	r3, [r7, #4]
 8003348:	2200      	movs	r2, #0
 800334a:	f883 203c 	strb.w	r2, [r3, #60]	@ 0x3c
 800334e:	6878      	ldr	r0, [r7, #4]
 8003350:	f7fe f988 	bl	8001664 <HAL_I2C_MspInit>
 8003354:	687b      	ldr	r3, [r7, #4]
 8003356:	2224      	movs	r2, #36	@ 0x24
 8003358:	f883 203d 	strb.w	r2, [r3, #61]	@ 0x3d
 800335c:	687b      	ldr	r3, [r7, #4]
 800335e:	681b      	ldr	r3, [r3, #0]
 8003360:	681a      	ldr	r2, [r3, #0]
 8003362:	687b      	ldr	r3, [r7, #4]
 8003364:	681b      	ldr	r3, [r3, #0]
 8003366:	f022 0201 	bic.w	r2, r2, #1
 800336a:	601a      	str	r2, [r3, #0]
 800336c:	687b      	ldr	r3, [r7, #4]
 800336e:	681b      	ldr	r3, [r3, #0]
 8003370:	681a      	ldr	r2, [r3, #0]
 8003372:	687b      	ldr	r3, [r7, #4]
 8003374:	681b      	ldr	r3, [r3, #0]
 8003376:	f442 4200 	orr.w	r2, r2, #32768	@ 0x8000
 800337a:	601a      	str	r2, [r3, #0]
 800337c:	687b      	ldr	r3, [r7, #4]
 800337e:	681b      	ldr	r3, [r3, #0]
 8003380:	681a      	ldr	r2, [r3, #0]
 8003382:	687b      	ldr	r3, [r7, #4]
 8003384:	681b      	ldr	r3, [r3, #0]
 8003386:	f422 4200 	bic.w	r2, r2, #32768	@ 0x8000
 800338a:	601a      	str	r2, [r3, #0]
 800338c:	f000 fd80 	bl	8003e90 <HAL_RCC_GetPCLK1Freq>
 8003390:	60f8      	str	r0, [r7, #12]
 8003392:	687b      	ldr	r3, [r7, #4]
 8003394:	685b      	ldr	r3, [r3, #4]
 8003396:	4a81      	ldr	r2, [pc, #516]	@ (800359c <HAL_I2C_Init+0x274>)
 8003398:	4293      	cmp	r3, r2
 800339a:	d807      	bhi.n	80033ac <HAL_I2C_Init+0x84>
 800339c:	68fb      	ldr	r3, [r7, #12]
 800339e:	4a80      	ldr	r2, [pc, #512]	@ (80035a0 <HAL_I2C_Init+0x278>)
 80033a0:	4293      	cmp	r3, r2
 80033a2:	bf94      	ite	ls
 80033a4:	2301      	movls	r3, #1
 80033a6:	2300      	movhi	r3, #0
 80033a8:	b2db      	uxtb	r3, r3
 80033aa:	e006      	b.n	80033ba <HAL_I2C_Init+0x92>
 80033ac:	68fb      	ldr	r3, [r7, #12]
 80033ae:	4a7d      	ldr	r2, [pc, #500]	@ (80035a4 <HAL_I2C_Init+0x27c>)
 80033b0:	4293      	cmp	r3, r2
 80033b2:	bf94      	ite	ls
 80033b4:	2301      	movls	r3, #1
 80033b6:	2300      	movhi	r3, #0
 80033b8:	b2db      	uxtb	r3, r3
 80033ba:	2b00      	cmp	r3, #0
 80033bc:	d001      	beq.n	80033c2 <HAL_I2C_Init+0x9a>
 80033be:	2301      	movs	r3, #1
 80033c0:	e0e7      	b.n	8003592 <HAL_I2C_Init+0x26a>
 80033c2:	68fb      	ldr	r3, [r7, #12]
 80033c4:	4a78      	ldr	r2, [pc, #480]	@ (80035a8 <HAL_I2C_Init+0x280>)
 80033c6:	fba2 2303 	umull	r2, r3, r2, r3
 80033ca:	0c9b      	lsrs	r3, r3, #18
 80033cc:	60bb      	str	r3, [r7, #8]
 80033ce:	687b      	ldr	r3, [r7, #4]
 80033d0:	681b      	ldr	r3, [r3, #0]
 80033d2:	685b      	ldr	r3, [r3, #4]
 80033d4:	f023 013f 	bic.w	r1, r3, #63	@ 0x3f
 80033d8:	687b      	ldr	r3, [r7, #4]
 80033da:	681b      	ldr	r3, [r3, #0]
 80033dc:	68ba      	ldr	r2, [r7, #8]
 80033de:	430a      	orrs	r2, r1
 80033e0:	605a      	str	r2, [r3, #4]
 80033e2:	687b      	ldr	r3, [r7, #4]
 80033e4:	681b      	ldr	r3, [r3, #0]
 80033e6:	6a1b      	ldr	r3, [r3, #32]
 80033e8:	f023 013f 	bic.w	r1, r3, #63	@ 0x3f
 80033ec:	687b      	ldr	r3, [r7, #4]
 80033ee:	685b      	ldr	r3, [r3, #4]
 80033f0:	4a6a      	ldr	r2, [pc, #424]	@ (800359c <HAL_I2C_Init+0x274>)
 80033f2:	4293      	cmp	r3, r2
 80033f4:	d802      	bhi.n	80033fc <HAL_I2C_Init+0xd4>
 80033f6:	68bb      	ldr	r3, [r7, #8]
 80033f8:	3301      	adds	r3, #1
 80033fa:	e009      	b.n	8003410 <HAL_I2C_Init+0xe8>
 80033fc:	68bb      	ldr	r3, [r7, #8]
 80033fe:	f44f 7296 	mov.w	r2, #300	@ 0x12c
 8003402:	fb02 f303 	mul.w	r3, r2, r3
 8003406:	4a69      	ldr	r2, [pc, #420]	@ (80035ac <HAL_I2C_Init+0x284>)
 8003408:	fba2 2303 	umull	r2, r3, r2, r3
 800340c:	099b      	lsrs	r3, r3, #6
 800340e:	3301      	adds	r3, #1
 8003410:	687a      	ldr	r2, [r7, #4]
 8003412:	6812      	ldr	r2, [r2, #0]
 8003414:	430b      	orrs	r3, r1
 8003416:	6213      	str	r3, [r2, #32]
 8003418:	687b      	ldr	r3, [r7, #4]
 800341a:	681b      	ldr	r3, [r3, #0]
 800341c:	69db      	ldr	r3, [r3, #28]
 800341e:	f423 424f 	bic.w	r2, r3, #52992	@ 0xcf00
 8003422:	f022 02ff 	bic.w	r2, r2, #255	@ 0xff
 8003426:	687b      	ldr	r3, [r7, #4]
 8003428:	685b      	ldr	r3, [r3, #4]
 800342a:	495c      	ldr	r1, [pc, #368]	@ (800359c <HAL_I2C_Init+0x274>)
 800342c:	428b      	cmp	r3, r1
 800342e:	d819      	bhi.n	8003464 <HAL_I2C_Init+0x13c>
 8003430:	68fb      	ldr	r3, [r7, #12]
 8003432:	1e59      	subs	r1, r3, #1
 8003434:	687b      	ldr	r3, [r7, #4]
 8003436:	685b      	ldr	r3, [r3, #4]
 8003438:	005b      	lsls	r3, r3, #1
 800343a:	fbb1 f3f3 	udiv	r3, r1, r3
 800343e:	1c59      	adds	r1, r3, #1
 8003440:	f640 73fc 	movw	r3, #4092	@ 0xffc
 8003444:	400b      	ands	r3, r1
 8003446:	2b00      	cmp	r3, #0
 8003448:	d00a      	beq.n	8003460 <HAL_I2C_Init+0x138>
 800344a:	68fb      	ldr	r3, [r7, #12]
 800344c:	1e59      	subs	r1, r3, #1
 800344e:	687b      	ldr	r3, [r7, #4]
 8003450:	685b      	ldr	r3, [r3, #4]
 8003452:	005b      	lsls	r3, r3, #1
 8003454:	fbb1 f3f3 	udiv	r3, r1, r3
 8003458:	3301      	adds	r3, #1
 800345a:	f3c3 030b 	ubfx	r3, r3, #0, #12
 800345e:	e051      	b.n	8003504 <HAL_I2C_Init+0x1dc>
 8003460:	2304      	movs	r3, #4
 8003462:	e04f      	b.n	8003504 <HAL_I2C_Init+0x1dc>
 8003464:	687b      	ldr	r3, [r7, #4]
 8003466:	689b      	ldr	r3, [r3, #8]
 8003468:	2b00      	cmp	r3, #0
 800346a:	d111      	bne.n	8003490 <HAL_I2C_Init+0x168>
 800346c:	68fb      	ldr	r3, [r7, #12]
 800346e:	1e58      	subs	r0, r3, #1
 8003470:	687b      	ldr	r3, [r7, #4]
 8003472:	6859      	ldr	r1, [r3, #4]
 8003474:	460b      	mov	r3, r1
 8003476:	005b      	lsls	r3, r3, #1
 8003478:	440b      	add	r3, r1
 800347a:	fbb0 f3f3 	udiv	r3, r0, r3
 800347e:	3301      	adds	r3, #1
 8003480:	f3c3 030b 	ubfx	r3, r3, #0, #12
 8003484:	2b00      	cmp	r3, #0
 8003486:	bf0c      	ite	eq
 8003488:	2301      	moveq	r3, #1
 800348a:	2300      	movne	r3, #0
 800348c:	b2db      	uxtb	r3, r3
 800348e:	e012      	b.n	80034b6 <HAL_I2C_Init+0x18e>
 8003490:	68fb      	ldr	r3, [r7, #12]
 8003492:	1e58      	subs	r0, r3, #1
 8003494:	687b      	ldr	r3, [r7, #4]
 8003496:	6859      	ldr	r1, [r3, #4]
 8003498:	460b      	mov	r3, r1
 800349a:	009b      	lsls	r3, r3, #2
 800349c:	440b      	add	r3, r1
 800349e:	0099      	lsls	r1, r3, #2
 80034a0:	440b      	add	r3, r1
 80034a2:	fbb0 f3f3 	udiv	r3, r0, r3
 80034a6:	3301      	adds	r3, #1
 80034a8:	f3c3 030b 	ubfx	r3, r3, #0, #12
 80034ac:	2b00      	cmp	r3, #0
 80034ae:	bf0c      	ite	eq
 80034b0:	2301      	moveq	r3, #1
 80034b2:	2300      	movne	r3, #0
 80034b4:	b2db      	uxtb	r3, r3
 80034b6:	2b00      	cmp	r3, #0
 80034b8:	d001      	beq.n	80034be <HAL_I2C_Init+0x196>
 80034ba:	2301      	movs	r3, #1
 80034bc:	e022      	b.n	8003504 <HAL_I2C_Init+0x1dc>
 80034be:	687b      	ldr	r3, [r7, #4]
 80034c0:	689b      	ldr	r3, [r3, #8]
 80034c2:	2b00      	cmp	r3, #0
 80034c4:	d10e      	bne.n	80034e4 <HAL_I2C_Init+0x1bc>
 80034c6:	68fb      	ldr	r3, [r7, #12]
 80034c8:	1e58      	subs	r0, r3, #1
 80034ca:	687b      	ldr	r3, [r7, #4]
 80034cc:	6859      	ldr	r1, [r3, #4]
 80034ce:	460b      	mov	r3, r1
 80034d0:	005b      	lsls	r3, r3, #1
 80034d2:	440b      	add	r3, r1
 80034d4:	fbb0 f3f3 	udiv	r3, r0, r3
 80034d8:	3301      	adds	r3, #1
 80034da:	f3c3 030b 	ubfx	r3, r3, #0, #12
 80034de:	f443 4300 	orr.w	r3, r3, #32768	@ 0x8000
 80034e2:	e00f      	b.n	8003504 <HAL_I2C_Init+0x1dc>
 80034e4:	68fb      	ldr	r3, [r7, #12]
 80034e6:	1e58      	subs	r0, r3, #1
 80034e8:	687b      	ldr	r3, [r7, #4]
 80034ea:	6859      	ldr	r1, [r3, #4]
 80034ec:	460b      	mov	r3, r1
 80034ee:	009b      	lsls	r3, r3, #2
 80034f0:	440b      	add	r3, r1
 80034f2:	0099      	lsls	r1, r3, #2
 80034f4:	440b      	add	r3, r1
 80034f6:	fbb0 f3f3 	udiv	r3, r0, r3
 80034fa:	3301      	adds	r3, #1
 80034fc:	f3c3 030b 	ubfx	r3, r3, #0, #12
 8003500:	f443 4340 	orr.w	r3, r3, #49152	@ 0xc000
 8003504:	6879      	ldr	r1, [r7, #4]
 8003506:	6809      	ldr	r1, [r1, #0]
 8003508:	4313      	orrs	r3, r2
 800350a:	61cb      	str	r3, [r1, #28]
 800350c:	687b      	ldr	r3, [r7, #4]
 800350e:	681b      	ldr	r3, [r3, #0]
 8003510:	681b      	ldr	r3, [r3, #0]
 8003512:	f023 01c0 	bic.w	r1, r3, #192	@ 0xc0
 8003516:	687b      	ldr	r3, [r7, #4]
 8003518:	69da      	ldr	r2, [r3, #28]
 800351a:	687b      	ldr	r3, [r7, #4]
 800351c:	6a1b      	ldr	r3, [r3, #32]
 800351e:	431a      	orrs	r2, r3
 8003520:	687b      	ldr	r3, [r7, #4]
 8003522:	681b      	ldr	r3, [r3, #0]
 8003524:	430a      	orrs	r2, r1
 8003526:	601a      	str	r2, [r3, #0]
 8003528:	687b      	ldr	r3, [r7, #4]
 800352a:	681b      	ldr	r3, [r3, #0]
 800352c:	689b      	ldr	r3, [r3, #8]
 800352e:	f423 4303 	bic.w	r3, r3, #33536	@ 0x8300
 8003532:	f023 03ff 	bic.w	r3, r3, #255	@ 0xff
 8003536:	687a      	ldr	r2, [r7, #4]
 8003538:	6911      	ldr	r1, [r2, #16]
 800353a:	687a      	ldr	r2, [r7, #4]
 800353c:	68d2      	ldr	r2, [r2, #12]
 800353e:	4311      	orrs	r1, r2
 8003540:	687a      	ldr	r2, [r7, #4]
 8003542:	6812      	ldr	r2, [r2, #0]
 8003544:	430b      	orrs	r3, r1
 8003546:	6093      	str	r3, [r2, #8]
 8003548:	687b      	ldr	r3, [r7, #4]
 800354a:	681b      	ldr	r3, [r3, #0]
 800354c:	68db      	ldr	r3, [r3, #12]
 800354e:	f023 01ff 	bic.w	r1, r3, #255	@ 0xff
 8003552:	687b      	ldr	r3, [r7, #4]
 8003554:	695a      	ldr	r2, [r3, #20]
 8003556:	687b      	ldr	r3, [r7, #4]
 8003558:	699b      	ldr	r3, [r3, #24]
 800355a:	431a      	orrs	r2, r3
 800355c:	687b      	ldr	r3, [r7, #4]
 800355e:	681b      	ldr	r3, [r3, #0]
 8003560:	430a      	orrs	r2, r1
 8003562:	60da      	str	r2, [r3, #12]
 8003564:	687b      	ldr	r3, [r7, #4]
 8003566:	681b      	ldr	r3, [r3, #0]
 8003568:	681a      	ldr	r2, [r3, #0]
 800356a:	687b      	ldr	r3, [r7, #4]
 800356c:	681b      	ldr	r3, [r3, #0]
 800356e:	f042 0201 	orr.w	r2, r2, #1
 8003572:	601a      	str	r2, [r3, #0]
 8003574:	687b      	ldr	r3, [r7, #4]
 8003576:	2200      	movs	r2, #0
 8003578:	641a      	str	r2, [r3, #64]	@ 0x40
 800357a:	687b      	ldr	r3, [r7, #4]
 800357c:	2220      	movs	r2, #32
 800357e:	f883 203d 	strb.w	r2, [r3, #61]	@ 0x3d
 8003582:	687b      	ldr	r3, [r7, #4]
 8003584:	2200      	movs	r2, #0
 8003586:	631a      	str	r2, [r3, #48]	@ 0x30
 8003588:	687b      	ldr	r3, [r7, #4]
 800358a:	2200      	movs	r2, #0
 800358c:	f883 203e 	strb.w	r2, [r3, #62]	@ 0x3e
 8003590:	2300      	movs	r3, #0
 8003592:	4618      	mov	r0, r3
 8003594:	3710      	adds	r7, #16
 8003596:	46bd      	mov	sp, r7
 8003598:	bd80      	pop	{r7, pc}
 800359a:	bf00      	nop
 800359c:	000186a0 	.word	0x000186a0
 80035a0:	001e847f 	.word	0x001e847f
 80035a4:	003d08ff 	.word	0x003d08ff
 80035a8:	431bde83 	.word	0x431bde83
 80035ac:	10624dd3 	.word	0x10624dd3

080035b0 <HAL_RCC_OscConfig>:
 80035b0:	b580      	push	{r7, lr}
 80035b2:	b086      	sub	sp, #24
 80035b4:	af00      	add	r7, sp, #0
 80035b6:	6078      	str	r0, [r7, #4]
 80035b8:	687b      	ldr	r3, [r7, #4]
 80035ba:	2b00      	cmp	r3, #0
 80035bc:	d101      	bne.n	80035c2 <HAL_RCC_OscConfig+0x12>
 80035be:	2301      	movs	r3, #1
 80035c0:	e267      	b.n	8003a92 <HAL_RCC_OscConfig+0x4e2>
 80035c2:	687b      	ldr	r3, [r7, #4]
 80035c4:	681b      	ldr	r3, [r3, #0]
 80035c6:	f003 0301 	and.w	r3, r3, #1
 80035ca:	2b00      	cmp	r3, #0
 80035cc:	d075      	beq.n	80036ba <HAL_RCC_OscConfig+0x10a>
 80035ce:	4b88      	ldr	r3, [pc, #544]	@ (80037f0 <HAL_RCC_OscConfig+0x240>)
 80035d0:	689b      	ldr	r3, [r3, #8]
 80035d2:	f003 030c 	and.w	r3, r3, #12
 80035d6:	2b04      	cmp	r3, #4
 80035d8:	d00c      	beq.n	80035f4 <HAL_RCC_OscConfig+0x44>
 80035da:	4b85      	ldr	r3, [pc, #532]	@ (80037f0 <HAL_RCC_OscConfig+0x240>)
 80035dc:	689b      	ldr	r3, [r3, #8]
 80035de:	f003 030c 	and.w	r3, r3, #12
 80035e2:	2b08      	cmp	r3, #8
 80035e4:	d112      	bne.n	800360c <HAL_RCC_OscConfig+0x5c>
 80035e6:	4b82      	ldr	r3, [pc, #520]	@ (80037f0 <HAL_RCC_OscConfig+0x240>)
 80035e8:	685b      	ldr	r3, [r3, #4]
 80035ea:	f403 0380 	and.w	r3, r3, #4194304	@ 0x400000
 80035ee:	f5b3 0f80 	cmp.w	r3, #4194304	@ 0x400000
 80035f2:	d10b      	bne.n	800360c <HAL_RCC_OscConfig+0x5c>
 80035f4:	4b7e      	ldr	r3, [pc, #504]	@ (80037f0 <HAL_RCC_OscConfig+0x240>)
 80035f6:	681b      	ldr	r3, [r3, #0]
 80035f8:	f403 3300 	and.w	r3, r3, #131072	@ 0x20000
 80035fc:	2b00      	cmp	r3, #0
 80035fe:	d05b      	beq.n	80036b8 <HAL_RCC_OscConfig+0x108>
 8003600:	687b      	ldr	r3, [r7, #4]
 8003602:	685b      	ldr	r3, [r3, #4]
 8003604:	2b00      	cmp	r3, #0
 8003606:	d157      	bne.n	80036b8 <HAL_RCC_OscConfig+0x108>
 8003608:	2301      	movs	r3, #1
 800360a:	e242      	b.n	8003a92 <HAL_RCC_OscConfig+0x4e2>
 800360c:	687b      	ldr	r3, [r7, #4]
 800360e:	685b      	ldr	r3, [r3, #4]
 8003610:	f5b3 3f80 	cmp.w	r3, #65536	@ 0x10000
 8003614:	d106      	bne.n	8003624 <HAL_RCC_OscConfig+0x74>
 8003616:	4b76      	ldr	r3, [pc, #472]	@ (80037f0 <HAL_RCC_OscConfig+0x240>)
 8003618:	681b      	ldr	r3, [r3, #0]
 800361a:	4a75      	ldr	r2, [pc, #468]	@ (80037f0 <HAL_RCC_OscConfig+0x240>)
 800361c:	f443 3380 	orr.w	r3, r3, #65536	@ 0x10000
 8003620:	6013      	str	r3, [r2, #0]
 8003622:	e01d      	b.n	8003660 <HAL_RCC_OscConfig+0xb0>
 8003624:	687b      	ldr	r3, [r7, #4]
 8003626:	685b      	ldr	r3, [r3, #4]
 8003628:	f5b3 2fa0 	cmp.w	r3, #327680	@ 0x50000
 800362c:	d10c      	bne.n	8003648 <HAL_RCC_OscConfig+0x98>
 800362e:	4b70      	ldr	r3, [pc, #448]	@ (80037f0 <HAL_RCC_OscConfig+0x240>)
 8003630:	681b      	ldr	r3, [r3, #0]
 8003632:	4a6f      	ldr	r2, [pc, #444]	@ (80037f0 <HAL_RCC_OscConfig+0x240>)
 8003634:	f443 2380 	orr.w	r3, r3, #262144	@ 0x40000
 8003638:	6013      	str	r3, [r2, #0]
 800363a:	4b6d      	ldr	r3, [pc, #436]	@ (80037f0 <HAL_RCC_OscConfig+0x240>)
 800363c:	681b      	ldr	r3, [r3, #0]
 800363e:	4a6c      	ldr	r2, [pc, #432]	@ (80037f0 <HAL_RCC_OscConfig+0x240>)
 8003640:	f443 3380 	orr.w	r3, r3, #65536	@ 0x10000
 8003644:	6013      	str	r3, [r2, #0]
 8003646:	e00b      	b.n	8003660 <HAL_RCC_OscConfig+0xb0>
 8003648:	4b69      	ldr	r3, [pc, #420]	@ (80037f0 <HAL_RCC_OscConfig+0x240>)
 800364a:	681b      	ldr	r3, [r3, #0]
 800364c:	4a68      	ldr	r2, [pc, #416]	@ (80037f0 <HAL_RCC_OscConfig+0x240>)
 800364e:	f423 3380 	bic.w	r3, r3, #65536	@ 0x10000
 8003652:	6013      	str	r3, [r2, #0]
 8003654:	4b66      	ldr	r3, [pc, #408]	@ (80037f0 <HAL_RCC_OscConfig+0x240>)
 8003656:	681b      	ldr	r3, [r3, #0]
 8003658:	4a65      	ldr	r2, [pc, #404]	@ (80037f0 <HAL_RCC_OscConfig+0x240>)
 800365a:	f423 2380 	bic.w	r3, r3, #262144	@ 0x40000
 800365e:	6013      	str	r3, [r2, #0]
 8003660:	687b      	ldr	r3, [r7, #4]
 8003662:	685b      	ldr	r3, [r3, #4]
 8003664:	2b00      	cmp	r3, #0
 8003666:	d013      	beq.n	8003690 <HAL_RCC_OscConfig+0xe0>
 8003668:	f7ff fae0 	bl	8002c2c <HAL_GetTick>
 800366c:	6138      	str	r0, [r7, #16]
 800366e:	e008      	b.n	8003682 <HAL_RCC_OscConfig+0xd2>
 8003670:	f7ff fadc 	bl	8002c2c <HAL_GetTick>
 8003674:	4602      	mov	r2, r0
 8003676:	693b      	ldr	r3, [r7, #16]
 8003678:	1ad3      	subs	r3, r2, r3
 800367a:	2b64      	cmp	r3, #100	@ 0x64
 800367c:	d901      	bls.n	8003682 <HAL_RCC_OscConfig+0xd2>
 800367e:	2303      	movs	r3, #3
 8003680:	e207      	b.n	8003a92 <HAL_RCC_OscConfig+0x4e2>
 8003682:	4b5b      	ldr	r3, [pc, #364]	@ (80037f0 <HAL_RCC_OscConfig+0x240>)
 8003684:	681b      	ldr	r3, [r3, #0]
 8003686:	f403 3300 	and.w	r3, r3, #131072	@ 0x20000
 800368a:	2b00      	cmp	r3, #0
 800368c:	d0f0      	beq.n	8003670 <HAL_RCC_OscConfig+0xc0>
 800368e:	e014      	b.n	80036ba <HAL_RCC_OscConfig+0x10a>
 8003690:	f7ff facc 	bl	8002c2c <HAL_GetTick>
 8003694:	6138      	str	r0, [r7, #16]
 8003696:	e008      	b.n	80036aa <HAL_RCC_OscConfig+0xfa>
 8003698:	f7ff fac8 	bl	8002c2c <HAL_GetTick>
 800369c:	4602      	mov	r2, r0
 800369e:	693b      	ldr	r3, [r7, #16]
 80036a0:	1ad3      	subs	r3, r2, r3
 80036a2:	2b64      	cmp	r3, #100	@ 0x64
 80036a4:	d901      	bls.n	80036aa <HAL_RCC_OscConfig+0xfa>
 80036a6:	2303      	movs	r3, #3
 80036a8:	e1f3      	b.n	8003a92 <HAL_RCC_OscConfig+0x4e2>
 80036aa:	4b51      	ldr	r3, [pc, #324]	@ (80037f0 <HAL_RCC_OscConfig+0x240>)
 80036ac:	681b      	ldr	r3, [r3, #0]
 80036ae:	f403 3300 	and.w	r3, r3, #131072	@ 0x20000
 80036b2:	2b00      	cmp	r3, #0
 80036b4:	d1f0      	bne.n	8003698 <HAL_RCC_OscConfig+0xe8>
 80036b6:	e000      	b.n	80036ba <HAL_RCC_OscConfig+0x10a>
 80036b8:	bf00      	nop
 80036ba:	687b      	ldr	r3, [r7, #4]
 80036bc:	681b      	ldr	r3, [r3, #0]
 80036be:	f003 0302 	and.w	r3, r3, #2
 80036c2:	2b00      	cmp	r3, #0
 80036c4:	d063      	beq.n	800378e <HAL_RCC_OscConfig+0x1de>
 80036c6:	4b4a      	ldr	r3, [pc, #296]	@ (80037f0 <HAL_RCC_OscConfig+0x240>)
 80036c8:	689b      	ldr	r3, [r3, #8]
 80036ca:	f003 030c 	and.w	r3, r3, #12
 80036ce:	2b00      	cmp	r3, #0
 80036d0:	d00b      	beq.n	80036ea <HAL_RCC_OscConfig+0x13a>
 80036d2:	4b47      	ldr	r3, [pc, #284]	@ (80037f0 <HAL_RCC_OscConfig+0x240>)
 80036d4:	689b      	ldr	r3, [r3, #8]
 80036d6:	f003 030c 	and.w	r3, r3, #12
 80036da:	2b08      	cmp	r3, #8
 80036dc:	d11c      	bne.n	8003718 <HAL_RCC_OscConfig+0x168>
 80036de:	4b44      	ldr	r3, [pc, #272]	@ (80037f0 <HAL_RCC_OscConfig+0x240>)
 80036e0:	685b      	ldr	r3, [r3, #4]
 80036e2:	f403 0380 	and.w	r3, r3, #4194304	@ 0x400000
 80036e6:	2b00      	cmp	r3, #0
 80036e8:	d116      	bne.n	8003718 <HAL_RCC_OscConfig+0x168>
 80036ea:	4b41      	ldr	r3, [pc, #260]	@ (80037f0 <HAL_RCC_OscConfig+0x240>)
 80036ec:	681b      	ldr	r3, [r3, #0]
 80036ee:	f003 0302 	and.w	r3, r3, #2
 80036f2:	2b00      	cmp	r3, #0
 80036f4:	d005      	beq.n	8003702 <HAL_RCC_OscConfig+0x152>
 80036f6:	687b      	ldr	r3, [r7, #4]
 80036f8:	68db      	ldr	r3, [r3, #12]
 80036fa:	2b01      	cmp	r3, #1
 80036fc:	d001      	beq.n	8003702 <HAL_RCC_OscConfig+0x152>
 80036fe:	2301      	movs	r3, #1
 8003700:	e1c7      	b.n	8003a92 <HAL_RCC_OscConfig+0x4e2>
 8003702:	4b3b      	ldr	r3, [pc, #236]	@ (80037f0 <HAL_RCC_OscConfig+0x240>)
 8003704:	681b      	ldr	r3, [r3, #0]
 8003706:	f023 02f8 	bic.w	r2, r3, #248	@ 0xf8
 800370a:	687b      	ldr	r3, [r7, #4]
 800370c:	691b      	ldr	r3, [r3, #16]
 800370e:	00db      	lsls	r3, r3, #3
 8003710:	4937      	ldr	r1, [pc, #220]	@ (80037f0 <HAL_RCC_OscConfig+0x240>)
 8003712:	4313      	orrs	r3, r2
 8003714:	600b      	str	r3, [r1, #0]
 8003716:	e03a      	b.n	800378e <HAL_RCC_OscConfig+0x1de>
 8003718:	687b      	ldr	r3, [r7, #4]
 800371a:	68db      	ldr	r3, [r3, #12]
 800371c:	2b00      	cmp	r3, #0
 800371e:	d020      	beq.n	8003762 <HAL_RCC_OscConfig+0x1b2>
 8003720:	4b34      	ldr	r3, [pc, #208]	@ (80037f4 <HAL_RCC_OscConfig+0x244>)
 8003722:	2201      	movs	r2, #1
 8003724:	601a      	str	r2, [r3, #0]
 8003726:	f7ff fa81 	bl	8002c2c <HAL_GetTick>
 800372a:	6138      	str	r0, [r7, #16]
 800372c:	e008      	b.n	8003740 <HAL_RCC_OscConfig+0x190>
 800372e:	f7ff fa7d 	bl	8002c2c <HAL_GetTick>
 8003732:	4602      	mov	r2, r0
 8003734:	693b      	ldr	r3, [r7, #16]
 8003736:	1ad3      	subs	r3, r2, r3
 8003738:	2b02      	cmp	r3, #2
 800373a:	d901      	bls.n	8003740 <HAL_RCC_OscConfig+0x190>
 800373c:	2303      	movs	r3, #3
 800373e:	e1a8      	b.n	8003a92 <HAL_RCC_OscConfig+0x4e2>
 8003740:	4b2b      	ldr	r3, [pc, #172]	@ (80037f0 <HAL_RCC_OscConfig+0x240>)
 8003742:	681b      	ldr	r3, [r3, #0]
 8003744:	f003 0302 	and.w	r3, r3, #2
 8003748:	2b00      	cmp	r3, #0
 800374a:	d0f0      	beq.n	800372e <HAL_RCC_OscConfig+0x17e>
 800374c:	4b28      	ldr	r3, [pc, #160]	@ (80037f0 <HAL_RCC_OscConfig+0x240>)
 800374e:	681b      	ldr	r3, [r3, #0]
 8003750:	f023 02f8 	bic.w	r2, r3, #248	@ 0xf8
 8003754:	687b      	ldr	r3, [r7, #4]
 8003756:	691b      	ldr	r3, [r3, #16]
 8003758:	00db      	lsls	r3, r3, #3
 800375a:	4925      	ldr	r1, [pc, #148]	@ (80037f0 <HAL_RCC_OscConfig+0x240>)
 800375c:	4313      	orrs	r3, r2
 800375e:	600b      	str	r3, [r1, #0]
 8003760:	e015      	b.n	800378e <HAL_RCC_OscConfig+0x1de>
 8003762:	4b24      	ldr	r3, [pc, #144]	@ (80037f4 <HAL_RCC_OscConfig+0x244>)
 8003764:	2200      	movs	r2, #0
 8003766:	601a      	str	r2, [r3, #0]
 8003768:	f7ff fa60 	bl	8002c2c <HAL_GetTick>
 800376c:	6138      	str	r0, [r7, #16]
 800376e:	e008      	b.n	8003782 <HAL_RCC_OscConfig+0x1d2>
 8003770:	f7ff fa5c 	bl	8002c2c <HAL_GetTick>
 8003774:	4602      	mov	r2, r0
 8003776:	693b      	ldr	r3, [r7, #16]
 8003778:	1ad3      	subs	r3, r2, r3
 800377a:	2b02      	cmp	r3, #2
 800377c:	d901      	bls.n	8003782 <HAL_RCC_OscConfig+0x1d2>
 800377e:	2303      	movs	r3, #3
 8003780:	e187      	b.n	8003a92 <HAL_RCC_OscConfig+0x4e2>
 8003782:	4b1b      	ldr	r3, [pc, #108]	@ (80037f0 <HAL_RCC_OscConfig+0x240>)
 8003784:	681b      	ldr	r3, [r3, #0]
 8003786:	f003 0302 	and.w	r3, r3, #2
 800378a:	2b00      	cmp	r3, #0
 800378c:	d1f0      	bne.n	8003770 <HAL_RCC_OscConfig+0x1c0>
 800378e:	687b      	ldr	r3, [r7, #4]
 8003790:	681b      	ldr	r3, [r3, #0]
 8003792:	f003 0308 	and.w	r3, r3, #8
 8003796:	2b00      	cmp	r3, #0
 8003798:	d036      	beq.n	8003808 <HAL_RCC_OscConfig+0x258>
 800379a:	687b      	ldr	r3, [r7, #4]
 800379c:	695b      	ldr	r3, [r3, #20]
 800379e:	2b00      	cmp	r3, #0
 80037a0:	d016      	beq.n	80037d0 <HAL_RCC_OscConfig+0x220>
 80037a2:	4b15      	ldr	r3, [pc, #84]	@ (80037f8 <HAL_RCC_OscConfig+0x248>)
 80037a4:	2201      	movs	r2, #1
 80037a6:	601a      	str	r2, [r3, #0]
 80037a8:	f7ff fa40 	bl	8002c2c <HAL_GetTick>
 80037ac:	6138      	str	r0, [r7, #16]
 80037ae:	e008      	b.n	80037c2 <HAL_RCC_OscConfig+0x212>
 80037b0:	f7ff fa3c 	bl	8002c2c <HAL_GetTick>
 80037b4:	4602      	mov	r2, r0
 80037b6:	693b      	ldr	r3, [r7, #16]
 80037b8:	1ad3      	subs	r3, r2, r3
 80037ba:	2b02      	cmp	r3, #2
 80037bc:	d901      	bls.n	80037c2 <HAL_RCC_OscConfig+0x212>
 80037be:	2303      	movs	r3, #3
 80037c0:	e167      	b.n	8003a92 <HAL_RCC_OscConfig+0x4e2>
 80037c2:	4b0b      	ldr	r3, [pc, #44]	@ (80037f0 <HAL_RCC_OscConfig+0x240>)
 80037c4:	6f5b      	ldr	r3, [r3, #116]	@ 0x74
 80037c6:	f003 0302 	and.w	r3, r3, #2
 80037ca:	2b00      	cmp	r3, #0
 80037cc:	d0f0      	beq.n	80037b0 <HAL_RCC_OscConfig+0x200>
 80037ce:	e01b      	b.n	8003808 <HAL_RCC_OscConfig+0x258>
 80037d0:	4b09      	ldr	r3, [pc, #36]	@ (80037f8 <HAL_RCC_OscConfig+0x248>)
 80037d2:	2200      	movs	r2, #0
 80037d4:	601a      	str	r2, [r3, #0]
 80037d6:	f7ff fa29 	bl	8002c2c <HAL_GetTick>
 80037da:	6138      	str	r0, [r7, #16]
 80037dc:	e00e      	b.n	80037fc <HAL_RCC_OscConfig+0x24c>
 80037de:	f7ff fa25 	bl	8002c2c <HAL_GetTick>
 80037e2:	4602      	mov	r2, r0
 80037e4:	693b      	ldr	r3, [r7, #16]
 80037e6:	1ad3      	subs	r3, r2, r3
 80037e8:	2b02      	cmp	r3, #2
 80037ea:	d907      	bls.n	80037fc <HAL_RCC_OscConfig+0x24c>
 80037ec:	2303      	movs	r3, #3
 80037ee:	e150      	b.n	8003a92 <HAL_RCC_OscConfig+0x4e2>
 80037f0:	40023800 	.word	0x40023800
 80037f4:	42470000 	.word	0x42470000
 80037f8:	42470e80 	.word	0x42470e80
 80037fc:	4b88      	ldr	r3, [pc, #544]	@ (8003a20 <HAL_RCC_OscConfig+0x470>)
 80037fe:	6f5b      	ldr	r3, [r3, #116]	@ 0x74
 8003800:	f003 0302 	and.w	r3, r3, #2
 8003804:	2b00      	cmp	r3, #0
 8003806:	d1ea      	bne.n	80037de <HAL_RCC_OscConfig+0x22e>
 8003808:	687b      	ldr	r3, [r7, #4]
 800380a:	681b      	ldr	r3, [r3, #0]
 800380c:	f003 0304 	and.w	r3, r3, #4
 8003810:	2b00      	cmp	r3, #0
 8003812:	f000 8097 	beq.w	8003944 <HAL_RCC_OscConfig+0x394>
 8003816:	2300      	movs	r3, #0
 8003818:	75fb      	strb	r3, [r7, #23]
 800381a:	4b81      	ldr	r3, [pc, #516]	@ (8003a20 <HAL_RCC_OscConfig+0x470>)
 800381c:	6c1b      	ldr	r3, [r3, #64]	@ 0x40
 800381e:	f003 5380 	and.w	r3, r3, #268435456	@ 0x10000000
 8003822:	2b00      	cmp	r3, #0
 8003824:	d10f      	bne.n	8003846 <HAL_RCC_OscConfig+0x296>
 8003826:	2300      	movs	r3, #0
 8003828:	60bb      	str	r3, [r7, #8]
 800382a:	4b7d      	ldr	r3, [pc, #500]	@ (8003a20 <HAL_RCC_OscConfig+0x470>)
 800382c:	6c1b      	ldr	r3, [r3, #64]	@ 0x40
 800382e:	4a7c      	ldr	r2, [pc, #496]	@ (8003a20 <HAL_RCC_OscConfig+0x470>)
 8003830:	f043 5380 	orr.w	r3, r3, #268435456	@ 0x10000000
 8003834:	6413      	str	r3, [r2, #64]	@ 0x40
 8003836:	4b7a      	ldr	r3, [pc, #488]	@ (8003a20 <HAL_RCC_OscConfig+0x470>)
 8003838:	6c1b      	ldr	r3, [r3, #64]	@ 0x40
 800383a:	f003 5380 	and.w	r3, r3, #268435456	@ 0x10000000
 800383e:	60bb      	str	r3, [r7, #8]
 8003840:	68bb      	ldr	r3, [r7, #8]
 8003842:	2301      	movs	r3, #1
 8003844:	75fb      	strb	r3, [r7, #23]
 8003846:	4b77      	ldr	r3, [pc, #476]	@ (8003a24 <HAL_RCC_OscConfig+0x474>)
 8003848:	681b      	ldr	r3, [r3, #0]
 800384a:	f403 7380 	and.w	r3, r3, #256	@ 0x100
 800384e:	2b00      	cmp	r3, #0
 8003850:	d118      	bne.n	8003884 <HAL_RCC_OscConfig+0x2d4>
 8003852:	4b74      	ldr	r3, [pc, #464]	@ (8003a24 <HAL_RCC_OscConfig+0x474>)
 8003854:	681b      	ldr	r3, [r3, #0]
 8003856:	4a73      	ldr	r2, [pc, #460]	@ (8003a24 <HAL_RCC_OscConfig+0x474>)
 8003858:	f443 7380 	orr.w	r3, r3, #256	@ 0x100
 800385c:	6013      	str	r3, [r2, #0]
 800385e:	f7ff f9e5 	bl	8002c2c <HAL_GetTick>
 8003862:	6138      	str	r0, [r7, #16]
 8003864:	e008      	b.n	8003878 <HAL_RCC_OscConfig+0x2c8>
 8003866:	f7ff f9e1 	bl	8002c2c <HAL_GetTick>
 800386a:	4602      	mov	r2, r0
 800386c:	693b      	ldr	r3, [r7, #16]
 800386e:	1ad3      	subs	r3, r2, r3
 8003870:	2b02      	cmp	r3, #2
 8003872:	d901      	bls.n	8003878 <HAL_RCC_OscConfig+0x2c8>
 8003874:	2303      	movs	r3, #3
 8003876:	e10c      	b.n	8003a92 <HAL_RCC_OscConfig+0x4e2>
 8003878:	4b6a      	ldr	r3, [pc, #424]	@ (8003a24 <HAL_RCC_OscConfig+0x474>)
 800387a:	681b      	ldr	r3, [r3, #0]
 800387c:	f403 7380 	and.w	r3, r3, #256	@ 0x100
 8003880:	2b00      	cmp	r3, #0
 8003882:	d0f0      	beq.n	8003866 <HAL_RCC_OscConfig+0x2b6>
 8003884:	687b      	ldr	r3, [r7, #4]
 8003886:	689b      	ldr	r3, [r3, #8]
 8003888:	2b01      	cmp	r3, #1
 800388a:	d106      	bne.n	800389a <HAL_RCC_OscConfig+0x2ea>
 800388c:	4b64      	ldr	r3, [pc, #400]	@ (8003a20 <HAL_RCC_OscConfig+0x470>)
 800388e:	6f1b      	ldr	r3, [r3, #112]	@ 0x70
 8003890:	4a63      	ldr	r2, [pc, #396]	@ (8003a20 <HAL_RCC_OscConfig+0x470>)
 8003892:	f043 0301 	orr.w	r3, r3, #1
 8003896:	6713      	str	r3, [r2, #112]	@ 0x70
 8003898:	e01c      	b.n	80038d4 <HAL_RCC_OscConfig+0x324>
 800389a:	687b      	ldr	r3, [r7, #4]
 800389c:	689b      	ldr	r3, [r3, #8]
 800389e:	2b05      	cmp	r3, #5
 80038a0:	d10c      	bne.n	80038bc <HAL_RCC_OscConfig+0x30c>
 80038a2:	4b5f      	ldr	r3, [pc, #380]	@ (8003a20 <HAL_RCC_OscConfig+0x470>)
 80038a4:	6f1b      	ldr	r3, [r3, #112]	@ 0x70
 80038a6:	4a5e      	ldr	r2, [pc, #376]	@ (8003a20 <HAL_RCC_OscConfig+0x470>)
 80038a8:	f043 0304 	orr.w	r3, r3, #4
 80038ac:	6713      	str	r3, [r2, #112]	@ 0x70
 80038ae:	4b5c      	ldr	r3, [pc, #368]	@ (8003a20 <HAL_RCC_OscConfig+0x470>)
 80038b0:	6f1b      	ldr	r3, [r3, #112]	@ 0x70
 80038b2:	4a5b      	ldr	r2, [pc, #364]	@ (8003a20 <HAL_RCC_OscConfig+0x470>)
 80038b4:	f043 0301 	orr.w	r3, r3, #1
 80038b8:	6713      	str	r3, [r2, #112]	@ 0x70
 80038ba:	e00b      	b.n	80038d4 <HAL_RCC_OscConfig+0x324>
 80038bc:	4b58      	ldr	r3, [pc, #352]	@ (8003a20 <HAL_RCC_OscConfig+0x470>)
 80038be:	6f1b      	ldr	r3, [r3, #112]	@ 0x70
 80038c0:	4a57      	ldr	r2, [pc, #348]	@ (8003a20 <HAL_RCC_OscConfig+0x470>)
 80038c2:	f023 0301 	bic.w	r3, r3, #1
 80038c6:	6713      	str	r3, [r2, #112]	@ 0x70
 80038c8:	4b55      	ldr	r3, [pc, #340]	@ (8003a20 <HAL_RCC_OscConfig+0x470>)
 80038ca:	6f1b      	ldr	r3, [r3, #112]	@ 0x70
 80038cc:	4a54      	ldr	r2, [pc, #336]	@ (8003a20 <HAL_RCC_OscConfig+0x470>)
 80038ce:	f023 0304 	bic.w	r3, r3, #4
 80038d2:	6713      	str	r3, [r2, #112]	@ 0x70
 80038d4:	687b      	ldr	r3, [r7, #4]
 80038d6:	689b      	ldr	r3, [r3, #8]
 80038d8:	2b00      	cmp	r3, #0
 80038da:	d015      	beq.n	8003908 <HAL_RCC_OscConfig+0x358>
 80038dc:	f7ff f9a6 	bl	8002c2c <HAL_GetTick>
 80038e0:	6138      	str	r0, [r7, #16]
 80038e2:	e00a      	b.n	80038fa <HAL_RCC_OscConfig+0x34a>
 80038e4:	f7ff f9a2 	bl	8002c2c <HAL_GetTick>
 80038e8:	4602      	mov	r2, r0
 80038ea:	693b      	ldr	r3, [r7, #16]
 80038ec:	1ad3      	subs	r3, r2, r3
 80038ee:	f241 3288 	movw	r2, #5000	@ 0x1388
 80038f2:	4293      	cmp	r3, r2
 80038f4:	d901      	bls.n	80038fa <HAL_RCC_OscConfig+0x34a>
 80038f6:	2303      	movs	r3, #3
 80038f8:	e0cb      	b.n	8003a92 <HAL_RCC_OscConfig+0x4e2>
 80038fa:	4b49      	ldr	r3, [pc, #292]	@ (8003a20 <HAL_RCC_OscConfig+0x470>)
 80038fc:	6f1b      	ldr	r3, [r3, #112]	@ 0x70
 80038fe:	f003 0302 	and.w	r3, r3, #2
 8003902:	2b00      	cmp	r3, #0
 8003904:	d0ee      	beq.n	80038e4 <HAL_RCC_OscConfig+0x334>
 8003906:	e014      	b.n	8003932 <HAL_RCC_OscConfig+0x382>
 8003908:	f7ff f990 	bl	8002c2c <HAL_GetTick>
 800390c:	6138      	str	r0, [r7, #16]
 800390e:	e00a      	b.n	8003926 <HAL_RCC_OscConfig+0x376>
 8003910:	f7ff f98c 	bl	8002c2c <HAL_GetTick>
 8003914:	4602      	mov	r2, r0
 8003916:	693b      	ldr	r3, [r7, #16]
 8003918:	1ad3      	subs	r3, r2, r3
 800391a:	f241 3288 	movw	r2, #5000	@ 0x1388
 800391e:	4293      	cmp	r3, r2
 8003920:	d901      	bls.n	8003926 <HAL_RCC_OscConfig+0x376>
 8003922:	2303      	movs	r3, #3
 8003924:	e0b5      	b.n	8003a92 <HAL_RCC_OscConfig+0x4e2>
 8003926:	4b3e      	ldr	r3, [pc, #248]	@ (8003a20 <HAL_RCC_OscConfig+0x470>)
 8003928:	6f1b      	ldr	r3, [r3, #112]	@ 0x70
 800392a:	f003 0302 	and.w	r3, r3, #2
 800392e:	2b00      	cmp	r3, #0
 8003930:	d1ee      	bne.n	8003910 <HAL_RCC_OscConfig+0x360>
 8003932:	7dfb      	ldrb	r3, [r7, #23]
 8003934:	2b01      	cmp	r3, #1
 8003936:	d105      	bne.n	8003944 <HAL_RCC_OscConfig+0x394>
 8003938:	4b39      	ldr	r3, [pc, #228]	@ (8003a20 <HAL_RCC_OscConfig+0x470>)
 800393a:	6c1b      	ldr	r3, [r3, #64]	@ 0x40
 800393c:	4a38      	ldr	r2, [pc, #224]	@ (8003a20 <HAL_RCC_OscConfig+0x470>)
 800393e:	f023 5380 	bic.w	r3, r3, #268435456	@ 0x10000000
 8003942:	6413      	str	r3, [r2, #64]	@ 0x40
 8003944:	687b      	ldr	r3, [r7, #4]
 8003946:	699b      	ldr	r3, [r3, #24]
 8003948:	2b00      	cmp	r3, #0
 800394a:	f000 80a1 	beq.w	8003a90 <HAL_RCC_OscConfig+0x4e0>
 800394e:	4b34      	ldr	r3, [pc, #208]	@ (8003a20 <HAL_RCC_OscConfig+0x470>)
 8003950:	689b      	ldr	r3, [r3, #8]
 8003952:	f003 030c 	and.w	r3, r3, #12
 8003956:	2b08      	cmp	r3, #8
 8003958:	d05c      	beq.n	8003a14 <HAL_RCC_OscConfig+0x464>
 800395a:	687b      	ldr	r3, [r7, #4]
 800395c:	699b      	ldr	r3, [r3, #24]
 800395e:	2b02      	cmp	r3, #2
 8003960:	d141      	bne.n	80039e6 <HAL_RCC_OscConfig+0x436>
 8003962:	4b31      	ldr	r3, [pc, #196]	@ (8003a28 <HAL_RCC_OscConfig+0x478>)
 8003964:	2200      	movs	r2, #0
 8003966:	601a      	str	r2, [r3, #0]
 8003968:	f7ff f960 	bl	8002c2c <HAL_GetTick>
 800396c:	6138      	str	r0, [r7, #16]
 800396e:	e008      	b.n	8003982 <HAL_RCC_OscConfig+0x3d2>
 8003970:	f7ff f95c 	bl	8002c2c <HAL_GetTick>
 8003974:	4602      	mov	r2, r0
 8003976:	693b      	ldr	r3, [r7, #16]
 8003978:	1ad3      	subs	r3, r2, r3
 800397a:	2b02      	cmp	r3, #2
 800397c:	d901      	bls.n	8003982 <HAL_RCC_OscConfig+0x3d2>
 800397e:	2303      	movs	r3, #3
 8003980:	e087      	b.n	8003a92 <HAL_RCC_OscConfig+0x4e2>
 8003982:	4b27      	ldr	r3, [pc, #156]	@ (8003a20 <HAL_RCC_OscConfig+0x470>)
 8003984:	681b      	ldr	r3, [r3, #0]
 8003986:	f003 7300 	and.w	r3, r3, #33554432	@ 0x2000000
 800398a:	2b00      	cmp	r3, #0
 800398c:	d1f0      	bne.n	8003970 <HAL_RCC_OscConfig+0x3c0>
 800398e:	687b      	ldr	r3, [r7, #4]
 8003990:	69da      	ldr	r2, [r3, #28]
 8003992:	687b      	ldr	r3, [r7, #4]
 8003994:	6a1b      	ldr	r3, [r3, #32]
 8003996:	431a      	orrs	r2, r3
 8003998:	687b      	ldr	r3, [r7, #4]
 800399a:	6a5b      	ldr	r3, [r3, #36]	@ 0x24
 800399c:	019b      	lsls	r3, r3, #6
 800399e:	431a      	orrs	r2, r3
 80039a0:	687b      	ldr	r3, [r7, #4]
 80039a2:	6a9b      	ldr	r3, [r3, #40]	@ 0x28
 80039a4:	085b      	lsrs	r3, r3, #1
 80039a6:	3b01      	subs	r3, #1
 80039a8:	041b      	lsls	r3, r3, #16
 80039aa:	431a      	orrs	r2, r3
 80039ac:	687b      	ldr	r3, [r7, #4]
 80039ae:	6adb      	ldr	r3, [r3, #44]	@ 0x2c
 80039b0:	061b      	lsls	r3, r3, #24
 80039b2:	491b      	ldr	r1, [pc, #108]	@ (8003a20 <HAL_RCC_OscConfig+0x470>)
 80039b4:	4313      	orrs	r3, r2
 80039b6:	604b      	str	r3, [r1, #4]
 80039b8:	4b1b      	ldr	r3, [pc, #108]	@ (8003a28 <HAL_RCC_OscConfig+0x478>)
 80039ba:	2201      	movs	r2, #1
 80039bc:	601a      	str	r2, [r3, #0]
 80039be:	f7ff f935 	bl	8002c2c <HAL_GetTick>
 80039c2:	6138      	str	r0, [r7, #16]
 80039c4:	e008      	b.n	80039d8 <HAL_RCC_OscConfig+0x428>
 80039c6:	f7ff f931 	bl	8002c2c <HAL_GetTick>
 80039ca:	4602      	mov	r2, r0
 80039cc:	693b      	ldr	r3, [r7, #16]
 80039ce:	1ad3      	subs	r3, r2, r3
 80039d0:	2b02      	cmp	r3, #2
 80039d2:	d901      	bls.n	80039d8 <HAL_RCC_OscConfig+0x428>
 80039d4:	2303      	movs	r3, #3
 80039d6:	e05c      	b.n	8003a92 <HAL_RCC_OscConfig+0x4e2>
 80039d8:	4b11      	ldr	r3, [pc, #68]	@ (8003a20 <HAL_RCC_OscConfig+0x470>)
 80039da:	681b      	ldr	r3, [r3, #0]
 80039dc:	f003 7300 	and.w	r3, r3, #33554432	@ 0x2000000
 80039e0:	2b00      	cmp	r3, #0
 80039e2:	d0f0      	beq.n	80039c6 <HAL_RCC_OscConfig+0x416>
 80039e4:	e054      	b.n	8003a90 <HAL_RCC_OscConfig+0x4e0>
 80039e6:	4b10      	ldr	r3, [pc, #64]	@ (8003a28 <HAL_RCC_OscConfig+0x478>)
 80039e8:	2200      	movs	r2, #0
 80039ea:	601a      	str	r2, [r3, #0]
 80039ec:	f7ff f91e 	bl	8002c2c <HAL_GetTick>
 80039f0:	6138      	str	r0, [r7, #16]
 80039f2:	e008      	b.n	8003a06 <HAL_RCC_OscConfig+0x456>
 80039f4:	f7ff f91a 	bl	8002c2c <HAL_GetTick>
 80039f8:	4602      	mov	r2, r0
 80039fa:	693b      	ldr	r3, [r7, #16]
 80039fc:	1ad3      	subs	r3, r2, r3
 80039fe:	2b02      	cmp	r3, #2
 8003a00:	d901      	bls.n	8003a06 <HAL_RCC_OscConfig+0x456>
 8003a02:	2303      	movs	r3, #3
 8003a04:	e045      	b.n	8003a92 <HAL_RCC_OscConfig+0x4e2>
 8003a06:	4b06      	ldr	r3, [pc, #24]	@ (8003a20 <HAL_RCC_OscConfig+0x470>)
 8003a08:	681b      	ldr	r3, [r3, #0]
 8003a0a:	f003 7300 	and.w	r3, r3, #33554432	@ 0x2000000
 8003a0e:	2b00      	cmp	r3, #0
 8003a10:	d1f0      	bne.n	80039f4 <HAL_RCC_OscConfig+0x444>
 8003a12:	e03d      	b.n	8003a90 <HAL_RCC_OscConfig+0x4e0>
 8003a14:	687b      	ldr	r3, [r7, #4]
 8003a16:	699b      	ldr	r3, [r3, #24]
 8003a18:	2b01      	cmp	r3, #1
 8003a1a:	d107      	bne.n	8003a2c <HAL_RCC_OscConfig+0x47c>
 8003a1c:	2301      	movs	r3, #1
 8003a1e:	e038      	b.n	8003a92 <HAL_RCC_OscConfig+0x4e2>
 8003a20:	40023800 	.word	0x40023800
 8003a24:	40007000 	.word	0x40007000
 8003a28:	42470060 	.word	0x42470060
 8003a2c:	4b1b      	ldr	r3, [pc, #108]	@ (8003a9c <HAL_RCC_OscConfig+0x4ec>)
 8003a2e:	685b      	ldr	r3, [r3, #4]
 8003a30:	60fb      	str	r3, [r7, #12]
 8003a32:	687b      	ldr	r3, [r7, #4]
 8003a34:	699b      	ldr	r3, [r3, #24]
 8003a36:	2b01      	cmp	r3, #1
 8003a38:	d028      	beq.n	8003a8c <HAL_RCC_OscConfig+0x4dc>
 8003a3a:	68fb      	ldr	r3, [r7, #12]
 8003a3c:	f403 0280 	and.w	r2, r3, #4194304	@ 0x400000
 8003a40:	687b      	ldr	r3, [r7, #4]
 8003a42:	69db      	ldr	r3, [r3, #28]
 8003a44:	429a      	cmp	r2, r3
 8003a46:	d121      	bne.n	8003a8c <HAL_RCC_OscConfig+0x4dc>
 8003a48:	68fb      	ldr	r3, [r7, #12]
 8003a4a:	f003 023f 	and.w	r2, r3, #63	@ 0x3f
 8003a4e:	687b      	ldr	r3, [r7, #4]
 8003a50:	6a1b      	ldr	r3, [r3, #32]
 8003a52:	429a      	cmp	r2, r3
 8003a54:	d11a      	bne.n	8003a8c <HAL_RCC_OscConfig+0x4dc>
 8003a56:	68fa      	ldr	r2, [r7, #12]
 8003a58:	f647 73c0 	movw	r3, #32704	@ 0x7fc0
 8003a5c:	4013      	ands	r3, r2
 8003a5e:	687a      	ldr	r2, [r7, #4]
 8003a60:	6a52      	ldr	r2, [r2, #36]	@ 0x24
 8003a62:	0192      	lsls	r2, r2, #6
 8003a64:	4293      	cmp	r3, r2
 8003a66:	d111      	bne.n	8003a8c <HAL_RCC_OscConfig+0x4dc>
 8003a68:	68fb      	ldr	r3, [r7, #12]
 8003a6a:	f403 3240 	and.w	r2, r3, #196608	@ 0x30000
 8003a6e:	687b      	ldr	r3, [r7, #4]
 8003a70:	6a9b      	ldr	r3, [r3, #40]	@ 0x28
 8003a72:	085b      	lsrs	r3, r3, #1
 8003a74:	3b01      	subs	r3, #1
 8003a76:	041b      	lsls	r3, r3, #16
 8003a78:	429a      	cmp	r2, r3
 8003a7a:	d107      	bne.n	8003a8c <HAL_RCC_OscConfig+0x4dc>
 8003a7c:	68fb      	ldr	r3, [r7, #12]
 8003a7e:	f003 6270 	and.w	r2, r3, #251658240	@ 0xf000000
 8003a82:	687b      	ldr	r3, [r7, #4]
 8003a84:	6adb      	ldr	r3, [r3, #44]	@ 0x2c
 8003a86:	061b      	lsls	r3, r3, #24
 8003a88:	429a      	cmp	r2, r3
 8003a8a:	d001      	beq.n	8003a90 <HAL_RCC_OscConfig+0x4e0>
 8003a8c:	2301      	movs	r3, #1
 8003a8e:	e000      	b.n	8003a92 <HAL_RCC_OscConfig+0x4e2>
 8003a90:	2300      	movs	r3, #0
 8003a92:	4618      	mov	r0, r3
 8003a94:	3718      	adds	r7, #24
 8003a96:	46bd      	mov	sp, r7
 8003a98:	bd80      	pop	{r7, pc}
 8003a9a:	bf00      	nop
 8003a9c:	40023800 	.word	0x40023800

08003aa0 <HAL_RCC_ClockConfig>:
 8003aa0:	b580      	push	{r7, lr}
 8003aa2:	b084      	sub	sp, #16
 8003aa4:	af00      	add	r7, sp, #0
 8003aa6:	6078      	str	r0, [r7, #4]
 8003aa8:	6039      	str	r1, [r7, #0]
 8003aaa:	687b      	ldr	r3, [r7, #4]
 8003aac:	2b00      	cmp	r3, #0
 8003aae:	d101      	bne.n	8003ab4 <HAL_RCC_ClockConfig+0x14>
 8003ab0:	2301      	movs	r3, #1
 8003ab2:	e0cc      	b.n	8003c4e <HAL_RCC_ClockConfig+0x1ae>
 8003ab4:	4b68      	ldr	r3, [pc, #416]	@ (8003c58 <HAL_RCC_ClockConfig+0x1b8>)
 8003ab6:	681b      	ldr	r3, [r3, #0]
 8003ab8:	f003 0307 	and.w	r3, r3, #7
 8003abc:	683a      	ldr	r2, [r7, #0]
 8003abe:	429a      	cmp	r2, r3
 8003ac0:	d90c      	bls.n	8003adc <HAL_RCC_ClockConfig+0x3c>
 8003ac2:	4b65      	ldr	r3, [pc, #404]	@ (8003c58 <HAL_RCC_ClockConfig+0x1b8>)
 8003ac4:	683a      	ldr	r2, [r7, #0]
 8003ac6:	b2d2      	uxtb	r2, r2
 8003ac8:	701a      	strb	r2, [r3, #0]
 8003aca:	4b63      	ldr	r3, [pc, #396]	@ (8003c58 <HAL_RCC_ClockConfig+0x1b8>)
 8003acc:	681b      	ldr	r3, [r3, #0]
 8003ace:	f003 0307 	and.w	r3, r3, #7
 8003ad2:	683a      	ldr	r2, [r7, #0]
 8003ad4:	429a      	cmp	r2, r3
 8003ad6:	d001      	beq.n	8003adc <HAL_RCC_ClockConfig+0x3c>
 8003ad8:	2301      	movs	r3, #1
 8003ada:	e0b8      	b.n	8003c4e <HAL_RCC_ClockConfig+0x1ae>
 8003adc:	687b      	ldr	r3, [r7, #4]
 8003ade:	681b      	ldr	r3, [r3, #0]
 8003ae0:	f003 0302 	and.w	r3, r3, #2
 8003ae4:	2b00      	cmp	r3, #0
 8003ae6:	d020      	beq.n	8003b2a <HAL_RCC_ClockConfig+0x8a>
 8003ae8:	687b      	ldr	r3, [r7, #4]
 8003aea:	681b      	ldr	r3, [r3, #0]
 8003aec:	f003 0304 	and.w	r3, r3, #4
 8003af0:	2b00      	cmp	r3, #0
 8003af2:	d005      	beq.n	8003b00 <HAL_RCC_ClockConfig+0x60>
 8003af4:	4b59      	ldr	r3, [pc, #356]	@ (8003c5c <HAL_RCC_ClockConfig+0x1bc>)
 8003af6:	689b      	ldr	r3, [r3, #8]
 8003af8:	4a58      	ldr	r2, [pc, #352]	@ (8003c5c <HAL_RCC_ClockConfig+0x1bc>)
 8003afa:	f443 53e0 	orr.w	r3, r3, #7168	@ 0x1c00
 8003afe:	6093      	str	r3, [r2, #8]
 8003b00:	687b      	ldr	r3, [r7, #4]
 8003b02:	681b      	ldr	r3, [r3, #0]
 8003b04:	f003 0308 	and.w	r3, r3, #8
 8003b08:	2b00      	cmp	r3, #0
 8003b0a:	d005      	beq.n	8003b18 <HAL_RCC_ClockConfig+0x78>
 8003b0c:	4b53      	ldr	r3, [pc, #332]	@ (8003c5c <HAL_RCC_ClockConfig+0x1bc>)
 8003b0e:	689b      	ldr	r3, [r3, #8]
 8003b10:	4a52      	ldr	r2, [pc, #328]	@ (8003c5c <HAL_RCC_ClockConfig+0x1bc>)
 8003b12:	f443 4360 	orr.w	r3, r3, #57344	@ 0xe000
 8003b16:	6093      	str	r3, [r2, #8]
 8003b18:	4b50      	ldr	r3, [pc, #320]	@ (8003c5c <HAL_RCC_ClockConfig+0x1bc>)
 8003b1a:	689b      	ldr	r3, [r3, #8]
 8003b1c:	f023 02f0 	bic.w	r2, r3, #240	@ 0xf0
 8003b20:	687b      	ldr	r3, [r7, #4]
 8003b22:	689b      	ldr	r3, [r3, #8]
 8003b24:	494d      	ldr	r1, [pc, #308]	@ (8003c5c <HAL_RCC_ClockConfig+0x1bc>)
 8003b26:	4313      	orrs	r3, r2
 8003b28:	608b      	str	r3, [r1, #8]
 8003b2a:	687b      	ldr	r3, [r7, #4]
 8003b2c:	681b      	ldr	r3, [r3, #0]
 8003b2e:	f003 0301 	and.w	r3, r3, #1
 8003b32:	2b00      	cmp	r3, #0
 8003b34:	d044      	beq.n	8003bc0 <HAL_RCC_ClockConfig+0x120>
 8003b36:	687b      	ldr	r3, [r7, #4]
 8003b38:	685b      	ldr	r3, [r3, #4]
 8003b3a:	2b01      	cmp	r3, #1
 8003b3c:	d107      	bne.n	8003b4e <HAL_RCC_ClockConfig+0xae>
 8003b3e:	4b47      	ldr	r3, [pc, #284]	@ (8003c5c <HAL_RCC_ClockConfig+0x1bc>)
 8003b40:	681b      	ldr	r3, [r3, #0]
 8003b42:	f403 3300 	and.w	r3, r3, #131072	@ 0x20000
 8003b46:	2b00      	cmp	r3, #0
 8003b48:	d119      	bne.n	8003b7e <HAL_RCC_ClockConfig+0xde>
 8003b4a:	2301      	movs	r3, #1
 8003b4c:	e07f      	b.n	8003c4e <HAL_RCC_ClockConfig+0x1ae>
 8003b4e:	687b      	ldr	r3, [r7, #4]
 8003b50:	685b      	ldr	r3, [r3, #4]
 8003b52:	2b02      	cmp	r3, #2
 8003b54:	d003      	beq.n	8003b5e <HAL_RCC_ClockConfig+0xbe>
 8003b56:	687b      	ldr	r3, [r7, #4]
 8003b58:	685b      	ldr	r3, [r3, #4]
 8003b5a:	2b03      	cmp	r3, #3
 8003b5c:	d107      	bne.n	8003b6e <HAL_RCC_ClockConfig+0xce>
 8003b5e:	4b3f      	ldr	r3, [pc, #252]	@ (8003c5c <HAL_RCC_ClockConfig+0x1bc>)
 8003b60:	681b      	ldr	r3, [r3, #0]
 8003b62:	f003 7300 	and.w	r3, r3, #33554432	@ 0x2000000
 8003b66:	2b00      	cmp	r3, #0
 8003b68:	d109      	bne.n	8003b7e <HAL_RCC_ClockConfig+0xde>
 8003b6a:	2301      	movs	r3, #1
 8003b6c:	e06f      	b.n	8003c4e <HAL_RCC_ClockConfig+0x1ae>
 8003b6e:	4b3b      	ldr	r3, [pc, #236]	@ (8003c5c <HAL_RCC_ClockConfig+0x1bc>)
 8003b70:	681b      	ldr	r3, [r3, #0]
 8003b72:	f003 0302 	and.w	r3, r3, #2
 8003b76:	2b00      	cmp	r3, #0
 8003b78:	d101      	bne.n	8003b7e <HAL_RCC_ClockConfig+0xde>
 8003b7a:	2301      	movs	r3, #1
 8003b7c:	e067      	b.n	8003c4e <HAL_RCC_ClockConfig+0x1ae>
 8003b7e:	4b37      	ldr	r3, [pc, #220]	@ (8003c5c <HAL_RCC_ClockConfig+0x1bc>)
 8003b80:	689b      	ldr	r3, [r3, #8]
 8003b82:	f023 0203 	bic.w	r2, r3, #3
 8003b86:	687b      	ldr	r3, [r7, #4]
 8003b88:	685b      	ldr	r3, [r3, #4]
 8003b8a:	4934      	ldr	r1, [pc, #208]	@ (8003c5c <HAL_RCC_ClockConfig+0x1bc>)
 8003b8c:	4313      	orrs	r3, r2
 8003b8e:	608b      	str	r3, [r1, #8]
 8003b90:	f7ff f84c 	bl	8002c2c <HAL_GetTick>
 8003b94:	60f8      	str	r0, [r7, #12]
 8003b96:	e00a      	b.n	8003bae <HAL_RCC_ClockConfig+0x10e>
 8003b98:	f7ff f848 	bl	8002c2c <HAL_GetTick>
 8003b9c:	4602      	mov	r2, r0
 8003b9e:	68fb      	ldr	r3, [r7, #12]
 8003ba0:	1ad3      	subs	r3, r2, r3
 8003ba2:	f241 3288 	movw	r2, #5000	@ 0x1388
 8003ba6:	4293      	cmp	r3, r2
 8003ba8:	d901      	bls.n	8003bae <HAL_RCC_ClockConfig+0x10e>
 8003baa:	2303      	movs	r3, #3
 8003bac:	e04f      	b.n	8003c4e <HAL_RCC_ClockConfig+0x1ae>
 8003bae:	4b2b      	ldr	r3, [pc, #172]	@ (8003c5c <HAL_RCC_ClockConfig+0x1bc>)
 8003bb0:	689b      	ldr	r3, [r3, #8]
 8003bb2:	f003 020c 	and.w	r2, r3, #12
 8003bb6:	687b      	ldr	r3, [r7, #4]
 8003bb8:	685b      	ldr	r3, [r3, #4]
 8003bba:	009b      	lsls	r3, r3, #2
 8003bbc:	429a      	cmp	r2, r3
 8003bbe:	d1eb      	bne.n	8003b98 <HAL_RCC_ClockConfig+0xf8>
 8003bc0:	4b25      	ldr	r3, [pc, #148]	@ (8003c58 <HAL_RCC_ClockConfig+0x1b8>)
 8003bc2:	681b      	ldr	r3, [r3, #0]
 8003bc4:	f003 0307 	and.w	r3, r3, #7
 8003bc8:	683a      	ldr	r2, [r7, #0]
 8003bca:	429a      	cmp	r2, r3
 8003bcc:	d20c      	bcs.n	8003be8 <HAL_RCC_ClockConfig+0x148>
 8003bce:	4b22      	ldr	r3, [pc, #136]	@ (8003c58 <HAL_RCC_ClockConfig+0x1b8>)
 8003bd0:	683a      	ldr	r2, [r7, #0]
 8003bd2:	b2d2      	uxtb	r2, r2
 8003bd4:	701a      	strb	r2, [r3, #0]
 8003bd6:	4b20      	ldr	r3, [pc, #128]	@ (8003c58 <HAL_RCC_ClockConfig+0x1b8>)
 8003bd8:	681b      	ldr	r3, [r3, #0]
 8003bda:	f003 0307 	and.w	r3, r3, #7
 8003bde:	683a      	ldr	r2, [r7, #0]
 8003be0:	429a      	cmp	r2, r3
 8003be2:	d001      	beq.n	8003be8 <HAL_RCC_ClockConfig+0x148>
 8003be4:	2301      	movs	r3, #1
 8003be6:	e032      	b.n	8003c4e <HAL_RCC_ClockConfig+0x1ae>
 8003be8:	687b      	ldr	r3, [r7, #4]
 8003bea:	681b      	ldr	r3, [r3, #0]
 8003bec:	f003 0304 	and.w	r3, r3, #4
 8003bf0:	2b00      	cmp	r3, #0
 8003bf2:	d008      	beq.n	8003c06 <HAL_RCC_ClockConfig+0x166>
 8003bf4:	4b19      	ldr	r3, [pc, #100]	@ (8003c5c <HAL_RCC_ClockConfig+0x1bc>)
 8003bf6:	689b      	ldr	r3, [r3, #8]
 8003bf8:	f423 52e0 	bic.w	r2, r3, #7168	@ 0x1c00
 8003bfc:	687b      	ldr	r3, [r7, #4]
 8003bfe:	68db      	ldr	r3, [r3, #12]
 8003c00:	4916      	ldr	r1, [pc, #88]	@ (8003c5c <HAL_RCC_ClockConfig+0x1bc>)
 8003c02:	4313      	orrs	r3, r2
 8003c04:	608b      	str	r3, [r1, #8]
 8003c06:	687b      	ldr	r3, [r7, #4]
 8003c08:	681b      	ldr	r3, [r3, #0]
 8003c0a:	f003 0308 	and.w	r3, r3, #8
 8003c0e:	2b00      	cmp	r3, #0
 8003c10:	d009      	beq.n	8003c26 <HAL_RCC_ClockConfig+0x186>
 8003c12:	4b12      	ldr	r3, [pc, #72]	@ (8003c5c <HAL_RCC_ClockConfig+0x1bc>)
 8003c14:	689b      	ldr	r3, [r3, #8]
 8003c16:	f423 4260 	bic.w	r2, r3, #57344	@ 0xe000
 8003c1a:	687b      	ldr	r3, [r7, #4]
 8003c1c:	691b      	ldr	r3, [r3, #16]
 8003c1e:	00db      	lsls	r3, r3, #3
 8003c20:	490e      	ldr	r1, [pc, #56]	@ (8003c5c <HAL_RCC_ClockConfig+0x1bc>)
 8003c22:	4313      	orrs	r3, r2
 8003c24:	608b      	str	r3, [r1, #8]
 8003c26:	f000 f821 	bl	8003c6c <HAL_RCC_GetSysClockFreq>
 8003c2a:	4602      	mov	r2, r0
 8003c2c:	4b0b      	ldr	r3, [pc, #44]	@ (8003c5c <HAL_RCC_ClockConfig+0x1bc>)
 8003c2e:	689b      	ldr	r3, [r3, #8]
 8003c30:	091b      	lsrs	r3, r3, #4
 8003c32:	f003 030f 	and.w	r3, r3, #15
 8003c36:	490a      	ldr	r1, [pc, #40]	@ (8003c60 <HAL_RCC_ClockConfig+0x1c0>)
 8003c38:	5ccb      	ldrb	r3, [r1, r3]
 8003c3a:	fa22 f303 	lsr.w	r3, r2, r3
 8003c3e:	4a09      	ldr	r2, [pc, #36]	@ (8003c64 <HAL_RCC_ClockConfig+0x1c4>)
 8003c40:	6013      	str	r3, [r2, #0]
 8003c42:	4b09      	ldr	r3, [pc, #36]	@ (8003c68 <HAL_RCC_ClockConfig+0x1c8>)
 8003c44:	681b      	ldr	r3, [r3, #0]
 8003c46:	4618      	mov	r0, r3
 8003c48:	f7fe ffac 	bl	8002ba4 <HAL_InitTick>
 8003c4c:	2300      	movs	r3, #0
 8003c4e:	4618      	mov	r0, r3
 8003c50:	3710      	adds	r7, #16
 8003c52:	46bd      	mov	sp, r7
 8003c54:	bd80      	pop	{r7, pc}
 8003c56:	bf00      	nop
 8003c58:	40023c00 	.word	0x40023c00
 8003c5c:	40023800 	.word	0x40023800
 8003c60:	08006b94 	.word	0x08006b94
 8003c64:	200000a4 	.word	0x200000a4
 8003c68:	200000a8 	.word	0x200000a8

08003c6c <HAL_RCC_GetSysClockFreq>:
 8003c6c:	e92d 4fb0 	stmdb	sp!, {r4, r5, r7, r8, r9, sl, fp, lr}
 8003c70:	b094      	sub	sp, #80	@ 0x50
 8003c72:	af00      	add	r7, sp, #0
 8003c74:	2300      	movs	r3, #0
 8003c76:	647b      	str	r3, [r7, #68]	@ 0x44
 8003c78:	2300      	movs	r3, #0
 8003c7a:	64fb      	str	r3, [r7, #76]	@ 0x4c
 8003c7c:	2300      	movs	r3, #0
 8003c7e:	643b      	str	r3, [r7, #64]	@ 0x40
 8003c80:	2300      	movs	r3, #0
 8003c82:	64bb      	str	r3, [r7, #72]	@ 0x48
 8003c84:	4b79      	ldr	r3, [pc, #484]	@ (8003e6c <HAL_RCC_GetSysClockFreq+0x200>)
 8003c86:	689b      	ldr	r3, [r3, #8]
 8003c88:	f003 030c 	and.w	r3, r3, #12
 8003c8c:	2b08      	cmp	r3, #8
 8003c8e:	d00d      	beq.n	8003cac <HAL_RCC_GetSysClockFreq+0x40>
 8003c90:	2b08      	cmp	r3, #8
 8003c92:	f200 80e1 	bhi.w	8003e58 <HAL_RCC_GetSysClockFreq+0x1ec>
 8003c96:	2b00      	cmp	r3, #0
 8003c98:	d002      	beq.n	8003ca0 <HAL_RCC_GetSysClockFreq+0x34>
 8003c9a:	2b04      	cmp	r3, #4
 8003c9c:	d003      	beq.n	8003ca6 <HAL_RCC_GetSysClockFreq+0x3a>
 8003c9e:	e0db      	b.n	8003e58 <HAL_RCC_GetSysClockFreq+0x1ec>
 8003ca0:	4b73      	ldr	r3, [pc, #460]	@ (8003e70 <HAL_RCC_GetSysClockFreq+0x204>)
 8003ca2:	64bb      	str	r3, [r7, #72]	@ 0x48
 8003ca4:	e0db      	b.n	8003e5e <HAL_RCC_GetSysClockFreq+0x1f2>
 8003ca6:	4b73      	ldr	r3, [pc, #460]	@ (8003e74 <HAL_RCC_GetSysClockFreq+0x208>)
 8003ca8:	64bb      	str	r3, [r7, #72]	@ 0x48
 8003caa:	e0d8      	b.n	8003e5e <HAL_RCC_GetSysClockFreq+0x1f2>
 8003cac:	4b6f      	ldr	r3, [pc, #444]	@ (8003e6c <HAL_RCC_GetSysClockFreq+0x200>)
 8003cae:	685b      	ldr	r3, [r3, #4]
 8003cb0:	f003 033f 	and.w	r3, r3, #63	@ 0x3f
 8003cb4:	647b      	str	r3, [r7, #68]	@ 0x44
 8003cb6:	4b6d      	ldr	r3, [pc, #436]	@ (8003e6c <HAL_RCC_GetSysClockFreq+0x200>)
 8003cb8:	685b      	ldr	r3, [r3, #4]
 8003cba:	f403 0380 	and.w	r3, r3, #4194304	@ 0x400000
 8003cbe:	2b00      	cmp	r3, #0
 8003cc0:	d063      	beq.n	8003d8a <HAL_RCC_GetSysClockFreq+0x11e>
 8003cc2:	4b6a      	ldr	r3, [pc, #424]	@ (8003e6c <HAL_RCC_GetSysClockFreq+0x200>)
 8003cc4:	685b      	ldr	r3, [r3, #4]
 8003cc6:	099b      	lsrs	r3, r3, #6
 8003cc8:	2200      	movs	r2, #0
 8003cca:	63bb      	str	r3, [r7, #56]	@ 0x38
 8003ccc:	63fa      	str	r2, [r7, #60]	@ 0x3c
 8003cce:	6bbb      	ldr	r3, [r7, #56]	@ 0x38
 8003cd0:	f3c3 0308 	ubfx	r3, r3, #0, #9
 8003cd4:	633b      	str	r3, [r7, #48]	@ 0x30
 8003cd6:	2300      	movs	r3, #0
 8003cd8:	637b      	str	r3, [r7, #52]	@ 0x34
 8003cda:	e9d7 450c 	ldrd	r4, r5, [r7, #48]	@ 0x30
 8003cde:	4622      	mov	r2, r4
 8003ce0:	462b      	mov	r3, r5
 8003ce2:	f04f 0000 	mov.w	r0, #0
 8003ce6:	f04f 0100 	mov.w	r1, #0
 8003cea:	0159      	lsls	r1, r3, #5
 8003cec:	ea41 61d2 	orr.w	r1, r1, r2, lsr #27
 8003cf0:	0150      	lsls	r0, r2, #5
 8003cf2:	4602      	mov	r2, r0
 8003cf4:	460b      	mov	r3, r1
 8003cf6:	4621      	mov	r1, r4
 8003cf8:	1a51      	subs	r1, r2, r1
 8003cfa:	6139      	str	r1, [r7, #16]
 8003cfc:	4629      	mov	r1, r5
 8003cfe:	eb63 0301 	sbc.w	r3, r3, r1
 8003d02:	617b      	str	r3, [r7, #20]
 8003d04:	f04f 0200 	mov.w	r2, #0
 8003d08:	f04f 0300 	mov.w	r3, #0
 8003d0c:	e9d7 ab04 	ldrd	sl, fp, [r7, #16]
 8003d10:	4659      	mov	r1, fp
 8003d12:	018b      	lsls	r3, r1, #6
 8003d14:	4651      	mov	r1, sl
 8003d16:	ea43 6391 	orr.w	r3, r3, r1, lsr #26
 8003d1a:	4651      	mov	r1, sl
 8003d1c:	018a      	lsls	r2, r1, #6
 8003d1e:	4651      	mov	r1, sl
 8003d20:	ebb2 0801 	subs.w	r8, r2, r1
 8003d24:	4659      	mov	r1, fp
 8003d26:	eb63 0901 	sbc.w	r9, r3, r1
 8003d2a:	f04f 0200 	mov.w	r2, #0
 8003d2e:	f04f 0300 	mov.w	r3, #0
 8003d32:	ea4f 03c9 	mov.w	r3, r9, lsl #3
 8003d36:	ea43 7358 	orr.w	r3, r3, r8, lsr #29
 8003d3a:	ea4f 02c8 	mov.w	r2, r8, lsl #3
 8003d3e:	4690      	mov	r8, r2
 8003d40:	4699      	mov	r9, r3
 8003d42:	4623      	mov	r3, r4
 8003d44:	eb18 0303 	adds.w	r3, r8, r3
 8003d48:	60bb      	str	r3, [r7, #8]
 8003d4a:	462b      	mov	r3, r5
 8003d4c:	eb49 0303 	adc.w	r3, r9, r3
 8003d50:	60fb      	str	r3, [r7, #12]
 8003d52:	f04f 0200 	mov.w	r2, #0
 8003d56:	f04f 0300 	mov.w	r3, #0
 8003d5a:	e9d7 4502 	ldrd	r4, r5, [r7, #8]
 8003d5e:	4629      	mov	r1, r5
 8003d60:	024b      	lsls	r3, r1, #9
 8003d62:	4621      	mov	r1, r4
 8003d64:	ea43 53d1 	orr.w	r3, r3, r1, lsr #23
 8003d68:	4621      	mov	r1, r4
 8003d6a:	024a      	lsls	r2, r1, #9
 8003d6c:	4610      	mov	r0, r2
 8003d6e:	4619      	mov	r1, r3
 8003d70:	6c7b      	ldr	r3, [r7, #68]	@ 0x44
 8003d72:	2200      	movs	r2, #0
 8003d74:	62bb      	str	r3, [r7, #40]	@ 0x28
 8003d76:	62fa      	str	r2, [r7, #44]	@ 0x2c
 8003d78:	e9d7 230a 	ldrd	r2, r3, [r7, #40]	@ 0x28
 8003d7c:	f7fc fa80 	bl	8000280 <__aeabi_uldivmod>
 8003d80:	4602      	mov	r2, r0
 8003d82:	460b      	mov	r3, r1
 8003d84:	4613      	mov	r3, r2
 8003d86:	64fb      	str	r3, [r7, #76]	@ 0x4c
 8003d88:	e058      	b.n	8003e3c <HAL_RCC_GetSysClockFreq+0x1d0>
 8003d8a:	4b38      	ldr	r3, [pc, #224]	@ (8003e6c <HAL_RCC_GetSysClockFreq+0x200>)
 8003d8c:	685b      	ldr	r3, [r3, #4]
 8003d8e:	099b      	lsrs	r3, r3, #6
 8003d90:	2200      	movs	r2, #0
 8003d92:	4618      	mov	r0, r3
 8003d94:	4611      	mov	r1, r2
 8003d96:	f3c0 0308 	ubfx	r3, r0, #0, #9
 8003d9a:	623b      	str	r3, [r7, #32]
 8003d9c:	2300      	movs	r3, #0
 8003d9e:	627b      	str	r3, [r7, #36]	@ 0x24
 8003da0:	e9d7 8908 	ldrd	r8, r9, [r7, #32]
 8003da4:	4642      	mov	r2, r8
 8003da6:	464b      	mov	r3, r9
 8003da8:	f04f 0000 	mov.w	r0, #0
 8003dac:	f04f 0100 	mov.w	r1, #0
 8003db0:	0159      	lsls	r1, r3, #5
 8003db2:	ea41 61d2 	orr.w	r1, r1, r2, lsr #27
 8003db6:	0150      	lsls	r0, r2, #5
 8003db8:	4602      	mov	r2, r0
 8003dba:	460b      	mov	r3, r1
 8003dbc:	4641      	mov	r1, r8
 8003dbe:	ebb2 0a01 	subs.w	sl, r2, r1
 8003dc2:	4649      	mov	r1, r9
 8003dc4:	eb63 0b01 	sbc.w	fp, r3, r1
 8003dc8:	f04f 0200 	mov.w	r2, #0
 8003dcc:	f04f 0300 	mov.w	r3, #0
 8003dd0:	ea4f 138b 	mov.w	r3, fp, lsl #6
 8003dd4:	ea43 639a 	orr.w	r3, r3, sl, lsr #26
 8003dd8:	ea4f 128a 	mov.w	r2, sl, lsl #6
 8003ddc:	ebb2 040a 	subs.w	r4, r2, sl
 8003de0:	eb63 050b 	sbc.w	r5, r3, fp
 8003de4:	f04f 0200 	mov.w	r2, #0
 8003de8:	f04f 0300 	mov.w	r3, #0
 8003dec:	00eb      	lsls	r3, r5, #3
 8003dee:	ea43 7354 	orr.w	r3, r3, r4, lsr #29
 8003df2:	00e2      	lsls	r2, r4, #3
 8003df4:	4614      	mov	r4, r2
 8003df6:	461d      	mov	r5, r3
 8003df8:	4643      	mov	r3, r8
 8003dfa:	18e3      	adds	r3, r4, r3
 8003dfc:	603b      	str	r3, [r7, #0]
 8003dfe:	464b      	mov	r3, r9
 8003e00:	eb45 0303 	adc.w	r3, r5, r3
 8003e04:	607b      	str	r3, [r7, #4]
 8003e06:	f04f 0200 	mov.w	r2, #0
 8003e0a:	f04f 0300 	mov.w	r3, #0
 8003e0e:	e9d7 4500 	ldrd	r4, r5, [r7]
 8003e12:	4629      	mov	r1, r5
 8003e14:	028b      	lsls	r3, r1, #10
 8003e16:	4621      	mov	r1, r4
 8003e18:	ea43 5391 	orr.w	r3, r3, r1, lsr #22
 8003e1c:	4621      	mov	r1, r4
 8003e1e:	028a      	lsls	r2, r1, #10
 8003e20:	4610      	mov	r0, r2
 8003e22:	4619      	mov	r1, r3
 8003e24:	6c7b      	ldr	r3, [r7, #68]	@ 0x44
 8003e26:	2200      	movs	r2, #0
 8003e28:	61bb      	str	r3, [r7, #24]
 8003e2a:	61fa      	str	r2, [r7, #28]
 8003e2c:	e9d7 2306 	ldrd	r2, r3, [r7, #24]
 8003e30:	f7fc fa26 	bl	8000280 <__aeabi_uldivmod>
 8003e34:	4602      	mov	r2, r0
 8003e36:	460b      	mov	r3, r1
 8003e38:	4613      	mov	r3, r2
 8003e3a:	64fb      	str	r3, [r7, #76]	@ 0x4c
 8003e3c:	4b0b      	ldr	r3, [pc, #44]	@ (8003e6c <HAL_RCC_GetSysClockFreq+0x200>)
 8003e3e:	685b      	ldr	r3, [r3, #4]
 8003e40:	0c1b      	lsrs	r3, r3, #16
 8003e42:	f003 0303 	and.w	r3, r3, #3
 8003e46:	3301      	adds	r3, #1
 8003e48:	005b      	lsls	r3, r3, #1
 8003e4a:	643b      	str	r3, [r7, #64]	@ 0x40
 8003e4c:	6cfa      	ldr	r2, [r7, #76]	@ 0x4c
 8003e4e:	6c3b      	ldr	r3, [r7, #64]	@ 0x40
 8003e50:	fbb2 f3f3 	udiv	r3, r2, r3
 8003e54:	64bb      	str	r3, [r7, #72]	@ 0x48
 8003e56:	e002      	b.n	8003e5e <HAL_RCC_GetSysClockFreq+0x1f2>
 8003e58:	4b05      	ldr	r3, [pc, #20]	@ (8003e70 <HAL_RCC_GetSysClockFreq+0x204>)
 8003e5a:	64bb      	str	r3, [r7, #72]	@ 0x48
 8003e5c:	bf00      	nop
 8003e5e:	6cbb      	ldr	r3, [r7, #72]	@ 0x48
 8003e60:	4618      	mov	r0, r3
 8003e62:	3750      	adds	r7, #80	@ 0x50
 8003e64:	46bd      	mov	sp, r7
 8003e66:	e8bd 8fb0 	ldmia.w	sp!, {r4, r5, r7, r8, r9, sl, fp, pc}
 8003e6a:	bf00      	nop
 8003e6c:	40023800 	.word	0x40023800
 8003e70:	00f42400 	.word	0x00f42400
 8003e74:	007a1200 	.word	0x007a1200

08003e78 <HAL_RCC_GetHCLKFreq>:
 8003e78:	b480      	push	{r7}
 8003e7a:	af00      	add	r7, sp, #0
 8003e7c:	4b03      	ldr	r3, [pc, #12]	@ (8003e8c <HAL_RCC_GetHCLKFreq+0x14>)
 8003e7e:	681b      	ldr	r3, [r3, #0]
 8003e80:	4618      	mov	r0, r3
 8003e82:	46bd      	mov	sp, r7
 8003e84:	f85d 7b04 	ldr.w	r7, [sp], #4
 8003e88:	4770      	bx	lr
 8003e8a:	bf00      	nop
 8003e8c:	200000a4 	.word	0x200000a4

08003e90 <HAL_RCC_GetPCLK1Freq>:
 8003e90:	b580      	push	{r7, lr}
 8003e92:	af00      	add	r7, sp, #0
 8003e94:	f7ff fff0 	bl	8003e78 <HAL_RCC_GetHCLKFreq>
 8003e98:	4602      	mov	r2, r0
 8003e9a:	4b05      	ldr	r3, [pc, #20]	@ (8003eb0 <HAL_RCC_GetPCLK1Freq+0x20>)
 8003e9c:	689b      	ldr	r3, [r3, #8]
 8003e9e:	0a9b      	lsrs	r3, r3, #10
 8003ea0:	f003 0307 	and.w	r3, r3, #7
 8003ea4:	4903      	ldr	r1, [pc, #12]	@ (8003eb4 <HAL_RCC_GetPCLK1Freq+0x24>)
 8003ea6:	5ccb      	ldrb	r3, [r1, r3]
 8003ea8:	fa22 f303 	lsr.w	r3, r2, r3
 8003eac:	4618      	mov	r0, r3
 8003eae:	bd80      	pop	{r7, pc}
 8003eb0:	40023800 	.word	0x40023800
 8003eb4:	08006ba4 	.word	0x08006ba4

08003eb8 <HAL_RCC_GetPCLK2Freq>:
 8003eb8:	b580      	push	{r7, lr}
 8003eba:	af00      	add	r7, sp, #0
 8003ebc:	f7ff ffdc 	bl	8003e78 <HAL_RCC_GetHCLKFreq>
 8003ec0:	4602      	mov	r2, r0
 8003ec2:	4b05      	ldr	r3, [pc, #20]	@ (8003ed8 <HAL_RCC_GetPCLK2Freq+0x20>)
 8003ec4:	689b      	ldr	r3, [r3, #8]
 8003ec6:	0b5b      	lsrs	r3, r3, #13
 8003ec8:	f003 0307 	and.w	r3, r3, #7
 8003ecc:	4903      	ldr	r1, [pc, #12]	@ (8003edc <HAL_RCC_GetPCLK2Freq+0x24>)
 8003ece:	5ccb      	ldrb	r3, [r1, r3]
 8003ed0:	fa22 f303 	lsr.w	r3, r2, r3
 8003ed4:	4618      	mov	r0, r3
 8003ed6:	bd80      	pop	{r7, pc}
 8003ed8:	40023800 	.word	0x40023800
 8003edc:	08006ba4 	.word	0x08006ba4

08003ee0 <HAL_TIM_Base_Init>:
 8003ee0:	b580      	push	{r7, lr}
 8003ee2:	b082      	sub	sp, #8
 8003ee4:	af00      	add	r7, sp, #0
 8003ee6:	6078      	str	r0, [r7, #4]
 8003ee8:	687b      	ldr	r3, [r7, #4]
 8003eea:	2b00      	cmp	r3, #0
 8003eec:	d101      	bne.n	8003ef2 <HAL_TIM_Base_Init+0x12>
 8003eee:	2301      	movs	r3, #1
 8003ef0:	e041      	b.n	8003f76 <HAL_TIM_Base_Init+0x96>
 8003ef2:	687b      	ldr	r3, [r7, #4]
 8003ef4:	f893 303d 	ldrb.w	r3, [r3, #61]	@ 0x3d
 8003ef8:	b2db      	uxtb	r3, r3
 8003efa:	2b00      	cmp	r3, #0
 8003efc:	d106      	bne.n	8003f0c <HAL_TIM_Base_Init+0x2c>
 8003efe:	687b      	ldr	r3, [r7, #4]
 8003f00:	2200      	movs	r2, #0
 8003f02:	f883 203c 	strb.w	r2, [r3, #60]	@ 0x3c
 8003f06:	6878      	ldr	r0, [r7, #4]
 8003f08:	f7fe fd14 	bl	8002934 <HAL_TIM_Base_MspInit>
 8003f0c:	687b      	ldr	r3, [r7, #4]
 8003f0e:	2202      	movs	r2, #2
 8003f10:	f883 203d 	strb.w	r2, [r3, #61]	@ 0x3d
 8003f14:	687b      	ldr	r3, [r7, #4]
 8003f16:	681a      	ldr	r2, [r3, #0]
 8003f18:	687b      	ldr	r3, [r7, #4]
 8003f1a:	3304      	adds	r3, #4
 8003f1c:	4619      	mov	r1, r3
 8003f1e:	4610      	mov	r0, r2
 8003f20:	f000 fb1c 	bl	800455c <TIM_Base_SetConfig>
 8003f24:	687b      	ldr	r3, [r7, #4]
 8003f26:	2201      	movs	r2, #1
 8003f28:	f883 2046 	strb.w	r2, [r3, #70]	@ 0x46
 8003f2c:	687b      	ldr	r3, [r7, #4]
 8003f2e:	2201      	movs	r2, #1
 8003f30:	f883 203e 	strb.w	r2, [r3, #62]	@ 0x3e
 8003f34:	687b      	ldr	r3, [r7, #4]
 8003f36:	2201      	movs	r2, #1
 8003f38:	f883 203f 	strb.w	r2, [r3, #63]	@ 0x3f
 8003f3c:	687b      	ldr	r3, [r7, #4]
 8003f3e:	2201      	movs	r2, #1
 8003f40:	f883 2040 	strb.w	r2, [r3, #64]	@ 0x40
 8003f44:	687b      	ldr	r3, [r7, #4]
 8003f46:	2201      	movs	r2, #1
 8003f48:	f883 2041 	strb.w	r2, [r3, #65]	@ 0x41
 8003f4c:	687b      	ldr	r3, [r7, #4]
 8003f4e:	2201      	movs	r2, #1
 8003f50:	f883 2042 	strb.w	r2, [r3, #66]	@ 0x42
 8003f54:	687b      	ldr	r3, [r7, #4]
 8003f56:	2201      	movs	r2, #1
 8003f58:	f883 2043 	strb.w	r2, [r3, #67]	@ 0x43
 8003f5c:	687b      	ldr	r3, [r7, #4]
 8003f5e:	2201      	movs	r2, #1
 8003f60:	f883 2044 	strb.w	r2, [r3, #68]	@ 0x44
 8003f64:	687b      	ldr	r3, [r7, #4]
 8003f66:	2201      	movs	r2, #1
 8003f68:	f883 2045 	strb.w	r2, [r3, #69]	@ 0x45
 8003f6c:	687b      	ldr	r3, [r7, #4]
 8003f6e:	2201      	movs	r2, #1
 8003f70:	f883 203d 	strb.w	r2, [r3, #61]	@ 0x3d
 8003f74:	2300      	movs	r3, #0
 8003f76:	4618      	mov	r0, r3
 8003f78:	3708      	adds	r7, #8
 8003f7a:	46bd      	mov	sp, r7
 8003f7c:	bd80      	pop	{r7, pc}
	...

08003f80 <HAL_TIM_Base_Start>:
 8003f80:	b480      	push	{r7}
 8003f82:	b085      	sub	sp, #20
 8003f84:	af00      	add	r7, sp, #0
 8003f86:	6078      	str	r0, [r7, #4]
 8003f88:	687b      	ldr	r3, [r7, #4]
 8003f8a:	f893 303d 	ldrb.w	r3, [r3, #61]	@ 0x3d
 8003f8e:	b2db      	uxtb	r3, r3
 8003f90:	2b01      	cmp	r3, #1
 8003f92:	d001      	beq.n	8003f98 <HAL_TIM_Base_Start+0x18>
 8003f94:	2301      	movs	r3, #1
 8003f96:	e03c      	b.n	8004012 <HAL_TIM_Base_Start+0x92>
 8003f98:	687b      	ldr	r3, [r7, #4]
 8003f9a:	2202      	movs	r2, #2
 8003f9c:	f883 203d 	strb.w	r2, [r3, #61]	@ 0x3d
 8003fa0:	687b      	ldr	r3, [r7, #4]
 8003fa2:	681b      	ldr	r3, [r3, #0]
 8003fa4:	4a1e      	ldr	r2, [pc, #120]	@ (8004020 <HAL_TIM_Base_Start+0xa0>)
 8003fa6:	4293      	cmp	r3, r2
 8003fa8:	d018      	beq.n	8003fdc <HAL_TIM_Base_Start+0x5c>
 8003faa:	687b      	ldr	r3, [r7, #4]
 8003fac:	681b      	ldr	r3, [r3, #0]
 8003fae:	f1b3 4f80 	cmp.w	r3, #1073741824	@ 0x40000000
 8003fb2:	d013      	beq.n	8003fdc <HAL_TIM_Base_Start+0x5c>
 8003fb4:	687b      	ldr	r3, [r7, #4]
 8003fb6:	681b      	ldr	r3, [r3, #0]
 8003fb8:	4a1a      	ldr	r2, [pc, #104]	@ (8004024 <HAL_TIM_Base_Start+0xa4>)
 8003fba:	4293      	cmp	r3, r2
 8003fbc:	d00e      	beq.n	8003fdc <HAL_TIM_Base_Start+0x5c>
 8003fbe:	687b      	ldr	r3, [r7, #4]
 8003fc0:	681b      	ldr	r3, [r3, #0]
 8003fc2:	4a19      	ldr	r2, [pc, #100]	@ (8004028 <HAL_TIM_Base_Start+0xa8>)
 8003fc4:	4293      	cmp	r3, r2
 8003fc6:	d009      	beq.n	8003fdc <HAL_TIM_Base_Start+0x5c>
 8003fc8:	687b      	ldr	r3, [r7, #4]
 8003fca:	681b      	ldr	r3, [r3, #0]
 8003fcc:	4a17      	ldr	r2, [pc, #92]	@ (800402c <HAL_TIM_Base_Start+0xac>)
 8003fce:	4293      	cmp	r3, r2
 8003fd0:	d004      	beq.n	8003fdc <HAL_TIM_Base_Start+0x5c>
 8003fd2:	687b      	ldr	r3, [r7, #4]
 8003fd4:	681b      	ldr	r3, [r3, #0]
 8003fd6:	4a16      	ldr	r2, [pc, #88]	@ (8004030 <HAL_TIM_Base_Start+0xb0>)
 8003fd8:	4293      	cmp	r3, r2
 8003fda:	d111      	bne.n	8004000 <HAL_TIM_Base_Start+0x80>
 8003fdc:	687b      	ldr	r3, [r7, #4]
 8003fde:	681b      	ldr	r3, [r3, #0]
 8003fe0:	689b      	ldr	r3, [r3, #8]
 8003fe2:	f003 0307 	and.w	r3, r3, #7
 8003fe6:	60fb      	str	r3, [r7, #12]
 8003fe8:	68fb      	ldr	r3, [r7, #12]
 8003fea:	2b06      	cmp	r3, #6
 8003fec:	d010      	beq.n	8004010 <HAL_TIM_Base_Start+0x90>
 8003fee:	687b      	ldr	r3, [r7, #4]
 8003ff0:	681b      	ldr	r3, [r3, #0]
 8003ff2:	681a      	ldr	r2, [r3, #0]
 8003ff4:	687b      	ldr	r3, [r7, #4]
 8003ff6:	681b      	ldr	r3, [r3, #0]
 8003ff8:	f042 0201 	orr.w	r2, r2, #1
 8003ffc:	601a      	str	r2, [r3, #0]
 8003ffe:	e007      	b.n	8004010 <HAL_TIM_Base_Start+0x90>
 8004000:	687b      	ldr	r3, [r7, #4]
 8004002:	681b      	ldr	r3, [r3, #0]
 8004004:	681a      	ldr	r2, [r3, #0]
 8004006:	687b      	ldr	r3, [r7, #4]
 8004008:	681b      	ldr	r3, [r3, #0]
 800400a:	f042 0201 	orr.w	r2, r2, #1
 800400e:	601a      	str	r2, [r3, #0]
 8004010:	2300      	movs	r3, #0
 8004012:	4618      	mov	r0, r3
 8004014:	3714      	adds	r7, #20
 8004016:	46bd      	mov	sp, r7
 8004018:	f85d 7b04 	ldr.w	r7, [sp], #4
 800401c:	4770      	bx	lr
 800401e:	bf00      	nop
 8004020:	40010000 	.word	0x40010000
 8004024:	40000400 	.word	0x40000400
 8004028:	40000800 	.word	0x40000800
 800402c:	40000c00 	.word	0x40000c00
 8004030:	40014000 	.word	0x40014000

08004034 <HAL_TIM_PWM_Init>:
 8004034:	b580      	push	{r7, lr}
 8004036:	b082      	sub	sp, #8
 8004038:	af00      	add	r7, sp, #0
 800403a:	6078      	str	r0, [r7, #4]
 800403c:	687b      	ldr	r3, [r7, #4]
 800403e:	2b00      	cmp	r3, #0
 8004040:	d101      	bne.n	8004046 <HAL_TIM_PWM_Init+0x12>
 8004042:	2301      	movs	r3, #1
 8004044:	e041      	b.n	80040ca <HAL_TIM_PWM_Init+0x96>
 8004046:	687b      	ldr	r3, [r7, #4]
 8004048:	f893 303d 	ldrb.w	r3, [r3, #61]	@ 0x3d
 800404c:	b2db      	uxtb	r3, r3
 800404e:	2b00      	cmp	r3, #0
 8004050:	d106      	bne.n	8004060 <HAL_TIM_PWM_Init+0x2c>
 8004052:	687b      	ldr	r3, [r7, #4]
 8004054:	2200      	movs	r2, #0
 8004056:	f883 203c 	strb.w	r2, [r3, #60]	@ 0x3c
 800405a:	6878      	ldr	r0, [r7, #4]
 800405c:	f000 f839 	bl	80040d2 <HAL_TIM_PWM_MspInit>
 8004060:	687b      	ldr	r3, [r7, #4]
 8004062:	2202      	movs	r2, #2
 8004064:	f883 203d 	strb.w	r2, [r3, #61]	@ 0x3d
 8004068:	687b      	ldr	r3, [r7, #4]
 800406a:	681a      	ldr	r2, [r3, #0]
 800406c:	687b      	ldr	r3, [r7, #4]
 800406e:	3304      	adds	r3, #4
 8004070:	4619      	mov	r1, r3
 8004072:	4610      	mov	r0, r2
 8004074:	f000 fa72 	bl	800455c <TIM_Base_SetConfig>
 8004078:	687b      	ldr	r3, [r7, #4]
 800407a:	2201      	movs	r2, #1
 800407c:	f883 2046 	strb.w	r2, [r3, #70]	@ 0x46
 8004080:	687b      	ldr	r3, [r7, #4]
 8004082:	2201      	movs	r2, #1
 8004084:	f883 203e 	strb.w	r2, [r3, #62]	@ 0x3e
 8004088:	687b      	ldr	r3, [r7, #4]
 800408a:	2201      	movs	r2, #1
 800408c:	f883 203f 	strb.w	r2, [r3, #63]	@ 0x3f
 8004090:	687b      	ldr	r3, [r7, #4]
 8004092:	2201      	movs	r2, #1
 8004094:	f883 2040 	strb.w	r2, [r3, #64]	@ 0x40
 8004098:	687b      	ldr	r3, [r7, #4]
 800409a:	2201      	movs	r2, #1
 800409c:	f883 2041 	strb.w	r2, [r3, #65]	@ 0x41
 80040a0:	687b      	ldr	r3, [r7, #4]
 80040a2:	2201      	movs	r2, #1
 80040a4:	f883 2042 	strb.w	r2, [r3, #66]	@ 0x42
 80040a8:	687b      	ldr	r3, [r7, #4]
 80040aa:	2201      	movs	r2, #1
 80040ac:	f883 2043 	strb.w	r2, [r3, #67]	@ 0x43
 80040b0:	687b      	ldr	r3, [r7, #4]
 80040b2:	2201      	movs	r2, #1
 80040b4:	f883 2044 	strb.w	r2, [r3, #68]	@ 0x44
 80040b8:	687b      	ldr	r3, [r7, #4]
 80040ba:	2201      	movs	r2, #1
 80040bc:	f883 2045 	strb.w	r2, [r3, #69]	@ 0x45
 80040c0:	687b      	ldr	r3, [r7, #4]
 80040c2:	2201      	movs	r2, #1
 80040c4:	f883 203d 	strb.w	r2, [r3, #61]	@ 0x3d
 80040c8:	2300      	movs	r3, #0
 80040ca:	4618      	mov	r0, r3
 80040cc:	3708      	adds	r7, #8
 80040ce:	46bd      	mov	sp, r7
 80040d0:	bd80      	pop	{r7, pc}

080040d2 <HAL_TIM_PWM_MspInit>:
 80040d2:	b480      	push	{r7}
 80040d4:	b083      	sub	sp, #12
 80040d6:	af00      	add	r7, sp, #0
 80040d8:	6078      	str	r0, [r7, #4]
 80040da:	bf00      	nop
 80040dc:	370c      	adds	r7, #12
 80040de:	46bd      	mov	sp, r7
 80040e0:	f85d 7b04 	ldr.w	r7, [sp], #4
 80040e4:	4770      	bx	lr
	...

080040e8 <HAL_TIM_PWM_Start>:
 80040e8:	b580      	push	{r7, lr}
 80040ea:	b084      	sub	sp, #16
 80040ec:	af00      	add	r7, sp, #0
 80040ee:	6078      	str	r0, [r7, #4]
 80040f0:	6039      	str	r1, [r7, #0]
 80040f2:	683b      	ldr	r3, [r7, #0]
 80040f4:	2b00      	cmp	r3, #0
 80040f6:	d109      	bne.n	800410c <HAL_TIM_PWM_Start+0x24>
 80040f8:	687b      	ldr	r3, [r7, #4]
 80040fa:	f893 303e 	ldrb.w	r3, [r3, #62]	@ 0x3e
 80040fe:	b2db      	uxtb	r3, r3
 8004100:	2b01      	cmp	r3, #1
 8004102:	bf14      	ite	ne
 8004104:	2301      	movne	r3, #1
 8004106:	2300      	moveq	r3, #0
 8004108:	b2db      	uxtb	r3, r3
 800410a:	e022      	b.n	8004152 <HAL_TIM_PWM_Start+0x6a>
 800410c:	683b      	ldr	r3, [r7, #0]
 800410e:	2b04      	cmp	r3, #4
 8004110:	d109      	bne.n	8004126 <HAL_TIM_PWM_Start+0x3e>
 8004112:	687b      	ldr	r3, [r7, #4]
 8004114:	f893 303f 	ldrb.w	r3, [r3, #63]	@ 0x3f
 8004118:	b2db      	uxtb	r3, r3
 800411a:	2b01      	cmp	r3, #1
 800411c:	bf14      	ite	ne
 800411e:	2301      	movne	r3, #1
 8004120:	2300      	moveq	r3, #0
 8004122:	b2db      	uxtb	r3, r3
 8004124:	e015      	b.n	8004152 <HAL_TIM_PWM_Start+0x6a>
 8004126:	683b      	ldr	r3, [r7, #0]
 8004128:	2b08      	cmp	r3, #8
 800412a:	d109      	bne.n	8004140 <HAL_TIM_PWM_Start+0x58>
 800412c:	687b      	ldr	r3, [r7, #4]
 800412e:	f893 3040 	ldrb.w	r3, [r3, #64]	@ 0x40
 8004132:	b2db      	uxtb	r3, r3
 8004134:	2b01      	cmp	r3, #1
 8004136:	bf14      	ite	ne
 8004138:	2301      	movne	r3, #1
 800413a:	2300      	moveq	r3, #0
 800413c:	b2db      	uxtb	r3, r3
 800413e:	e008      	b.n	8004152 <HAL_TIM_PWM_Start+0x6a>
 8004140:	687b      	ldr	r3, [r7, #4]
 8004142:	f893 3041 	ldrb.w	r3, [r3, #65]	@ 0x41
 8004146:	b2db      	uxtb	r3, r3
 8004148:	2b01      	cmp	r3, #1
 800414a:	bf14      	ite	ne
 800414c:	2301      	movne	r3, #1
 800414e:	2300      	moveq	r3, #0
 8004150:	b2db      	uxtb	r3, r3
 8004152:	2b00      	cmp	r3, #0
 8004154:	d001      	beq.n	800415a <HAL_TIM_PWM_Start+0x72>
 8004156:	2301      	movs	r3, #1
 8004158:	e068      	b.n	800422c <HAL_TIM_PWM_Start+0x144>
 800415a:	683b      	ldr	r3, [r7, #0]
 800415c:	2b00      	cmp	r3, #0
 800415e:	d104      	bne.n	800416a <HAL_TIM_PWM_Start+0x82>
 8004160:	687b      	ldr	r3, [r7, #4]
 8004162:	2202      	movs	r2, #2
 8004164:	f883 203e 	strb.w	r2, [r3, #62]	@ 0x3e
 8004168:	e013      	b.n	8004192 <HAL_TIM_PWM_Start+0xaa>
 800416a:	683b      	ldr	r3, [r7, #0]
 800416c:	2b04      	cmp	r3, #4
 800416e:	d104      	bne.n	800417a <HAL_TIM_PWM_Start+0x92>
 8004170:	687b      	ldr	r3, [r7, #4]
 8004172:	2202      	movs	r2, #2
 8004174:	f883 203f 	strb.w	r2, [r3, #63]	@ 0x3f
 8004178:	e00b      	b.n	8004192 <HAL_TIM_PWM_Start+0xaa>
 800417a:	683b      	ldr	r3, [r7, #0]
 800417c:	2b08      	cmp	r3, #8
 800417e:	d104      	bne.n	800418a <HAL_TIM_PWM_Start+0xa2>
 8004180:	687b      	ldr	r3, [r7, #4]
 8004182:	2202      	movs	r2, #2
 8004184:	f883 2040 	strb.w	r2, [r3, #64]	@ 0x40
 8004188:	e003      	b.n	8004192 <HAL_TIM_PWM_Start+0xaa>
 800418a:	687b      	ldr	r3, [r7, #4]
 800418c:	2202      	movs	r2, #2
 800418e:	f883 2041 	strb.w	r2, [r3, #65]	@ 0x41
 8004192:	687b      	ldr	r3, [r7, #4]
 8004194:	681b      	ldr	r3, [r3, #0]
 8004196:	2201      	movs	r2, #1
 8004198:	6839      	ldr	r1, [r7, #0]
 800419a:	4618      	mov	r0, r3
 800419c:	f000 fc8a 	bl	8004ab4 <TIM_CCxChannelCmd>
 80041a0:	687b      	ldr	r3, [r7, #4]
 80041a2:	681b      	ldr	r3, [r3, #0]
 80041a4:	4a23      	ldr	r2, [pc, #140]	@ (8004234 <HAL_TIM_PWM_Start+0x14c>)
 80041a6:	4293      	cmp	r3, r2
 80041a8:	d107      	bne.n	80041ba <HAL_TIM_PWM_Start+0xd2>
 80041aa:	687b      	ldr	r3, [r7, #4]
 80041ac:	681b      	ldr	r3, [r3, #0]
 80041ae:	6c5a      	ldr	r2, [r3, #68]	@ 0x44
 80041b0:	687b      	ldr	r3, [r7, #4]
 80041b2:	681b      	ldr	r3, [r3, #0]
 80041b4:	f442 4200 	orr.w	r2, r2, #32768	@ 0x8000
 80041b8:	645a      	str	r2, [r3, #68]	@ 0x44
 80041ba:	687b      	ldr	r3, [r7, #4]
 80041bc:	681b      	ldr	r3, [r3, #0]
 80041be:	4a1d      	ldr	r2, [pc, #116]	@ (8004234 <HAL_TIM_PWM_Start+0x14c>)
 80041c0:	4293      	cmp	r3, r2
 80041c2:	d018      	beq.n	80041f6 <HAL_TIM_PWM_Start+0x10e>
 80041c4:	687b      	ldr	r3, [r7, #4]
 80041c6:	681b      	ldr	r3, [r3, #0]
 80041c8:	f1b3 4f80 	cmp.w	r3, #1073741824	@ 0x40000000
 80041cc:	d013      	beq.n	80041f6 <HAL_TIM_PWM_Start+0x10e>
 80041ce:	687b      	ldr	r3, [r7, #4]
 80041d0:	681b      	ldr	r3, [r3, #0]
 80041d2:	4a19      	ldr	r2, [pc, #100]	@ (8004238 <HAL_TIM_PWM_Start+0x150>)
 80041d4:	4293      	cmp	r3, r2
 80041d6:	d00e      	beq.n	80041f6 <HAL_TIM_PWM_Start+0x10e>
 80041d8:	687b      	ldr	r3, [r7, #4]
 80041da:	681b      	ldr	r3, [r3, #0]
 80041dc:	4a17      	ldr	r2, [pc, #92]	@ (800423c <HAL_TIM_PWM_Start+0x154>)
 80041de:	4293      	cmp	r3, r2
 80041e0:	d009      	beq.n	80041f6 <HAL_TIM_PWM_Start+0x10e>
 80041e2:	687b      	ldr	r3, [r7, #4]
 80041e4:	681b      	ldr	r3, [r3, #0]
 80041e6:	4a16      	ldr	r2, [pc, #88]	@ (8004240 <HAL_TIM_PWM_Start+0x158>)
 80041e8:	4293      	cmp	r3, r2
 80041ea:	d004      	beq.n	80041f6 <HAL_TIM_PWM_Start+0x10e>
 80041ec:	687b      	ldr	r3, [r7, #4]
 80041ee:	681b      	ldr	r3, [r3, #0]
 80041f0:	4a14      	ldr	r2, [pc, #80]	@ (8004244 <HAL_TIM_PWM_Start+0x15c>)
 80041f2:	4293      	cmp	r3, r2
 80041f4:	d111      	bne.n	800421a <HAL_TIM_PWM_Start+0x132>
 80041f6:	687b      	ldr	r3, [r7, #4]
 80041f8:	681b      	ldr	r3, [r3, #0]
 80041fa:	689b      	ldr	r3, [r3, #8]
 80041fc:	f003 0307 	and.w	r3, r3, #7
 8004200:	60fb      	str	r3, [r7, #12]
 8004202:	68fb      	ldr	r3, [r7, #12]
 8004204:	2b06      	cmp	r3, #6
 8004206:	d010      	beq.n	800422a <HAL_TIM_PWM_Start+0x142>
 8004208:	687b      	ldr	r3, [r7, #4]
 800420a:	681b      	ldr	r3, [r3, #0]
 800420c:	681a      	ldr	r2, [r3, #0]
 800420e:	687b      	ldr	r3, [r7, #4]
 8004210:	681b      	ldr	r3, [r3, #0]
 8004212:	f042 0201 	orr.w	r2, r2, #1
 8004216:	601a      	str	r2, [r3, #0]
 8004218:	e007      	b.n	800422a <HAL_TIM_PWM_Start+0x142>
 800421a:	687b      	ldr	r3, [r7, #4]
 800421c:	681b      	ldr	r3, [r3, #0]
 800421e:	681a      	ldr	r2, [r3, #0]
 8004220:	687b      	ldr	r3, [r7, #4]
 8004222:	681b      	ldr	r3, [r3, #0]
 8004224:	f042 0201 	orr.w	r2, r2, #1
 8004228:	601a      	str	r2, [r3, #0]
 800422a:	2300      	movs	r3, #0
 800422c:	4618      	mov	r0, r3
 800422e:	3710      	adds	r7, #16
 8004230:	46bd      	mov	sp, r7
 8004232:	bd80      	pop	{r7, pc}
 8004234:	40010000 	.word	0x40010000
 8004238:	40000400 	.word	0x40000400
 800423c:	40000800 	.word	0x40000800
 8004240:	40000c00 	.word	0x40000c00
 8004244:	40014000 	.word	0x40014000

08004248 <HAL_TIM_PWM_ConfigChannel>:
 8004248:	b580      	push	{r7, lr}
 800424a:	b086      	sub	sp, #24
 800424c:	af00      	add	r7, sp, #0
 800424e:	60f8      	str	r0, [r7, #12]
 8004250:	60b9      	str	r1, [r7, #8]
 8004252:	607a      	str	r2, [r7, #4]
 8004254:	2300      	movs	r3, #0
 8004256:	75fb      	strb	r3, [r7, #23]
 8004258:	68fb      	ldr	r3, [r7, #12]
 800425a:	f893 303c 	ldrb.w	r3, [r3, #60]	@ 0x3c
 800425e:	2b01      	cmp	r3, #1
 8004260:	d101      	bne.n	8004266 <HAL_TIM_PWM_ConfigChannel+0x1e>
 8004262:	2302      	movs	r3, #2
 8004264:	e0ae      	b.n	80043c4 <HAL_TIM_PWM_ConfigChannel+0x17c>
 8004266:	68fb      	ldr	r3, [r7, #12]
 8004268:	2201      	movs	r2, #1
 800426a:	f883 203c 	strb.w	r2, [r3, #60]	@ 0x3c
 800426e:	687b      	ldr	r3, [r7, #4]
 8004270:	2b0c      	cmp	r3, #12
 8004272:	f200 809f 	bhi.w	80043b4 <HAL_TIM_PWM_ConfigChannel+0x16c>
 8004276:	a201      	add	r2, pc, #4	@ (adr r2, 800427c <HAL_TIM_PWM_ConfigChannel+0x34>)
 8004278:	f852 f023 	ldr.w	pc, [r2, r3, lsl #2]
 800427c:	080042b1 	.word	0x080042b1
 8004280:	080043b5 	.word	0x080043b5
 8004284:	080043b5 	.word	0x080043b5
 8004288:	080043b5 	.word	0x080043b5
 800428c:	080042f1 	.word	0x080042f1
 8004290:	080043b5 	.word	0x080043b5
 8004294:	080043b5 	.word	0x080043b5
 8004298:	080043b5 	.word	0x080043b5
 800429c:	08004333 	.word	0x08004333
 80042a0:	080043b5 	.word	0x080043b5
 80042a4:	080043b5 	.word	0x080043b5
 80042a8:	080043b5 	.word	0x080043b5
 80042ac:	08004373 	.word	0x08004373
 80042b0:	68fb      	ldr	r3, [r7, #12]
 80042b2:	681b      	ldr	r3, [r3, #0]
 80042b4:	68b9      	ldr	r1, [r7, #8]
 80042b6:	4618      	mov	r0, r3
 80042b8:	f000 f9d6 	bl	8004668 <TIM_OC1_SetConfig>
 80042bc:	68fb      	ldr	r3, [r7, #12]
 80042be:	681b      	ldr	r3, [r3, #0]
 80042c0:	699a      	ldr	r2, [r3, #24]
 80042c2:	68fb      	ldr	r3, [r7, #12]
 80042c4:	681b      	ldr	r3, [r3, #0]
 80042c6:	f042 0208 	orr.w	r2, r2, #8
 80042ca:	619a      	str	r2, [r3, #24]
 80042cc:	68fb      	ldr	r3, [r7, #12]
 80042ce:	681b      	ldr	r3, [r3, #0]
 80042d0:	699a      	ldr	r2, [r3, #24]
 80042d2:	68fb      	ldr	r3, [r7, #12]
 80042d4:	681b      	ldr	r3, [r3, #0]
 80042d6:	f022 0204 	bic.w	r2, r2, #4
 80042da:	619a      	str	r2, [r3, #24]
 80042dc:	68fb      	ldr	r3, [r7, #12]
 80042de:	681b      	ldr	r3, [r3, #0]
 80042e0:	6999      	ldr	r1, [r3, #24]
 80042e2:	68bb      	ldr	r3, [r7, #8]
 80042e4:	691a      	ldr	r2, [r3, #16]
 80042e6:	68fb      	ldr	r3, [r7, #12]
 80042e8:	681b      	ldr	r3, [r3, #0]
 80042ea:	430a      	orrs	r2, r1
 80042ec:	619a      	str	r2, [r3, #24]
 80042ee:	e064      	b.n	80043ba <HAL_TIM_PWM_ConfigChannel+0x172>
 80042f0:	68fb      	ldr	r3, [r7, #12]
 80042f2:	681b      	ldr	r3, [r3, #0]
 80042f4:	68b9      	ldr	r1, [r7, #8]
 80042f6:	4618      	mov	r0, r3
 80042f8:	f000 fa1c 	bl	8004734 <TIM_OC2_SetConfig>
 80042fc:	68fb      	ldr	r3, [r7, #12]
 80042fe:	681b      	ldr	r3, [r3, #0]
 8004300:	699a      	ldr	r2, [r3, #24]
 8004302:	68fb      	ldr	r3, [r7, #12]
 8004304:	681b      	ldr	r3, [r3, #0]
 8004306:	f442 6200 	orr.w	r2, r2, #2048	@ 0x800
 800430a:	619a      	str	r2, [r3, #24]
 800430c:	68fb      	ldr	r3, [r7, #12]
 800430e:	681b      	ldr	r3, [r3, #0]
 8004310:	699a      	ldr	r2, [r3, #24]
 8004312:	68fb      	ldr	r3, [r7, #12]
 8004314:	681b      	ldr	r3, [r3, #0]
 8004316:	f422 6280 	bic.w	r2, r2, #1024	@ 0x400
 800431a:	619a      	str	r2, [r3, #24]
 800431c:	68fb      	ldr	r3, [r7, #12]
 800431e:	681b      	ldr	r3, [r3, #0]
 8004320:	6999      	ldr	r1, [r3, #24]
 8004322:	68bb      	ldr	r3, [r7, #8]
 8004324:	691b      	ldr	r3, [r3, #16]
 8004326:	021a      	lsls	r2, r3, #8
 8004328:	68fb      	ldr	r3, [r7, #12]
 800432a:	681b      	ldr	r3, [r3, #0]
 800432c:	430a      	orrs	r2, r1
 800432e:	619a      	str	r2, [r3, #24]
 8004330:	e043      	b.n	80043ba <HAL_TIM_PWM_ConfigChannel+0x172>
 8004332:	68fb      	ldr	r3, [r7, #12]
 8004334:	681b      	ldr	r3, [r3, #0]
 8004336:	68b9      	ldr	r1, [r7, #8]
 8004338:	4618      	mov	r0, r3
 800433a:	f000 fa67 	bl	800480c <TIM_OC3_SetConfig>
 800433e:	68fb      	ldr	r3, [r7, #12]
 8004340:	681b      	ldr	r3, [r3, #0]
 8004342:	69da      	ldr	r2, [r3, #28]
 8004344:	68fb      	ldr	r3, [r7, #12]
 8004346:	681b      	ldr	r3, [r3, #0]
 8004348:	f042 0208 	orr.w	r2, r2, #8
 800434c:	61da      	str	r2, [r3, #28]
 800434e:	68fb      	ldr	r3, [r7, #12]
 8004350:	681b      	ldr	r3, [r3, #0]
 8004352:	69da      	ldr	r2, [r3, #28]
 8004354:	68fb      	ldr	r3, [r7, #12]
 8004356:	681b      	ldr	r3, [r3, #0]
 8004358:	f022 0204 	bic.w	r2, r2, #4
 800435c:	61da      	str	r2, [r3, #28]
 800435e:	68fb      	ldr	r3, [r7, #12]
 8004360:	681b      	ldr	r3, [r3, #0]
 8004362:	69d9      	ldr	r1, [r3, #28]
 8004364:	68bb      	ldr	r3, [r7, #8]
 8004366:	691a      	ldr	r2, [r3, #16]
 8004368:	68fb      	ldr	r3, [r7, #12]
 800436a:	681b      	ldr	r3, [r3, #0]
 800436c:	430a      	orrs	r2, r1
 800436e:	61da      	str	r2, [r3, #28]
 8004370:	e023      	b.n	80043ba <HAL_TIM_PWM_ConfigChannel+0x172>
 8004372:	68fb      	ldr	r3, [r7, #12]
 8004374:	681b      	ldr	r3, [r3, #0]
 8004376:	68b9      	ldr	r1, [r7, #8]
 8004378:	4618      	mov	r0, r3
 800437a:	f000 fab1 	bl	80048e0 <TIM_OC4_SetConfig>
 800437e:	68fb      	ldr	r3, [r7, #12]
 8004380:	681b      	ldr	r3, [r3, #0]
 8004382:	69da      	ldr	r2, [r3, #28]
 8004384:	68fb      	ldr	r3, [r7, #12]
 8004386:	681b      	ldr	r3, [r3, #0]
 8004388:	f442 6200 	orr.w	r2, r2, #2048	@ 0x800
 800438c:	61da      	str	r2, [r3, #28]
 800438e:	68fb      	ldr	r3, [r7, #12]
 8004390:	681b      	ldr	r3, [r3, #0]
 8004392:	69da      	ldr	r2, [r3, #28]
 8004394:	68fb      	ldr	r3, [r7, #12]
 8004396:	681b      	ldr	r3, [r3, #0]
 8004398:	f422 6280 	bic.w	r2, r2, #1024	@ 0x400
 800439c:	61da      	str	r2, [r3, #28]
 800439e:	68fb      	ldr	r3, [r7, #12]
 80043a0:	681b      	ldr	r3, [r3, #0]
 80043a2:	69d9      	ldr	r1, [r3, #28]
 80043a4:	68bb      	ldr	r3, [r7, #8]
 80043a6:	691b      	ldr	r3, [r3, #16]
 80043a8:	021a      	lsls	r2, r3, #8
 80043aa:	68fb      	ldr	r3, [r7, #12]
 80043ac:	681b      	ldr	r3, [r3, #0]
 80043ae:	430a      	orrs	r2, r1
 80043b0:	61da      	str	r2, [r3, #28]
 80043b2:	e002      	b.n	80043ba <HAL_TIM_PWM_ConfigChannel+0x172>
 80043b4:	2301      	movs	r3, #1
 80043b6:	75fb      	strb	r3, [r7, #23]
 80043b8:	bf00      	nop
 80043ba:	68fb      	ldr	r3, [r7, #12]
 80043bc:	2200      	movs	r2, #0
 80043be:	f883 203c 	strb.w	r2, [r3, #60]	@ 0x3c
 80043c2:	7dfb      	ldrb	r3, [r7, #23]
 80043c4:	4618      	mov	r0, r3
 80043c6:	3718      	adds	r7, #24
 80043c8:	46bd      	mov	sp, r7
 80043ca:	bd80      	pop	{r7, pc}

080043cc <HAL_TIM_ConfigClockSource>:
 80043cc:	b580      	push	{r7, lr}
 80043ce:	b084      	sub	sp, #16
 80043d0:	af00      	add	r7, sp, #0
 80043d2:	6078      	str	r0, [r7, #4]
 80043d4:	6039      	str	r1, [r7, #0]
 80043d6:	2300      	movs	r3, #0
 80043d8:	73fb      	strb	r3, [r7, #15]
 80043da:	687b      	ldr	r3, [r7, #4]
 80043dc:	f893 303c 	ldrb.w	r3, [r3, #60]	@ 0x3c
 80043e0:	2b01      	cmp	r3, #1
 80043e2:	d101      	bne.n	80043e8 <HAL_TIM_ConfigClockSource+0x1c>
 80043e4:	2302      	movs	r3, #2
 80043e6:	e0b4      	b.n	8004552 <HAL_TIM_ConfigClockSource+0x186>
 80043e8:	687b      	ldr	r3, [r7, #4]
 80043ea:	2201      	movs	r2, #1
 80043ec:	f883 203c 	strb.w	r2, [r3, #60]	@ 0x3c
 80043f0:	687b      	ldr	r3, [r7, #4]
 80043f2:	2202      	movs	r2, #2
 80043f4:	f883 203d 	strb.w	r2, [r3, #61]	@ 0x3d
 80043f8:	687b      	ldr	r3, [r7, #4]
 80043fa:	681b      	ldr	r3, [r3, #0]
 80043fc:	689b      	ldr	r3, [r3, #8]
 80043fe:	60bb      	str	r3, [r7, #8]
 8004400:	68bb      	ldr	r3, [r7, #8]
 8004402:	f023 0377 	bic.w	r3, r3, #119	@ 0x77
 8004406:	60bb      	str	r3, [r7, #8]
 8004408:	68bb      	ldr	r3, [r7, #8]
 800440a:	f423 437f 	bic.w	r3, r3, #65280	@ 0xff00
 800440e:	60bb      	str	r3, [r7, #8]
 8004410:	687b      	ldr	r3, [r7, #4]
 8004412:	681b      	ldr	r3, [r3, #0]
 8004414:	68ba      	ldr	r2, [r7, #8]
 8004416:	609a      	str	r2, [r3, #8]
 8004418:	683b      	ldr	r3, [r7, #0]
 800441a:	681b      	ldr	r3, [r3, #0]
 800441c:	f5b3 5f00 	cmp.w	r3, #8192	@ 0x2000
 8004420:	d03e      	beq.n	80044a0 <HAL_TIM_ConfigClockSource+0xd4>
 8004422:	f5b3 5f00 	cmp.w	r3, #8192	@ 0x2000
 8004426:	f200 8087 	bhi.w	8004538 <HAL_TIM_ConfigClockSource+0x16c>
 800442a:	f5b3 5f80 	cmp.w	r3, #4096	@ 0x1000
 800442e:	f000 8086 	beq.w	800453e <HAL_TIM_ConfigClockSource+0x172>
 8004432:	f5b3 5f80 	cmp.w	r3, #4096	@ 0x1000
 8004436:	d87f      	bhi.n	8004538 <HAL_TIM_ConfigClockSource+0x16c>
 8004438:	2b70      	cmp	r3, #112	@ 0x70
 800443a:	d01a      	beq.n	8004472 <HAL_TIM_ConfigClockSource+0xa6>
 800443c:	2b70      	cmp	r3, #112	@ 0x70
 800443e:	d87b      	bhi.n	8004538 <HAL_TIM_ConfigClockSource+0x16c>
 8004440:	2b60      	cmp	r3, #96	@ 0x60
 8004442:	d050      	beq.n	80044e6 <HAL_TIM_ConfigClockSource+0x11a>
 8004444:	2b60      	cmp	r3, #96	@ 0x60
 8004446:	d877      	bhi.n	8004538 <HAL_TIM_ConfigClockSource+0x16c>
 8004448:	2b50      	cmp	r3, #80	@ 0x50
 800444a:	d03c      	beq.n	80044c6 <HAL_TIM_ConfigClockSource+0xfa>
 800444c:	2b50      	cmp	r3, #80	@ 0x50
 800444e:	d873      	bhi.n	8004538 <HAL_TIM_ConfigClockSource+0x16c>
 8004450:	2b40      	cmp	r3, #64	@ 0x40
 8004452:	d058      	beq.n	8004506 <HAL_TIM_ConfigClockSource+0x13a>
 8004454:	2b40      	cmp	r3, #64	@ 0x40
 8004456:	d86f      	bhi.n	8004538 <HAL_TIM_ConfigClockSource+0x16c>
 8004458:	2b30      	cmp	r3, #48	@ 0x30
 800445a:	d064      	beq.n	8004526 <HAL_TIM_ConfigClockSource+0x15a>
 800445c:	2b30      	cmp	r3, #48	@ 0x30
 800445e:	d86b      	bhi.n	8004538 <HAL_TIM_ConfigClockSource+0x16c>
 8004460:	2b20      	cmp	r3, #32
 8004462:	d060      	beq.n	8004526 <HAL_TIM_ConfigClockSource+0x15a>
 8004464:	2b20      	cmp	r3, #32
 8004466:	d867      	bhi.n	8004538 <HAL_TIM_ConfigClockSource+0x16c>
 8004468:	2b00      	cmp	r3, #0
 800446a:	d05c      	beq.n	8004526 <HAL_TIM_ConfigClockSource+0x15a>
 800446c:	2b10      	cmp	r3, #16
 800446e:	d05a      	beq.n	8004526 <HAL_TIM_ConfigClockSource+0x15a>
 8004470:	e062      	b.n	8004538 <HAL_TIM_ConfigClockSource+0x16c>
 8004472:	687b      	ldr	r3, [r7, #4]
 8004474:	6818      	ldr	r0, [r3, #0]
 8004476:	683b      	ldr	r3, [r7, #0]
 8004478:	6899      	ldr	r1, [r3, #8]
 800447a:	683b      	ldr	r3, [r7, #0]
 800447c:	685a      	ldr	r2, [r3, #4]
 800447e:	683b      	ldr	r3, [r7, #0]
 8004480:	68db      	ldr	r3, [r3, #12]
 8004482:	f000 faf7 	bl	8004a74 <TIM_ETR_SetConfig>
 8004486:	687b      	ldr	r3, [r7, #4]
 8004488:	681b      	ldr	r3, [r3, #0]
 800448a:	689b      	ldr	r3, [r3, #8]
 800448c:	60bb      	str	r3, [r7, #8]
 800448e:	68bb      	ldr	r3, [r7, #8]
 8004490:	f043 0377 	orr.w	r3, r3, #119	@ 0x77
 8004494:	60bb      	str	r3, [r7, #8]
 8004496:	687b      	ldr	r3, [r7, #4]
 8004498:	681b      	ldr	r3, [r3, #0]
 800449a:	68ba      	ldr	r2, [r7, #8]
 800449c:	609a      	str	r2, [r3, #8]
 800449e:	e04f      	b.n	8004540 <HAL_TIM_ConfigClockSource+0x174>
 80044a0:	687b      	ldr	r3, [r7, #4]
 80044a2:	6818      	ldr	r0, [r3, #0]
 80044a4:	683b      	ldr	r3, [r7, #0]
 80044a6:	6899      	ldr	r1, [r3, #8]
 80044a8:	683b      	ldr	r3, [r7, #0]
 80044aa:	685a      	ldr	r2, [r3, #4]
 80044ac:	683b      	ldr	r3, [r7, #0]
 80044ae:	68db      	ldr	r3, [r3, #12]
 80044b0:	f000 fae0 	bl	8004a74 <TIM_ETR_SetConfig>
 80044b4:	687b      	ldr	r3, [r7, #4]
 80044b6:	681b      	ldr	r3, [r3, #0]
 80044b8:	689a      	ldr	r2, [r3, #8]
 80044ba:	687b      	ldr	r3, [r7, #4]
 80044bc:	681b      	ldr	r3, [r3, #0]
 80044be:	f442 4280 	orr.w	r2, r2, #16384	@ 0x4000
 80044c2:	609a      	str	r2, [r3, #8]
 80044c4:	e03c      	b.n	8004540 <HAL_TIM_ConfigClockSource+0x174>
 80044c6:	687b      	ldr	r3, [r7, #4]
 80044c8:	6818      	ldr	r0, [r3, #0]
 80044ca:	683b      	ldr	r3, [r7, #0]
 80044cc:	6859      	ldr	r1, [r3, #4]
 80044ce:	683b      	ldr	r3, [r7, #0]
 80044d0:	68db      	ldr	r3, [r3, #12]
 80044d2:	461a      	mov	r2, r3
 80044d4:	f000 fa54 	bl	8004980 <TIM_TI1_ConfigInputStage>
 80044d8:	687b      	ldr	r3, [r7, #4]
 80044da:	681b      	ldr	r3, [r3, #0]
 80044dc:	2150      	movs	r1, #80	@ 0x50
 80044de:	4618      	mov	r0, r3
 80044e0:	f000 faad 	bl	8004a3e <TIM_ITRx_SetConfig>
 80044e4:	e02c      	b.n	8004540 <HAL_TIM_ConfigClockSource+0x174>
 80044e6:	687b      	ldr	r3, [r7, #4]
 80044e8:	6818      	ldr	r0, [r3, #0]
 80044ea:	683b      	ldr	r3, [r7, #0]
 80044ec:	6859      	ldr	r1, [r3, #4]
 80044ee:	683b      	ldr	r3, [r7, #0]
 80044f0:	68db      	ldr	r3, [r3, #12]
 80044f2:	461a      	mov	r2, r3
 80044f4:	f000 fa73 	bl	80049de <TIM_TI2_ConfigInputStage>
 80044f8:	687b      	ldr	r3, [r7, #4]
 80044fa:	681b      	ldr	r3, [r3, #0]
 80044fc:	2160      	movs	r1, #96	@ 0x60
 80044fe:	4618      	mov	r0, r3
 8004500:	f000 fa9d 	bl	8004a3e <TIM_ITRx_SetConfig>
 8004504:	e01c      	b.n	8004540 <HAL_TIM_ConfigClockSource+0x174>
 8004506:	687b      	ldr	r3, [r7, #4]
 8004508:	6818      	ldr	r0, [r3, #0]
 800450a:	683b      	ldr	r3, [r7, #0]
 800450c:	6859      	ldr	r1, [r3, #4]
 800450e:	683b      	ldr	r3, [r7, #0]
 8004510:	68db      	ldr	r3, [r3, #12]
 8004512:	461a      	mov	r2, r3
 8004514:	f000 fa34 	bl	8004980 <TIM_TI1_ConfigInputStage>
 8004518:	687b      	ldr	r3, [r7, #4]
 800451a:	681b      	ldr	r3, [r3, #0]
 800451c:	2140      	movs	r1, #64	@ 0x40
 800451e:	4618      	mov	r0, r3
 8004520:	f000 fa8d 	bl	8004a3e <TIM_ITRx_SetConfig>
 8004524:	e00c      	b.n	8004540 <HAL_TIM_ConfigClockSource+0x174>
 8004526:	687b      	ldr	r3, [r7, #4]
 8004528:	681a      	ldr	r2, [r3, #0]
 800452a:	683b      	ldr	r3, [r7, #0]
 800452c:	681b      	ldr	r3, [r3, #0]
 800452e:	4619      	mov	r1, r3
 8004530:	4610      	mov	r0, r2
 8004532:	f000 fa84 	bl	8004a3e <TIM_ITRx_SetConfig>
 8004536:	e003      	b.n	8004540 <HAL_TIM_ConfigClockSource+0x174>
 8004538:	2301      	movs	r3, #1
 800453a:	73fb      	strb	r3, [r7, #15]
 800453c:	e000      	b.n	8004540 <HAL_TIM_ConfigClockSource+0x174>
 800453e:	bf00      	nop
 8004540:	687b      	ldr	r3, [r7, #4]
 8004542:	2201      	movs	r2, #1
 8004544:	f883 203d 	strb.w	r2, [r3, #61]	@ 0x3d
 8004548:	687b      	ldr	r3, [r7, #4]
 800454a:	2200      	movs	r2, #0
 800454c:	f883 203c 	strb.w	r2, [r3, #60]	@ 0x3c
 8004550:	7bfb      	ldrb	r3, [r7, #15]
 8004552:	4618      	mov	r0, r3
 8004554:	3710      	adds	r7, #16
 8004556:	46bd      	mov	sp, r7
 8004558:	bd80      	pop	{r7, pc}
	...

0800455c <TIM_Base_SetConfig>:
 800455c:	b480      	push	{r7}
 800455e:	b085      	sub	sp, #20
 8004560:	af00      	add	r7, sp, #0
 8004562:	6078      	str	r0, [r7, #4]
 8004564:	6039      	str	r1, [r7, #0]
 8004566:	687b      	ldr	r3, [r7, #4]
 8004568:	681b      	ldr	r3, [r3, #0]
 800456a:	60fb      	str	r3, [r7, #12]
 800456c:	687b      	ldr	r3, [r7, #4]
 800456e:	4a37      	ldr	r2, [pc, #220]	@ (800464c <TIM_Base_SetConfig+0xf0>)
 8004570:	4293      	cmp	r3, r2
 8004572:	d00f      	beq.n	8004594 <TIM_Base_SetConfig+0x38>
 8004574:	687b      	ldr	r3, [r7, #4]
 8004576:	f1b3 4f80 	cmp.w	r3, #1073741824	@ 0x40000000
 800457a:	d00b      	beq.n	8004594 <TIM_Base_SetConfig+0x38>
 800457c:	687b      	ldr	r3, [r7, #4]
 800457e:	4a34      	ldr	r2, [pc, #208]	@ (8004650 <TIM_Base_SetConfig+0xf4>)
 8004580:	4293      	cmp	r3, r2
 8004582:	d007      	beq.n	8004594 <TIM_Base_SetConfig+0x38>
 8004584:	687b      	ldr	r3, [r7, #4]
 8004586:	4a33      	ldr	r2, [pc, #204]	@ (8004654 <TIM_Base_SetConfig+0xf8>)
 8004588:	4293      	cmp	r3, r2
 800458a:	d003      	beq.n	8004594 <TIM_Base_SetConfig+0x38>
 800458c:	687b      	ldr	r3, [r7, #4]
 800458e:	4a32      	ldr	r2, [pc, #200]	@ (8004658 <TIM_Base_SetConfig+0xfc>)
 8004590:	4293      	cmp	r3, r2
 8004592:	d108      	bne.n	80045a6 <TIM_Base_SetConfig+0x4a>
 8004594:	68fb      	ldr	r3, [r7, #12]
 8004596:	f023 0370 	bic.w	r3, r3, #112	@ 0x70
 800459a:	60fb      	str	r3, [r7, #12]
 800459c:	683b      	ldr	r3, [r7, #0]
 800459e:	685b      	ldr	r3, [r3, #4]
 80045a0:	68fa      	ldr	r2, [r7, #12]
 80045a2:	4313      	orrs	r3, r2
 80045a4:	60fb      	str	r3, [r7, #12]
 80045a6:	687b      	ldr	r3, [r7, #4]
 80045a8:	4a28      	ldr	r2, [pc, #160]	@ (800464c <TIM_Base_SetConfig+0xf0>)
 80045aa:	4293      	cmp	r3, r2
 80045ac:	d01b      	beq.n	80045e6 <TIM_Base_SetConfig+0x8a>
 80045ae:	687b      	ldr	r3, [r7, #4]
 80045b0:	f1b3 4f80 	cmp.w	r3, #1073741824	@ 0x40000000
 80045b4:	d017      	beq.n	80045e6 <TIM_Base_SetConfig+0x8a>
 80045b6:	687b      	ldr	r3, [r7, #4]
 80045b8:	4a25      	ldr	r2, [pc, #148]	@ (8004650 <TIM_Base_SetConfig+0xf4>)
 80045ba:	4293      	cmp	r3, r2
 80045bc:	d013      	beq.n	80045e6 <TIM_Base_SetConfig+0x8a>
 80045be:	687b      	ldr	r3, [r7, #4]
 80045c0:	4a24      	ldr	r2, [pc, #144]	@ (8004654 <TIM_Base_SetConfig+0xf8>)
 80045c2:	4293      	cmp	r3, r2
 80045c4:	d00f      	beq.n	80045e6 <TIM_Base_SetConfig+0x8a>
 80045c6:	687b      	ldr	r3, [r7, #4]
 80045c8:	4a23      	ldr	r2, [pc, #140]	@ (8004658 <TIM_Base_SetConfig+0xfc>)
 80045ca:	4293      	cmp	r3, r2
 80045cc:	d00b      	beq.n	80045e6 <TIM_Base_SetConfig+0x8a>
 80045ce:	687b      	ldr	r3, [r7, #4]
 80045d0:	4a22      	ldr	r2, [pc, #136]	@ (800465c <TIM_Base_SetConfig+0x100>)
 80045d2:	4293      	cmp	r3, r2
 80045d4:	d007      	beq.n	80045e6 <TIM_Base_SetConfig+0x8a>
 80045d6:	687b      	ldr	r3, [r7, #4]
 80045d8:	4a21      	ldr	r2, [pc, #132]	@ (8004660 <TIM_Base_SetConfig+0x104>)
 80045da:	4293      	cmp	r3, r2
 80045dc:	d003      	beq.n	80045e6 <TIM_Base_SetConfig+0x8a>
 80045de:	687b      	ldr	r3, [r7, #4]
 80045e0:	4a20      	ldr	r2, [pc, #128]	@ (8004664 <TIM_Base_SetConfig+0x108>)
 80045e2:	4293      	cmp	r3, r2
 80045e4:	d108      	bne.n	80045f8 <TIM_Base_SetConfig+0x9c>
 80045e6:	68fb      	ldr	r3, [r7, #12]
 80045e8:	f423 7340 	bic.w	r3, r3, #768	@ 0x300
 80045ec:	60fb      	str	r3, [r7, #12]
 80045ee:	683b      	ldr	r3, [r7, #0]
 80045f0:	68db      	ldr	r3, [r3, #12]
 80045f2:	68fa      	ldr	r2, [r7, #12]
 80045f4:	4313      	orrs	r3, r2
 80045f6:	60fb      	str	r3, [r7, #12]
 80045f8:	68fb      	ldr	r3, [r7, #12]
 80045fa:	f023 0280 	bic.w	r2, r3, #128	@ 0x80
 80045fe:	683b      	ldr	r3, [r7, #0]
 8004600:	695b      	ldr	r3, [r3, #20]
 8004602:	4313      	orrs	r3, r2
 8004604:	60fb      	str	r3, [r7, #12]
 8004606:	683b      	ldr	r3, [r7, #0]
 8004608:	689a      	ldr	r2, [r3, #8]
 800460a:	687b      	ldr	r3, [r7, #4]
 800460c:	62da      	str	r2, [r3, #44]	@ 0x2c
 800460e:	683b      	ldr	r3, [r7, #0]
 8004610:	681a      	ldr	r2, [r3, #0]
 8004612:	687b      	ldr	r3, [r7, #4]
 8004614:	629a      	str	r2, [r3, #40]	@ 0x28
 8004616:	687b      	ldr	r3, [r7, #4]
 8004618:	4a0c      	ldr	r2, [pc, #48]	@ (800464c <TIM_Base_SetConfig+0xf0>)
 800461a:	4293      	cmp	r3, r2
 800461c:	d103      	bne.n	8004626 <TIM_Base_SetConfig+0xca>
 800461e:	683b      	ldr	r3, [r7, #0]
 8004620:	691a      	ldr	r2, [r3, #16]
 8004622:	687b      	ldr	r3, [r7, #4]
 8004624:	631a      	str	r2, [r3, #48]	@ 0x30
 8004626:	687b      	ldr	r3, [r7, #4]
 8004628:	681b      	ldr	r3, [r3, #0]
 800462a:	f043 0204 	orr.w	r2, r3, #4
 800462e:	687b      	ldr	r3, [r7, #4]
 8004630:	601a      	str	r2, [r3, #0]
 8004632:	687b      	ldr	r3, [r7, #4]
 8004634:	2201      	movs	r2, #1
 8004636:	615a      	str	r2, [r3, #20]
 8004638:	687b      	ldr	r3, [r7, #4]
 800463a:	68fa      	ldr	r2, [r7, #12]
 800463c:	601a      	str	r2, [r3, #0]
 800463e:	bf00      	nop
 8004640:	3714      	adds	r7, #20
 8004642:	46bd      	mov	sp, r7
 8004644:	f85d 7b04 	ldr.w	r7, [sp], #4
 8004648:	4770      	bx	lr
 800464a:	bf00      	nop
 800464c:	40010000 	.word	0x40010000
 8004650:	40000400 	.word	0x40000400
 8004654:	40000800 	.word	0x40000800
 8004658:	40000c00 	.word	0x40000c00
 800465c:	40014000 	.word	0x40014000
 8004660:	40014400 	.word	0x40014400
 8004664:	40014800 	.word	0x40014800

08004668 <TIM_OC1_SetConfig>:
 8004668:	b480      	push	{r7}
 800466a:	b087      	sub	sp, #28
 800466c:	af00      	add	r7, sp, #0
 800466e:	6078      	str	r0, [r7, #4]
 8004670:	6039      	str	r1, [r7, #0]
 8004672:	687b      	ldr	r3, [r7, #4]
 8004674:	6a1b      	ldr	r3, [r3, #32]
 8004676:	617b      	str	r3, [r7, #20]
 8004678:	687b      	ldr	r3, [r7, #4]
 800467a:	6a1b      	ldr	r3, [r3, #32]
 800467c:	f023 0201 	bic.w	r2, r3, #1
 8004680:	687b      	ldr	r3, [r7, #4]
 8004682:	621a      	str	r2, [r3, #32]
 8004684:	687b      	ldr	r3, [r7, #4]
 8004686:	685b      	ldr	r3, [r3, #4]
 8004688:	613b      	str	r3, [r7, #16]
 800468a:	687b      	ldr	r3, [r7, #4]
 800468c:	699b      	ldr	r3, [r3, #24]
 800468e:	60fb      	str	r3, [r7, #12]
 8004690:	68fb      	ldr	r3, [r7, #12]
 8004692:	f023 0370 	bic.w	r3, r3, #112	@ 0x70
 8004696:	60fb      	str	r3, [r7, #12]
 8004698:	68fb      	ldr	r3, [r7, #12]
 800469a:	f023 0303 	bic.w	r3, r3, #3
 800469e:	60fb      	str	r3, [r7, #12]
 80046a0:	683b      	ldr	r3, [r7, #0]
 80046a2:	681b      	ldr	r3, [r3, #0]
 80046a4:	68fa      	ldr	r2, [r7, #12]
 80046a6:	4313      	orrs	r3, r2
 80046a8:	60fb      	str	r3, [r7, #12]
 80046aa:	697b      	ldr	r3, [r7, #20]
 80046ac:	f023 0302 	bic.w	r3, r3, #2
 80046b0:	617b      	str	r3, [r7, #20]
 80046b2:	683b      	ldr	r3, [r7, #0]
 80046b4:	689b      	ldr	r3, [r3, #8]
 80046b6:	697a      	ldr	r2, [r7, #20]
 80046b8:	4313      	orrs	r3, r2
 80046ba:	617b      	str	r3, [r7, #20]
 80046bc:	687b      	ldr	r3, [r7, #4]
 80046be:	4a1c      	ldr	r2, [pc, #112]	@ (8004730 <TIM_OC1_SetConfig+0xc8>)
 80046c0:	4293      	cmp	r3, r2
 80046c2:	d10c      	bne.n	80046de <TIM_OC1_SetConfig+0x76>
 80046c4:	697b      	ldr	r3, [r7, #20]
 80046c6:	f023 0308 	bic.w	r3, r3, #8
 80046ca:	617b      	str	r3, [r7, #20]
 80046cc:	683b      	ldr	r3, [r7, #0]
 80046ce:	68db      	ldr	r3, [r3, #12]
 80046d0:	697a      	ldr	r2, [r7, #20]
 80046d2:	4313      	orrs	r3, r2
 80046d4:	617b      	str	r3, [r7, #20]
 80046d6:	697b      	ldr	r3, [r7, #20]
 80046d8:	f023 0304 	bic.w	r3, r3, #4
 80046dc:	617b      	str	r3, [r7, #20]
 80046de:	687b      	ldr	r3, [r7, #4]
 80046e0:	4a13      	ldr	r2, [pc, #76]	@ (8004730 <TIM_OC1_SetConfig+0xc8>)
 80046e2:	4293      	cmp	r3, r2
 80046e4:	d111      	bne.n	800470a <TIM_OC1_SetConfig+0xa2>
 80046e6:	693b      	ldr	r3, [r7, #16]
 80046e8:	f423 7380 	bic.w	r3, r3, #256	@ 0x100
 80046ec:	613b      	str	r3, [r7, #16]
 80046ee:	693b      	ldr	r3, [r7, #16]
 80046f0:	f423 7300 	bic.w	r3, r3, #512	@ 0x200
 80046f4:	613b      	str	r3, [r7, #16]
 80046f6:	683b      	ldr	r3, [r7, #0]
 80046f8:	695b      	ldr	r3, [r3, #20]
 80046fa:	693a      	ldr	r2, [r7, #16]
 80046fc:	4313      	orrs	r3, r2
 80046fe:	613b      	str	r3, [r7, #16]
 8004700:	683b      	ldr	r3, [r7, #0]
 8004702:	699b      	ldr	r3, [r3, #24]
 8004704:	693a      	ldr	r2, [r7, #16]
 8004706:	4313      	orrs	r3, r2
 8004708:	613b      	str	r3, [r7, #16]
 800470a:	687b      	ldr	r3, [r7, #4]
 800470c:	693a      	ldr	r2, [r7, #16]
 800470e:	605a      	str	r2, [r3, #4]
 8004710:	687b      	ldr	r3, [r7, #4]
 8004712:	68fa      	ldr	r2, [r7, #12]
 8004714:	619a      	str	r2, [r3, #24]
 8004716:	683b      	ldr	r3, [r7, #0]
 8004718:	685a      	ldr	r2, [r3, #4]
 800471a:	687b      	ldr	r3, [r7, #4]
 800471c:	635a      	str	r2, [r3, #52]	@ 0x34
 800471e:	687b      	ldr	r3, [r7, #4]
 8004720:	697a      	ldr	r2, [r7, #20]
 8004722:	621a      	str	r2, [r3, #32]
 8004724:	bf00      	nop
 8004726:	371c      	adds	r7, #28
 8004728:	46bd      	mov	sp, r7
 800472a:	f85d 7b04 	ldr.w	r7, [sp], #4
 800472e:	4770      	bx	lr
 8004730:	40010000 	.word	0x40010000

08004734 <TIM_OC2_SetConfig>:
 8004734:	b480      	push	{r7}
 8004736:	b087      	sub	sp, #28
 8004738:	af00      	add	r7, sp, #0
 800473a:	6078      	str	r0, [r7, #4]
 800473c:	6039      	str	r1, [r7, #0]
 800473e:	687b      	ldr	r3, [r7, #4]
 8004740:	6a1b      	ldr	r3, [r3, #32]
 8004742:	617b      	str	r3, [r7, #20]
 8004744:	687b      	ldr	r3, [r7, #4]
 8004746:	6a1b      	ldr	r3, [r3, #32]
 8004748:	f023 0210 	bic.w	r2, r3, #16
 800474c:	687b      	ldr	r3, [r7, #4]
 800474e:	621a      	str	r2, [r3, #32]
 8004750:	687b      	ldr	r3, [r7, #4]
 8004752:	685b      	ldr	r3, [r3, #4]
 8004754:	613b      	str	r3, [r7, #16]
 8004756:	687b      	ldr	r3, [r7, #4]
 8004758:	699b      	ldr	r3, [r3, #24]
 800475a:	60fb      	str	r3, [r7, #12]
 800475c:	68fb      	ldr	r3, [r7, #12]
 800475e:	f423 43e0 	bic.w	r3, r3, #28672	@ 0x7000
 8004762:	60fb      	str	r3, [r7, #12]
 8004764:	68fb      	ldr	r3, [r7, #12]
 8004766:	f423 7340 	bic.w	r3, r3, #768	@ 0x300
 800476a:	60fb      	str	r3, [r7, #12]
 800476c:	683b      	ldr	r3, [r7, #0]
 800476e:	681b      	ldr	r3, [r3, #0]
 8004770:	021b      	lsls	r3, r3, #8
 8004772:	68fa      	ldr	r2, [r7, #12]
 8004774:	4313      	orrs	r3, r2
 8004776:	60fb      	str	r3, [r7, #12]
 8004778:	697b      	ldr	r3, [r7, #20]
 800477a:	f023 0320 	bic.w	r3, r3, #32
 800477e:	617b      	str	r3, [r7, #20]
 8004780:	683b      	ldr	r3, [r7, #0]
 8004782:	689b      	ldr	r3, [r3, #8]
 8004784:	011b      	lsls	r3, r3, #4
 8004786:	697a      	ldr	r2, [r7, #20]
 8004788:	4313      	orrs	r3, r2
 800478a:	617b      	str	r3, [r7, #20]
 800478c:	687b      	ldr	r3, [r7, #4]
 800478e:	4a1e      	ldr	r2, [pc, #120]	@ (8004808 <TIM_OC2_SetConfig+0xd4>)
 8004790:	4293      	cmp	r3, r2
 8004792:	d10d      	bne.n	80047b0 <TIM_OC2_SetConfig+0x7c>
 8004794:	697b      	ldr	r3, [r7, #20]
 8004796:	f023 0380 	bic.w	r3, r3, #128	@ 0x80
 800479a:	617b      	str	r3, [r7, #20]
 800479c:	683b      	ldr	r3, [r7, #0]
 800479e:	68db      	ldr	r3, [r3, #12]
 80047a0:	011b      	lsls	r3, r3, #4
 80047a2:	697a      	ldr	r2, [r7, #20]
 80047a4:	4313      	orrs	r3, r2
 80047a6:	617b      	str	r3, [r7, #20]
 80047a8:	697b      	ldr	r3, [r7, #20]
 80047aa:	f023 0340 	bic.w	r3, r3, #64	@ 0x40
 80047ae:	617b      	str	r3, [r7, #20]
 80047b0:	687b      	ldr	r3, [r7, #4]
 80047b2:	4a15      	ldr	r2, [pc, #84]	@ (8004808 <TIM_OC2_SetConfig+0xd4>)
 80047b4:	4293      	cmp	r3, r2
 80047b6:	d113      	bne.n	80047e0 <TIM_OC2_SetConfig+0xac>
 80047b8:	693b      	ldr	r3, [r7, #16]
 80047ba:	f423 6380 	bic.w	r3, r3, #1024	@ 0x400
 80047be:	613b      	str	r3, [r7, #16]
 80047c0:	693b      	ldr	r3, [r7, #16]
 80047c2:	f423 6300 	bic.w	r3, r3, #2048	@ 0x800
 80047c6:	613b      	str	r3, [r7, #16]
 80047c8:	683b      	ldr	r3, [r7, #0]
 80047ca:	695b      	ldr	r3, [r3, #20]
 80047cc:	009b      	lsls	r3, r3, #2
 80047ce:	693a      	ldr	r2, [r7, #16]
 80047d0:	4313      	orrs	r3, r2
 80047d2:	613b      	str	r3, [r7, #16]
 80047d4:	683b      	ldr	r3, [r7, #0]
 80047d6:	699b      	ldr	r3, [r3, #24]
 80047d8:	009b      	lsls	r3, r3, #2
 80047da:	693a      	ldr	r2, [r7, #16]
 80047dc:	4313      	orrs	r3, r2
 80047de:	613b      	str	r3, [r7, #16]
 80047e0:	687b      	ldr	r3, [r7, #4]
 80047e2:	693a      	ldr	r2, [r7, #16]
 80047e4:	605a      	str	r2, [r3, #4]
 80047e6:	687b      	ldr	r3, [r7, #4]
 80047e8:	68fa      	ldr	r2, [r7, #12]
 80047ea:	619a      	str	r2, [r3, #24]
 80047ec:	683b      	ldr	r3, [r7, #0]
 80047ee:	685a      	ldr	r2, [r3, #4]
 80047f0:	687b      	ldr	r3, [r7, #4]
 80047f2:	639a      	str	r2, [r3, #56]	@ 0x38
 80047f4:	687b      	ldr	r3, [r7, #4]
 80047f6:	697a      	ldr	r2, [r7, #20]
 80047f8:	621a      	str	r2, [r3, #32]
 80047fa:	bf00      	nop
 80047fc:	371c      	adds	r7, #28
 80047fe:	46bd      	mov	sp, r7
 8004800:	f85d 7b04 	ldr.w	r7, [sp], #4
 8004804:	4770      	bx	lr
 8004806:	bf00      	nop
 8004808:	40010000 	.word	0x40010000

0800480c <TIM_OC3_SetConfig>:
 800480c:	b480      	push	{r7}
 800480e:	b087      	sub	sp, #28
 8004810:	af00      	add	r7, sp, #0
 8004812:	6078      	str	r0, [r7, #4]
 8004814:	6039      	str	r1, [r7, #0]
 8004816:	687b      	ldr	r3, [r7, #4]
 8004818:	6a1b      	ldr	r3, [r3, #32]
 800481a:	617b      	str	r3, [r7, #20]
 800481c:	687b      	ldr	r3, [r7, #4]
 800481e:	6a1b      	ldr	r3, [r3, #32]
 8004820:	f423 7280 	bic.w	r2, r3, #256	@ 0x100
 8004824:	687b      	ldr	r3, [r7, #4]
 8004826:	621a      	str	r2, [r3, #32]
 8004828:	687b      	ldr	r3, [r7, #4]
 800482a:	685b      	ldr	r3, [r3, #4]
 800482c:	613b      	str	r3, [r7, #16]
 800482e:	687b      	ldr	r3, [r7, #4]
 8004830:	69db      	ldr	r3, [r3, #28]
 8004832:	60fb      	str	r3, [r7, #12]
 8004834:	68fb      	ldr	r3, [r7, #12]
 8004836:	f023 0370 	bic.w	r3, r3, #112	@ 0x70
 800483a:	60fb      	str	r3, [r7, #12]
 800483c:	68fb      	ldr	r3, [r7, #12]
 800483e:	f023 0303 	bic.w	r3, r3, #3
 8004842:	60fb      	str	r3, [r7, #12]
 8004844:	683b      	ldr	r3, [r7, #0]
 8004846:	681b      	ldr	r3, [r3, #0]
 8004848:	68fa      	ldr	r2, [r7, #12]
 800484a:	4313      	orrs	r3, r2
 800484c:	60fb      	str	r3, [r7, #12]
 800484e:	697b      	ldr	r3, [r7, #20]
 8004850:	f423 7300 	bic.w	r3, r3, #512	@ 0x200
 8004854:	617b      	str	r3, [r7, #20]
 8004856:	683b      	ldr	r3, [r7, #0]
 8004858:	689b      	ldr	r3, [r3, #8]
 800485a:	021b      	lsls	r3, r3, #8
 800485c:	697a      	ldr	r2, [r7, #20]
 800485e:	4313      	orrs	r3, r2
 8004860:	617b      	str	r3, [r7, #20]
 8004862:	687b      	ldr	r3, [r7, #4]
 8004864:	4a1d      	ldr	r2, [pc, #116]	@ (80048dc <TIM_OC3_SetConfig+0xd0>)
 8004866:	4293      	cmp	r3, r2
 8004868:	d10d      	bne.n	8004886 <TIM_OC3_SetConfig+0x7a>
 800486a:	697b      	ldr	r3, [r7, #20]
 800486c:	f423 6300 	bic.w	r3, r3, #2048	@ 0x800
 8004870:	617b      	str	r3, [r7, #20]
 8004872:	683b      	ldr	r3, [r7, #0]
 8004874:	68db      	ldr	r3, [r3, #12]
 8004876:	021b      	lsls	r3, r3, #8
 8004878:	697a      	ldr	r2, [r7, #20]
 800487a:	4313      	orrs	r3, r2
 800487c:	617b      	str	r3, [r7, #20]
 800487e:	697b      	ldr	r3, [r7, #20]
 8004880:	f423 6380 	bic.w	r3, r3, #1024	@ 0x400
 8004884:	617b      	str	r3, [r7, #20]
 8004886:	687b      	ldr	r3, [r7, #4]
 8004888:	4a14      	ldr	r2, [pc, #80]	@ (80048dc <TIM_OC3_SetConfig+0xd0>)
 800488a:	4293      	cmp	r3, r2
 800488c:	d113      	bne.n	80048b6 <TIM_OC3_SetConfig+0xaa>
 800488e:	693b      	ldr	r3, [r7, #16]
 8004890:	f423 5380 	bic.w	r3, r3, #4096	@ 0x1000
 8004894:	613b      	str	r3, [r7, #16]
 8004896:	693b      	ldr	r3, [r7, #16]
 8004898:	f423 5300 	bic.w	r3, r3, #8192	@ 0x2000
 800489c:	613b      	str	r3, [r7, #16]
 800489e:	683b      	ldr	r3, [r7, #0]
 80048a0:	695b      	ldr	r3, [r3, #20]
 80048a2:	011b      	lsls	r3, r3, #4
 80048a4:	693a      	ldr	r2, [r7, #16]
 80048a6:	4313      	orrs	r3, r2
 80048a8:	613b      	str	r3, [r7, #16]
 80048aa:	683b      	ldr	r3, [r7, #0]
 80048ac:	699b      	ldr	r3, [r3, #24]
 80048ae:	011b      	lsls	r3, r3, #4
 80048b0:	693a      	ldr	r2, [r7, #16]
 80048b2:	4313      	orrs	r3, r2
 80048b4:	613b      	str	r3, [r7, #16]
 80048b6:	687b      	ldr	r3, [r7, #4]
 80048b8:	693a      	ldr	r2, [r7, #16]
 80048ba:	605a      	str	r2, [r3, #4]
 80048bc:	687b      	ldr	r3, [r7, #4]
 80048be:	68fa      	ldr	r2, [r7, #12]
 80048c0:	61da      	str	r2, [r3, #28]
 80048c2:	683b      	ldr	r3, [r7, #0]
 80048c4:	685a      	ldr	r2, [r3, #4]
 80048c6:	687b      	ldr	r3, [r7, #4]
 80048c8:	63da      	str	r2, [r3, #60]	@ 0x3c
 80048ca:	687b      	ldr	r3, [r7, #4]
 80048cc:	697a      	ldr	r2, [r7, #20]
 80048ce:	621a      	str	r2, [r3, #32]
 80048d0:	bf00      	nop
 80048d2:	371c      	adds	r7, #28
 80048d4:	46bd      	mov	sp, r7
 80048d6:	f85d 7b04 	ldr.w	r7, [sp], #4
 80048da:	4770      	bx	lr
 80048dc:	40010000 	.word	0x40010000

080048e0 <TIM_OC4_SetConfig>:
 80048e0:	b480      	push	{r7}
 80048e2:	b087      	sub	sp, #28
 80048e4:	af00      	add	r7, sp, #0
 80048e6:	6078      	str	r0, [r7, #4]
 80048e8:	6039      	str	r1, [r7, #0]
 80048ea:	687b      	ldr	r3, [r7, #4]
 80048ec:	6a1b      	ldr	r3, [r3, #32]
 80048ee:	613b      	str	r3, [r7, #16]
 80048f0:	687b      	ldr	r3, [r7, #4]
 80048f2:	6a1b      	ldr	r3, [r3, #32]
 80048f4:	f423 5280 	bic.w	r2, r3, #4096	@ 0x1000
 80048f8:	687b      	ldr	r3, [r7, #4]
 80048fa:	621a      	str	r2, [r3, #32]
 80048fc:	687b      	ldr	r3, [r7, #4]
 80048fe:	685b      	ldr	r3, [r3, #4]
 8004900:	617b      	str	r3, [r7, #20]
 8004902:	687b      	ldr	r3, [r7, #4]
 8004904:	69db      	ldr	r3, [r3, #28]
 8004906:	60fb      	str	r3, [r7, #12]
 8004908:	68fb      	ldr	r3, [r7, #12]
 800490a:	f423 43e0 	bic.w	r3, r3, #28672	@ 0x7000
 800490e:	60fb      	str	r3, [r7, #12]
 8004910:	68fb      	ldr	r3, [r7, #12]
 8004912:	f423 7340 	bic.w	r3, r3, #768	@ 0x300
 8004916:	60fb      	str	r3, [r7, #12]
 8004918:	683b      	ldr	r3, [r7, #0]
 800491a:	681b      	ldr	r3, [r3, #0]
 800491c:	021b      	lsls	r3, r3, #8
 800491e:	68fa      	ldr	r2, [r7, #12]
 8004920:	4313      	orrs	r3, r2
 8004922:	60fb      	str	r3, [r7, #12]
 8004924:	693b      	ldr	r3, [r7, #16]
 8004926:	f423 5300 	bic.w	r3, r3, #8192	@ 0x2000
 800492a:	613b      	str	r3, [r7, #16]
 800492c:	683b      	ldr	r3, [r7, #0]
 800492e:	689b      	ldr	r3, [r3, #8]
 8004930:	031b      	lsls	r3, r3, #12
 8004932:	693a      	ldr	r2, [r7, #16]
 8004934:	4313      	orrs	r3, r2
 8004936:	613b      	str	r3, [r7, #16]
 8004938:	687b      	ldr	r3, [r7, #4]
 800493a:	4a10      	ldr	r2, [pc, #64]	@ (800497c <TIM_OC4_SetConfig+0x9c>)
 800493c:	4293      	cmp	r3, r2
 800493e:	d109      	bne.n	8004954 <TIM_OC4_SetConfig+0x74>
 8004940:	697b      	ldr	r3, [r7, #20]
 8004942:	f423 4380 	bic.w	r3, r3, #16384	@ 0x4000
 8004946:	617b      	str	r3, [r7, #20]
 8004948:	683b      	ldr	r3, [r7, #0]
 800494a:	695b      	ldr	r3, [r3, #20]
 800494c:	019b      	lsls	r3, r3, #6
 800494e:	697a      	ldr	r2, [r7, #20]
 8004950:	4313      	orrs	r3, r2
 8004952:	617b      	str	r3, [r7, #20]
 8004954:	687b      	ldr	r3, [r7, #4]
 8004956:	697a      	ldr	r2, [r7, #20]
 8004958:	605a      	str	r2, [r3, #4]
 800495a:	687b      	ldr	r3, [r7, #4]
 800495c:	68fa      	ldr	r2, [r7, #12]
 800495e:	61da      	str	r2, [r3, #28]
 8004960:	683b      	ldr	r3, [r7, #0]
 8004962:	685a      	ldr	r2, [r3, #4]
 8004964:	687b      	ldr	r3, [r7, #4]
 8004966:	641a      	str	r2, [r3, #64]	@ 0x40
 8004968:	687b      	ldr	r3, [r7, #4]
 800496a:	693a      	ldr	r2, [r7, #16]
 800496c:	621a      	str	r2, [r3, #32]
 800496e:	bf00      	nop
 8004970:	371c      	adds	r7, #28
 8004972:	46bd      	mov	sp, r7
 8004974:	f85d 7b04 	ldr.w	r7, [sp], #4
 8004978:	4770      	bx	lr
 800497a:	bf00      	nop
 800497c:	40010000 	.word	0x40010000

08004980 <TIM_TI1_ConfigInputStage>:
 8004980:	b480      	push	{r7}
 8004982:	b087      	sub	sp, #28
 8004984:	af00      	add	r7, sp, #0
 8004986:	60f8      	str	r0, [r7, #12]
 8004988:	60b9      	str	r1, [r7, #8]
 800498a:	607a      	str	r2, [r7, #4]
 800498c:	68fb      	ldr	r3, [r7, #12]
 800498e:	6a1b      	ldr	r3, [r3, #32]
 8004990:	617b      	str	r3, [r7, #20]
 8004992:	68fb      	ldr	r3, [r7, #12]
 8004994:	6a1b      	ldr	r3, [r3, #32]
 8004996:	f023 0201 	bic.w	r2, r3, #1
 800499a:	68fb      	ldr	r3, [r7, #12]
 800499c:	621a      	str	r2, [r3, #32]
 800499e:	68fb      	ldr	r3, [r7, #12]
 80049a0:	699b      	ldr	r3, [r3, #24]
 80049a2:	613b      	str	r3, [r7, #16]
 80049a4:	693b      	ldr	r3, [r7, #16]
 80049a6:	f023 03f0 	bic.w	r3, r3, #240	@ 0xf0
 80049aa:	613b      	str	r3, [r7, #16]
 80049ac:	687b      	ldr	r3, [r7, #4]
 80049ae:	011b      	lsls	r3, r3, #4
 80049b0:	693a      	ldr	r2, [r7, #16]
 80049b2:	4313      	orrs	r3, r2
 80049b4:	613b      	str	r3, [r7, #16]
 80049b6:	697b      	ldr	r3, [r7, #20]
 80049b8:	f023 030a 	bic.w	r3, r3, #10
 80049bc:	617b      	str	r3, [r7, #20]
 80049be:	697a      	ldr	r2, [r7, #20]
 80049c0:	68bb      	ldr	r3, [r7, #8]
 80049c2:	4313      	orrs	r3, r2
 80049c4:	617b      	str	r3, [r7, #20]
 80049c6:	68fb      	ldr	r3, [r7, #12]
 80049c8:	693a      	ldr	r2, [r7, #16]
 80049ca:	619a      	str	r2, [r3, #24]
 80049cc:	68fb      	ldr	r3, [r7, #12]
 80049ce:	697a      	ldr	r2, [r7, #20]
 80049d0:	621a      	str	r2, [r3, #32]
 80049d2:	bf00      	nop
 80049d4:	371c      	adds	r7, #28
 80049d6:	46bd      	mov	sp, r7
 80049d8:	f85d 7b04 	ldr.w	r7, [sp], #4
 80049dc:	4770      	bx	lr

080049de <TIM_TI2_ConfigInputStage>:
 80049de:	b480      	push	{r7}
 80049e0:	b087      	sub	sp, #28
 80049e2:	af00      	add	r7, sp, #0
 80049e4:	60f8      	str	r0, [r7, #12]
 80049e6:	60b9      	str	r1, [r7, #8]
 80049e8:	607a      	str	r2, [r7, #4]
 80049ea:	68fb      	ldr	r3, [r7, #12]
 80049ec:	6a1b      	ldr	r3, [r3, #32]
 80049ee:	617b      	str	r3, [r7, #20]
 80049f0:	68fb      	ldr	r3, [r7, #12]
 80049f2:	6a1b      	ldr	r3, [r3, #32]
 80049f4:	f023 0210 	bic.w	r2, r3, #16
 80049f8:	68fb      	ldr	r3, [r7, #12]
 80049fa:	621a      	str	r2, [r3, #32]
 80049fc:	68fb      	ldr	r3, [r7, #12]
 80049fe:	699b      	ldr	r3, [r3, #24]
 8004a00:	613b      	str	r3, [r7, #16]
 8004a02:	693b      	ldr	r3, [r7, #16]
 8004a04:	f423 4370 	bic.w	r3, r3, #61440	@ 0xf000
 8004a08:	613b      	str	r3, [r7, #16]
 8004a0a:	687b      	ldr	r3, [r7, #4]
 8004a0c:	031b      	lsls	r3, r3, #12
 8004a0e:	693a      	ldr	r2, [r7, #16]
 8004a10:	4313      	orrs	r3, r2
 8004a12:	613b      	str	r3, [r7, #16]
 8004a14:	697b      	ldr	r3, [r7, #20]
 8004a16:	f023 03a0 	bic.w	r3, r3, #160	@ 0xa0
 8004a1a:	617b      	str	r3, [r7, #20]
 8004a1c:	68bb      	ldr	r3, [r7, #8]
 8004a1e:	011b      	lsls	r3, r3, #4
 8004a20:	697a      	ldr	r2, [r7, #20]
 8004a22:	4313      	orrs	r3, r2
 8004a24:	617b      	str	r3, [r7, #20]
 8004a26:	68fb      	ldr	r3, [r7, #12]
 8004a28:	693a      	ldr	r2, [r7, #16]
 8004a2a:	619a      	str	r2, [r3, #24]
 8004a2c:	68fb      	ldr	r3, [r7, #12]
 8004a2e:	697a      	ldr	r2, [r7, #20]
 8004a30:	621a      	str	r2, [r3, #32]
 8004a32:	bf00      	nop
 8004a34:	371c      	adds	r7, #28
 8004a36:	46bd      	mov	sp, r7
 8004a38:	f85d 7b04 	ldr.w	r7, [sp], #4
 8004a3c:	4770      	bx	lr

08004a3e <TIM_ITRx_SetConfig>:
 8004a3e:	b480      	push	{r7}
 8004a40:	b085      	sub	sp, #20
 8004a42:	af00      	add	r7, sp, #0
 8004a44:	6078      	str	r0, [r7, #4]
 8004a46:	6039      	str	r1, [r7, #0]
 8004a48:	687b      	ldr	r3, [r7, #4]
 8004a4a:	689b      	ldr	r3, [r3, #8]
 8004a4c:	60fb      	str	r3, [r7, #12]
 8004a4e:	68fb      	ldr	r3, [r7, #12]
 8004a50:	f023 0370 	bic.w	r3, r3, #112	@ 0x70
 8004a54:	60fb      	str	r3, [r7, #12]
 8004a56:	683a      	ldr	r2, [r7, #0]
 8004a58:	68fb      	ldr	r3, [r7, #12]
 8004a5a:	4313      	orrs	r3, r2
 8004a5c:	f043 0307 	orr.w	r3, r3, #7
 8004a60:	60fb      	str	r3, [r7, #12]
 8004a62:	687b      	ldr	r3, [r7, #4]
 8004a64:	68fa      	ldr	r2, [r7, #12]
 8004a66:	609a      	str	r2, [r3, #8]
 8004a68:	bf00      	nop
 8004a6a:	3714      	adds	r7, #20
 8004a6c:	46bd      	mov	sp, r7
 8004a6e:	f85d 7b04 	ldr.w	r7, [sp], #4
 8004a72:	4770      	bx	lr

08004a74 <TIM_ETR_SetConfig>:
 8004a74:	b480      	push	{r7}
 8004a76:	b087      	sub	sp, #28
 8004a78:	af00      	add	r7, sp, #0
 8004a7a:	60f8      	str	r0, [r7, #12]
 8004a7c:	60b9      	str	r1, [r7, #8]
 8004a7e:	607a      	str	r2, [r7, #4]
 8004a80:	603b      	str	r3, [r7, #0]
 8004a82:	68fb      	ldr	r3, [r7, #12]
 8004a84:	689b      	ldr	r3, [r3, #8]
 8004a86:	617b      	str	r3, [r7, #20]
 8004a88:	697b      	ldr	r3, [r7, #20]
 8004a8a:	f423 437f 	bic.w	r3, r3, #65280	@ 0xff00
 8004a8e:	617b      	str	r3, [r7, #20]
 8004a90:	683b      	ldr	r3, [r7, #0]
 8004a92:	021a      	lsls	r2, r3, #8
 8004a94:	687b      	ldr	r3, [r7, #4]
 8004a96:	431a      	orrs	r2, r3
 8004a98:	68bb      	ldr	r3, [r7, #8]
 8004a9a:	4313      	orrs	r3, r2
 8004a9c:	697a      	ldr	r2, [r7, #20]
 8004a9e:	4313      	orrs	r3, r2
 8004aa0:	617b      	str	r3, [r7, #20]
 8004aa2:	68fb      	ldr	r3, [r7, #12]
 8004aa4:	697a      	ldr	r2, [r7, #20]
 8004aa6:	609a      	str	r2, [r3, #8]
 8004aa8:	bf00      	nop
 8004aaa:	371c      	adds	r7, #28
 8004aac:	46bd      	mov	sp, r7
 8004aae:	f85d 7b04 	ldr.w	r7, [sp], #4
 8004ab2:	4770      	bx	lr

08004ab4 <TIM_CCxChannelCmd>:
 8004ab4:	b480      	push	{r7}
 8004ab6:	b087      	sub	sp, #28
 8004ab8:	af00      	add	r7, sp, #0
 8004aba:	60f8      	str	r0, [r7, #12]
 8004abc:	60b9      	str	r1, [r7, #8]
 8004abe:	607a      	str	r2, [r7, #4]
 8004ac0:	68bb      	ldr	r3, [r7, #8]
 8004ac2:	f003 031f 	and.w	r3, r3, #31
 8004ac6:	2201      	movs	r2, #1
 8004ac8:	fa02 f303 	lsl.w	r3, r2, r3
 8004acc:	617b      	str	r3, [r7, #20]
 8004ace:	68fb      	ldr	r3, [r7, #12]
 8004ad0:	6a1a      	ldr	r2, [r3, #32]
 8004ad2:	697b      	ldr	r3, [r7, #20]
 8004ad4:	43db      	mvns	r3, r3
 8004ad6:	401a      	ands	r2, r3
 8004ad8:	68fb      	ldr	r3, [r7, #12]
 8004ada:	621a      	str	r2, [r3, #32]
 8004adc:	68fb      	ldr	r3, [r7, #12]
 8004ade:	6a1a      	ldr	r2, [r3, #32]
 8004ae0:	68bb      	ldr	r3, [r7, #8]
 8004ae2:	f003 031f 	and.w	r3, r3, #31
 8004ae6:	6879      	ldr	r1, [r7, #4]
 8004ae8:	fa01 f303 	lsl.w	r3, r1, r3
 8004aec:	431a      	orrs	r2, r3
 8004aee:	68fb      	ldr	r3, [r7, #12]
 8004af0:	621a      	str	r2, [r3, #32]
 8004af2:	bf00      	nop
 8004af4:	371c      	adds	r7, #28
 8004af6:	46bd      	mov	sp, r7
 8004af8:	f85d 7b04 	ldr.w	r7, [sp], #4
 8004afc:	4770      	bx	lr
	...

08004b00 <HAL_TIMEx_MasterConfigSynchronization>:
 8004b00:	b480      	push	{r7}
 8004b02:	b085      	sub	sp, #20
 8004b04:	af00      	add	r7, sp, #0
 8004b06:	6078      	str	r0, [r7, #4]
 8004b08:	6039      	str	r1, [r7, #0]
 8004b0a:	687b      	ldr	r3, [r7, #4]
 8004b0c:	f893 303c 	ldrb.w	r3, [r3, #60]	@ 0x3c
 8004b10:	2b01      	cmp	r3, #1
 8004b12:	d101      	bne.n	8004b18 <HAL_TIMEx_MasterConfigSynchronization+0x18>
 8004b14:	2302      	movs	r3, #2
 8004b16:	e050      	b.n	8004bba <HAL_TIMEx_MasterConfigSynchronization+0xba>
 8004b18:	687b      	ldr	r3, [r7, #4]
 8004b1a:	2201      	movs	r2, #1
 8004b1c:	f883 203c 	strb.w	r2, [r3, #60]	@ 0x3c
 8004b20:	687b      	ldr	r3, [r7, #4]
 8004b22:	2202      	movs	r2, #2
 8004b24:	f883 203d 	strb.w	r2, [r3, #61]	@ 0x3d
 8004b28:	687b      	ldr	r3, [r7, #4]
 8004b2a:	681b      	ldr	r3, [r3, #0]
 8004b2c:	685b      	ldr	r3, [r3, #4]
 8004b2e:	60fb      	str	r3, [r7, #12]
 8004b30:	687b      	ldr	r3, [r7, #4]
 8004b32:	681b      	ldr	r3, [r3, #0]
 8004b34:	689b      	ldr	r3, [r3, #8]
 8004b36:	60bb      	str	r3, [r7, #8]
 8004b38:	68fb      	ldr	r3, [r7, #12]
 8004b3a:	f023 0370 	bic.w	r3, r3, #112	@ 0x70
 8004b3e:	60fb      	str	r3, [r7, #12]
 8004b40:	683b      	ldr	r3, [r7, #0]
 8004b42:	681b      	ldr	r3, [r3, #0]
 8004b44:	68fa      	ldr	r2, [r7, #12]
 8004b46:	4313      	orrs	r3, r2
 8004b48:	60fb      	str	r3, [r7, #12]
 8004b4a:	687b      	ldr	r3, [r7, #4]
 8004b4c:	681b      	ldr	r3, [r3, #0]
 8004b4e:	68fa      	ldr	r2, [r7, #12]
 8004b50:	605a      	str	r2, [r3, #4]
 8004b52:	687b      	ldr	r3, [r7, #4]
 8004b54:	681b      	ldr	r3, [r3, #0]
 8004b56:	4a1c      	ldr	r2, [pc, #112]	@ (8004bc8 <HAL_TIMEx_MasterConfigSynchronization+0xc8>)
 8004b58:	4293      	cmp	r3, r2
 8004b5a:	d018      	beq.n	8004b8e <HAL_TIMEx_MasterConfigSynchronization+0x8e>
 8004b5c:	687b      	ldr	r3, [r7, #4]
 8004b5e:	681b      	ldr	r3, [r3, #0]
 8004b60:	f1b3 4f80 	cmp.w	r3, #1073741824	@ 0x40000000
 8004b64:	d013      	beq.n	8004b8e <HAL_TIMEx_MasterConfigSynchronization+0x8e>
 8004b66:	687b      	ldr	r3, [r7, #4]
 8004b68:	681b      	ldr	r3, [r3, #0]
 8004b6a:	4a18      	ldr	r2, [pc, #96]	@ (8004bcc <HAL_TIMEx_MasterConfigSynchronization+0xcc>)
 8004b6c:	4293      	cmp	r3, r2
 8004b6e:	d00e      	beq.n	8004b8e <HAL_TIMEx_MasterConfigSynchronization+0x8e>
 8004b70:	687b      	ldr	r3, [r7, #4]
 8004b72:	681b      	ldr	r3, [r3, #0]
 8004b74:	4a16      	ldr	r2, [pc, #88]	@ (8004bd0 <HAL_TIMEx_MasterConfigSynchronization+0xd0>)
 8004b76:	4293      	cmp	r3, r2
 8004b78:	d009      	beq.n	8004b8e <HAL_TIMEx_MasterConfigSynchronization+0x8e>
 8004b7a:	687b      	ldr	r3, [r7, #4]
 8004b7c:	681b      	ldr	r3, [r3, #0]
 8004b7e:	4a15      	ldr	r2, [pc, #84]	@ (8004bd4 <HAL_TIMEx_MasterConfigSynchronization+0xd4>)
 8004b80:	4293      	cmp	r3, r2
 8004b82:	d004      	beq.n	8004b8e <HAL_TIMEx_MasterConfigSynchronization+0x8e>
 8004b84:	687b      	ldr	r3, [r7, #4]
 8004b86:	681b      	ldr	r3, [r3, #0]
 8004b88:	4a13      	ldr	r2, [pc, #76]	@ (8004bd8 <HAL_TIMEx_MasterConfigSynchronization+0xd8>)
 8004b8a:	4293      	cmp	r3, r2
 8004b8c:	d10c      	bne.n	8004ba8 <HAL_TIMEx_MasterConfigSynchronization+0xa8>
 8004b8e:	68bb      	ldr	r3, [r7, #8]
 8004b90:	f023 0380 	bic.w	r3, r3, #128	@ 0x80
 8004b94:	60bb      	str	r3, [r7, #8]
 8004b96:	683b      	ldr	r3, [r7, #0]
 8004b98:	685b      	ldr	r3, [r3, #4]
 8004b9a:	68ba      	ldr	r2, [r7, #8]
 8004b9c:	4313      	orrs	r3, r2
 8004b9e:	60bb      	str	r3, [r7, #8]
 8004ba0:	687b      	ldr	r3, [r7, #4]
 8004ba2:	681b      	ldr	r3, [r3, #0]
 8004ba4:	68ba      	ldr	r2, [r7, #8]
 8004ba6:	609a      	str	r2, [r3, #8]
 8004ba8:	687b      	ldr	r3, [r7, #4]
 8004baa:	2201      	movs	r2, #1
 8004bac:	f883 203d 	strb.w	r2, [r3, #61]	@ 0x3d
 8004bb0:	687b      	ldr	r3, [r7, #4]
 8004bb2:	2200      	movs	r2, #0
 8004bb4:	f883 203c 	strb.w	r2, [r3, #60]	@ 0x3c
 8004bb8:	2300      	movs	r3, #0
 8004bba:	4618      	mov	r0, r3
 8004bbc:	3714      	adds	r7, #20
 8004bbe:	46bd      	mov	sp, r7
 8004bc0:	f85d 7b04 	ldr.w	r7, [sp], #4
 8004bc4:	4770      	bx	lr
 8004bc6:	bf00      	nop
 8004bc8:	40010000 	.word	0x40010000
 8004bcc:	40000400 	.word	0x40000400
 8004bd0:	40000800 	.word	0x40000800
 8004bd4:	40000c00 	.word	0x40000c00
 8004bd8:	40014000 	.word	0x40014000

08004bdc <HAL_TIMEx_ConfigBreakDeadTime>:
 8004bdc:	b480      	push	{r7}
 8004bde:	b085      	sub	sp, #20
 8004be0:	af00      	add	r7, sp, #0
 8004be2:	6078      	str	r0, [r7, #4]
 8004be4:	6039      	str	r1, [r7, #0]
 8004be6:	2300      	movs	r3, #0
 8004be8:	60fb      	str	r3, [r7, #12]
 8004bea:	687b      	ldr	r3, [r7, #4]
 8004bec:	f893 303c 	ldrb.w	r3, [r3, #60]	@ 0x3c
 8004bf0:	2b01      	cmp	r3, #1
 8004bf2:	d101      	bne.n	8004bf8 <HAL_TIMEx_ConfigBreakDeadTime+0x1c>
 8004bf4:	2302      	movs	r3, #2
 8004bf6:	e03d      	b.n	8004c74 <HAL_TIMEx_ConfigBreakDeadTime+0x98>
 8004bf8:	687b      	ldr	r3, [r7, #4]
 8004bfa:	2201      	movs	r2, #1
 8004bfc:	f883 203c 	strb.w	r2, [r3, #60]	@ 0x3c
 8004c00:	68fb      	ldr	r3, [r7, #12]
 8004c02:	f023 02ff 	bic.w	r2, r3, #255	@ 0xff
 8004c06:	683b      	ldr	r3, [r7, #0]
 8004c08:	68db      	ldr	r3, [r3, #12]
 8004c0a:	4313      	orrs	r3, r2
 8004c0c:	60fb      	str	r3, [r7, #12]
 8004c0e:	68fb      	ldr	r3, [r7, #12]
 8004c10:	f423 7240 	bic.w	r2, r3, #768	@ 0x300
 8004c14:	683b      	ldr	r3, [r7, #0]
 8004c16:	689b      	ldr	r3, [r3, #8]
 8004c18:	4313      	orrs	r3, r2
 8004c1a:	60fb      	str	r3, [r7, #12]
 8004c1c:	68fb      	ldr	r3, [r7, #12]
 8004c1e:	f423 6280 	bic.w	r2, r3, #1024	@ 0x400
 8004c22:	683b      	ldr	r3, [r7, #0]
 8004c24:	685b      	ldr	r3, [r3, #4]
 8004c26:	4313      	orrs	r3, r2
 8004c28:	60fb      	str	r3, [r7, #12]
 8004c2a:	68fb      	ldr	r3, [r7, #12]
 8004c2c:	f423 6200 	bic.w	r2, r3, #2048	@ 0x800
 8004c30:	683b      	ldr	r3, [r7, #0]
 8004c32:	681b      	ldr	r3, [r3, #0]
 8004c34:	4313      	orrs	r3, r2
 8004c36:	60fb      	str	r3, [r7, #12]
 8004c38:	68fb      	ldr	r3, [r7, #12]
 8004c3a:	f423 5280 	bic.w	r2, r3, #4096	@ 0x1000
 8004c3e:	683b      	ldr	r3, [r7, #0]
 8004c40:	691b      	ldr	r3, [r3, #16]
 8004c42:	4313      	orrs	r3, r2
 8004c44:	60fb      	str	r3, [r7, #12]
 8004c46:	68fb      	ldr	r3, [r7, #12]
 8004c48:	f423 5200 	bic.w	r2, r3, #8192	@ 0x2000
 8004c4c:	683b      	ldr	r3, [r7, #0]
 8004c4e:	695b      	ldr	r3, [r3, #20]
 8004c50:	4313      	orrs	r3, r2
 8004c52:	60fb      	str	r3, [r7, #12]
 8004c54:	68fb      	ldr	r3, [r7, #12]
 8004c56:	f423 4280 	bic.w	r2, r3, #16384	@ 0x4000
 8004c5a:	683b      	ldr	r3, [r7, #0]
 8004c5c:	69db      	ldr	r3, [r3, #28]
 8004c5e:	4313      	orrs	r3, r2
 8004c60:	60fb      	str	r3, [r7, #12]
 8004c62:	687b      	ldr	r3, [r7, #4]
 8004c64:	681b      	ldr	r3, [r3, #0]
 8004c66:	68fa      	ldr	r2, [r7, #12]
 8004c68:	645a      	str	r2, [r3, #68]	@ 0x44
 8004c6a:	687b      	ldr	r3, [r7, #4]
 8004c6c:	2200      	movs	r2, #0
 8004c6e:	f883 203c 	strb.w	r2, [r3, #60]	@ 0x3c
 8004c72:	2300      	movs	r3, #0
 8004c74:	4618      	mov	r0, r3
 8004c76:	3714      	adds	r7, #20
 8004c78:	46bd      	mov	sp, r7
 8004c7a:	f85d 7b04 	ldr.w	r7, [sp], #4
 8004c7e:	4770      	bx	lr

08004c80 <HAL_UART_Init>:
 8004c80:	b580      	push	{r7, lr}
 8004c82:	b082      	sub	sp, #8
 8004c84:	af00      	add	r7, sp, #0
 8004c86:	6078      	str	r0, [r7, #4]
 8004c88:	687b      	ldr	r3, [r7, #4]
 8004c8a:	2b00      	cmp	r3, #0
 8004c8c:	d101      	bne.n	8004c92 <HAL_UART_Init+0x12>
 8004c8e:	2301      	movs	r3, #1
 8004c90:	e042      	b.n	8004d18 <HAL_UART_Init+0x98>
 8004c92:	687b      	ldr	r3, [r7, #4]
 8004c94:	f893 3041 	ldrb.w	r3, [r3, #65]	@ 0x41
 8004c98:	b2db      	uxtb	r3, r3
 8004c9a:	2b00      	cmp	r3, #0
 8004c9c:	d106      	bne.n	8004cac <HAL_UART_Init+0x2c>
 8004c9e:	687b      	ldr	r3, [r7, #4]
 8004ca0:	2200      	movs	r2, #0
 8004ca2:	f883 2040 	strb.w	r2, [r3, #64]	@ 0x40
 8004ca6:	6878      	ldr	r0, [r7, #4]
 8004ca8:	f7fd fee0 	bl	8002a6c <HAL_UART_MspInit>
 8004cac:	687b      	ldr	r3, [r7, #4]
 8004cae:	2224      	movs	r2, #36	@ 0x24
 8004cb0:	f883 2041 	strb.w	r2, [r3, #65]	@ 0x41
 8004cb4:	687b      	ldr	r3, [r7, #4]
 8004cb6:	681b      	ldr	r3, [r3, #0]
 8004cb8:	68da      	ldr	r2, [r3, #12]
 8004cba:	687b      	ldr	r3, [r7, #4]
 8004cbc:	681b      	ldr	r3, [r3, #0]
 8004cbe:	f422 5200 	bic.w	r2, r2, #8192	@ 0x2000
 8004cc2:	60da      	str	r2, [r3, #12]
 8004cc4:	6878      	ldr	r0, [r7, #4]
 8004cc6:	f000 fdd3 	bl	8005870 <UART_SetConfig>
 8004cca:	687b      	ldr	r3, [r7, #4]
 8004ccc:	681b      	ldr	r3, [r3, #0]
 8004cce:	691a      	ldr	r2, [r3, #16]
 8004cd0:	687b      	ldr	r3, [r7, #4]
 8004cd2:	681b      	ldr	r3, [r3, #0]
 8004cd4:	f422 4290 	bic.w	r2, r2, #18432	@ 0x4800
 8004cd8:	611a      	str	r2, [r3, #16]
 8004cda:	687b      	ldr	r3, [r7, #4]
 8004cdc:	681b      	ldr	r3, [r3, #0]
 8004cde:	695a      	ldr	r2, [r3, #20]
 8004ce0:	687b      	ldr	r3, [r7, #4]
 8004ce2:	681b      	ldr	r3, [r3, #0]
 8004ce4:	f022 022a 	bic.w	r2, r2, #42	@ 0x2a
 8004ce8:	615a      	str	r2, [r3, #20]
 8004cea:	687b      	ldr	r3, [r7, #4]
 8004cec:	681b      	ldr	r3, [r3, #0]
 8004cee:	68da      	ldr	r2, [r3, #12]
 8004cf0:	687b      	ldr	r3, [r7, #4]
 8004cf2:	681b      	ldr	r3, [r3, #0]
 8004cf4:	f442 5200 	orr.w	r2, r2, #8192	@ 0x2000
 8004cf8:	60da      	str	r2, [r3, #12]
 8004cfa:	687b      	ldr	r3, [r7, #4]
 8004cfc:	2200      	movs	r2, #0
 8004cfe:	645a      	str	r2, [r3, #68]	@ 0x44
 8004d00:	687b      	ldr	r3, [r7, #4]
 8004d02:	2220      	movs	r2, #32
 8004d04:	f883 2041 	strb.w	r2, [r3, #65]	@ 0x41
 8004d08:	687b      	ldr	r3, [r7, #4]
 8004d0a:	2220      	movs	r2, #32
 8004d0c:	f883 2042 	strb.w	r2, [r3, #66]	@ 0x42
 8004d10:	687b      	ldr	r3, [r7, #4]
 8004d12:	2200      	movs	r2, #0
 8004d14:	635a      	str	r2, [r3, #52]	@ 0x34
 8004d16:	2300      	movs	r3, #0
 8004d18:	4618      	mov	r0, r3
 8004d1a:	3708      	adds	r7, #8
 8004d1c:	46bd      	mov	sp, r7
 8004d1e:	bd80      	pop	{r7, pc}

08004d20 <HAL_UART_Transmit>:
 8004d20:	b580      	push	{r7, lr}
 8004d22:	b08a      	sub	sp, #40	@ 0x28
 8004d24:	af02      	add	r7, sp, #8
 8004d26:	60f8      	str	r0, [r7, #12]
 8004d28:	60b9      	str	r1, [r7, #8]
 8004d2a:	603b      	str	r3, [r7, #0]
 8004d2c:	4613      	mov	r3, r2
 8004d2e:	80fb      	strh	r3, [r7, #6]
 8004d30:	2300      	movs	r3, #0
 8004d32:	617b      	str	r3, [r7, #20]
 8004d34:	68fb      	ldr	r3, [r7, #12]
 8004d36:	f893 3041 	ldrb.w	r3, [r3, #65]	@ 0x41
 8004d3a:	b2db      	uxtb	r3, r3
 8004d3c:	2b20      	cmp	r3, #32
 8004d3e:	d175      	bne.n	8004e2c <HAL_UART_Transmit+0x10c>
 8004d40:	68bb      	ldr	r3, [r7, #8]
 8004d42:	2b00      	cmp	r3, #0
 8004d44:	d002      	beq.n	8004d4c <HAL_UART_Transmit+0x2c>
 8004d46:	88fb      	ldrh	r3, [r7, #6]
 8004d48:	2b00      	cmp	r3, #0
 8004d4a:	d101      	bne.n	8004d50 <HAL_UART_Transmit+0x30>
 8004d4c:	2301      	movs	r3, #1
 8004d4e:	e06e      	b.n	8004e2e <HAL_UART_Transmit+0x10e>
 8004d50:	68fb      	ldr	r3, [r7, #12]
 8004d52:	2200      	movs	r2, #0
 8004d54:	645a      	str	r2, [r3, #68]	@ 0x44
 8004d56:	68fb      	ldr	r3, [r7, #12]
 8004d58:	2221      	movs	r2, #33	@ 0x21
 8004d5a:	f883 2041 	strb.w	r2, [r3, #65]	@ 0x41
 8004d5e:	f7fd ff65 	bl	8002c2c <HAL_GetTick>
 8004d62:	6178      	str	r0, [r7, #20]
 8004d64:	68fb      	ldr	r3, [r7, #12]
 8004d66:	88fa      	ldrh	r2, [r7, #6]
 8004d68:	849a      	strh	r2, [r3, #36]	@ 0x24
 8004d6a:	68fb      	ldr	r3, [r7, #12]
 8004d6c:	88fa      	ldrh	r2, [r7, #6]
 8004d6e:	84da      	strh	r2, [r3, #38]	@ 0x26
 8004d70:	68fb      	ldr	r3, [r7, #12]
 8004d72:	689b      	ldr	r3, [r3, #8]
 8004d74:	f5b3 5f80 	cmp.w	r3, #4096	@ 0x1000
 8004d78:	d108      	bne.n	8004d8c <HAL_UART_Transmit+0x6c>
 8004d7a:	68fb      	ldr	r3, [r7, #12]
 8004d7c:	691b      	ldr	r3, [r3, #16]
 8004d7e:	2b00      	cmp	r3, #0
 8004d80:	d104      	bne.n	8004d8c <HAL_UART_Transmit+0x6c>
 8004d82:	2300      	movs	r3, #0
 8004d84:	61fb      	str	r3, [r7, #28]
 8004d86:	68bb      	ldr	r3, [r7, #8]
 8004d88:	61bb      	str	r3, [r7, #24]
 8004d8a:	e003      	b.n	8004d94 <HAL_UART_Transmit+0x74>
 8004d8c:	68bb      	ldr	r3, [r7, #8]
 8004d8e:	61fb      	str	r3, [r7, #28]
 8004d90:	2300      	movs	r3, #0
 8004d92:	61bb      	str	r3, [r7, #24]
 8004d94:	e02e      	b.n	8004df4 <HAL_UART_Transmit+0xd4>
 8004d96:	683b      	ldr	r3, [r7, #0]
 8004d98:	9300      	str	r3, [sp, #0]
 8004d9a:	697b      	ldr	r3, [r7, #20]
 8004d9c:	2200      	movs	r2, #0
 8004d9e:	2180      	movs	r1, #128	@ 0x80
 8004da0:	68f8      	ldr	r0, [r7, #12]
 8004da2:	f000 fb37 	bl	8005414 <UART_WaitOnFlagUntilTimeout>
 8004da6:	4603      	mov	r3, r0
 8004da8:	2b00      	cmp	r3, #0
 8004daa:	d005      	beq.n	8004db8 <HAL_UART_Transmit+0x98>
 8004dac:	68fb      	ldr	r3, [r7, #12]
 8004dae:	2220      	movs	r2, #32
 8004db0:	f883 2041 	strb.w	r2, [r3, #65]	@ 0x41
 8004db4:	2303      	movs	r3, #3
 8004db6:	e03a      	b.n	8004e2e <HAL_UART_Transmit+0x10e>
 8004db8:	69fb      	ldr	r3, [r7, #28]
 8004dba:	2b00      	cmp	r3, #0
 8004dbc:	d10b      	bne.n	8004dd6 <HAL_UART_Transmit+0xb6>
 8004dbe:	69bb      	ldr	r3, [r7, #24]
 8004dc0:	881b      	ldrh	r3, [r3, #0]
 8004dc2:	461a      	mov	r2, r3
 8004dc4:	68fb      	ldr	r3, [r7, #12]
 8004dc6:	681b      	ldr	r3, [r3, #0]
 8004dc8:	f3c2 0208 	ubfx	r2, r2, #0, #9
 8004dcc:	605a      	str	r2, [r3, #4]
 8004dce:	69bb      	ldr	r3, [r7, #24]
 8004dd0:	3302      	adds	r3, #2
 8004dd2:	61bb      	str	r3, [r7, #24]
 8004dd4:	e007      	b.n	8004de6 <HAL_UART_Transmit+0xc6>
 8004dd6:	69fb      	ldr	r3, [r7, #28]
 8004dd8:	781a      	ldrb	r2, [r3, #0]
 8004dda:	68fb      	ldr	r3, [r7, #12]
 8004ddc:	681b      	ldr	r3, [r3, #0]
 8004dde:	605a      	str	r2, [r3, #4]
 8004de0:	69fb      	ldr	r3, [r7, #28]
 8004de2:	3301      	adds	r3, #1
 8004de4:	61fb      	str	r3, [r7, #28]
 8004de6:	68fb      	ldr	r3, [r7, #12]
 8004de8:	8cdb      	ldrh	r3, [r3, #38]	@ 0x26
 8004dea:	b29b      	uxth	r3, r3
 8004dec:	3b01      	subs	r3, #1
 8004dee:	b29a      	uxth	r2, r3
 8004df0:	68fb      	ldr	r3, [r7, #12]
 8004df2:	84da      	strh	r2, [r3, #38]	@ 0x26
 8004df4:	68fb      	ldr	r3, [r7, #12]
 8004df6:	8cdb      	ldrh	r3, [r3, #38]	@ 0x26
 8004df8:	b29b      	uxth	r3, r3
 8004dfa:	2b00      	cmp	r3, #0
 8004dfc:	d1cb      	bne.n	8004d96 <HAL_UART_Transmit+0x76>
 8004dfe:	683b      	ldr	r3, [r7, #0]
 8004e00:	9300      	str	r3, [sp, #0]
 8004e02:	697b      	ldr	r3, [r7, #20]
 8004e04:	2200      	movs	r2, #0
 8004e06:	2140      	movs	r1, #64	@ 0x40
 8004e08:	68f8      	ldr	r0, [r7, #12]
 8004e0a:	f000 fb03 	bl	8005414 <UART_WaitOnFlagUntilTimeout>
 8004e0e:	4603      	mov	r3, r0
 8004e10:	2b00      	cmp	r3, #0
 8004e12:	d005      	beq.n	8004e20 <HAL_UART_Transmit+0x100>
 8004e14:	68fb      	ldr	r3, [r7, #12]
 8004e16:	2220      	movs	r2, #32
 8004e18:	f883 2041 	strb.w	r2, [r3, #65]	@ 0x41
 8004e1c:	2303      	movs	r3, #3
 8004e1e:	e006      	b.n	8004e2e <HAL_UART_Transmit+0x10e>
 8004e20:	68fb      	ldr	r3, [r7, #12]
 8004e22:	2220      	movs	r2, #32
 8004e24:	f883 2041 	strb.w	r2, [r3, #65]	@ 0x41
 8004e28:	2300      	movs	r3, #0
 8004e2a:	e000      	b.n	8004e2e <HAL_UART_Transmit+0x10e>
 8004e2c:	2302      	movs	r3, #2
 8004e2e:	4618      	mov	r0, r3
 8004e30:	3720      	adds	r7, #32
 8004e32:	46bd      	mov	sp, r7
 8004e34:	bd80      	pop	{r7, pc}

08004e36 <HAL_UART_Receive_IT>:
 8004e36:	b580      	push	{r7, lr}
 8004e38:	b084      	sub	sp, #16
 8004e3a:	af00      	add	r7, sp, #0
 8004e3c:	60f8      	str	r0, [r7, #12]
 8004e3e:	60b9      	str	r1, [r7, #8]
 8004e40:	4613      	mov	r3, r2
 8004e42:	80fb      	strh	r3, [r7, #6]
 8004e44:	68fb      	ldr	r3, [r7, #12]
 8004e46:	f893 3042 	ldrb.w	r3, [r3, #66]	@ 0x42
 8004e4a:	b2db      	uxtb	r3, r3
 8004e4c:	2b20      	cmp	r3, #32
 8004e4e:	d112      	bne.n	8004e76 <HAL_UART_Receive_IT+0x40>
 8004e50:	68bb      	ldr	r3, [r7, #8]
 8004e52:	2b00      	cmp	r3, #0
 8004e54:	d002      	beq.n	8004e5c <HAL_UART_Receive_IT+0x26>
 8004e56:	88fb      	ldrh	r3, [r7, #6]
 8004e58:	2b00      	cmp	r3, #0
 8004e5a:	d101      	bne.n	8004e60 <HAL_UART_Receive_IT+0x2a>
 8004e5c:	2301      	movs	r3, #1
 8004e5e:	e00b      	b.n	8004e78 <HAL_UART_Receive_IT+0x42>
 8004e60:	68fb      	ldr	r3, [r7, #12]
 8004e62:	2200      	movs	r2, #0
 8004e64:	631a      	str	r2, [r3, #48]	@ 0x30
 8004e66:	88fb      	ldrh	r3, [r7, #6]
 8004e68:	461a      	mov	r2, r3
 8004e6a:	68b9      	ldr	r1, [r7, #8]
 8004e6c:	68f8      	ldr	r0, [r7, #12]
 8004e6e:	f000 fb2a 	bl	80054c6 <UART_Start_Receive_IT>
 8004e72:	4603      	mov	r3, r0
 8004e74:	e000      	b.n	8004e78 <HAL_UART_Receive_IT+0x42>
 8004e76:	2302      	movs	r3, #2
 8004e78:	4618      	mov	r0, r3
 8004e7a:	3710      	adds	r7, #16
 8004e7c:	46bd      	mov	sp, r7
 8004e7e:	bd80      	pop	{r7, pc}

08004e80 <HAL_UART_IRQHandler>:
 8004e80:	b580      	push	{r7, lr}
 8004e82:	b0ba      	sub	sp, #232	@ 0xe8
 8004e84:	af00      	add	r7, sp, #0
 8004e86:	6078      	str	r0, [r7, #4]
 8004e88:	687b      	ldr	r3, [r7, #4]
 8004e8a:	681b      	ldr	r3, [r3, #0]
 8004e8c:	681b      	ldr	r3, [r3, #0]
 8004e8e:	f8c7 30e4 	str.w	r3, [r7, #228]	@ 0xe4
 8004e92:	687b      	ldr	r3, [r7, #4]
 8004e94:	681b      	ldr	r3, [r3, #0]
 8004e96:	68db      	ldr	r3, [r3, #12]
 8004e98:	f8c7 30e0 	str.w	r3, [r7, #224]	@ 0xe0
 8004e9c:	687b      	ldr	r3, [r7, #4]
 8004e9e:	681b      	ldr	r3, [r3, #0]
 8004ea0:	695b      	ldr	r3, [r3, #20]
 8004ea2:	f8c7 30dc 	str.w	r3, [r7, #220]	@ 0xdc
 8004ea6:	2300      	movs	r3, #0
 8004ea8:	f8c7 30d8 	str.w	r3, [r7, #216]	@ 0xd8
 8004eac:	2300      	movs	r3, #0
 8004eae:	f8c7 30d4 	str.w	r3, [r7, #212]	@ 0xd4
 8004eb2:	f8d7 30e4 	ldr.w	r3, [r7, #228]	@ 0xe4
 8004eb6:	f003 030f 	and.w	r3, r3, #15
 8004eba:	f8c7 30d8 	str.w	r3, [r7, #216]	@ 0xd8
 8004ebe:	f8d7 30d8 	ldr.w	r3, [r7, #216]	@ 0xd8
 8004ec2:	2b00      	cmp	r3, #0
 8004ec4:	d10f      	bne.n	8004ee6 <HAL_UART_IRQHandler+0x66>
 8004ec6:	f8d7 30e4 	ldr.w	r3, [r7, #228]	@ 0xe4
 8004eca:	f003 0320 	and.w	r3, r3, #32
 8004ece:	2b00      	cmp	r3, #0
 8004ed0:	d009      	beq.n	8004ee6 <HAL_UART_IRQHandler+0x66>
 8004ed2:	f8d7 30e0 	ldr.w	r3, [r7, #224]	@ 0xe0
 8004ed6:	f003 0320 	and.w	r3, r3, #32
 8004eda:	2b00      	cmp	r3, #0
 8004edc:	d003      	beq.n	8004ee6 <HAL_UART_IRQHandler+0x66>
 8004ede:	6878      	ldr	r0, [r7, #4]
 8004ee0:	f000 fc07 	bl	80056f2 <UART_Receive_IT>
 8004ee4:	e273      	b.n	80053ce <HAL_UART_IRQHandler+0x54e>
 8004ee6:	f8d7 30d8 	ldr.w	r3, [r7, #216]	@ 0xd8
 8004eea:	2b00      	cmp	r3, #0
 8004eec:	f000 80de 	beq.w	80050ac <HAL_UART_IRQHandler+0x22c>
 8004ef0:	f8d7 30dc 	ldr.w	r3, [r7, #220]	@ 0xdc
 8004ef4:	f003 0301 	and.w	r3, r3, #1
 8004ef8:	2b00      	cmp	r3, #0
 8004efa:	d106      	bne.n	8004f0a <HAL_UART_IRQHandler+0x8a>
 8004efc:	f8d7 30e0 	ldr.w	r3, [r7, #224]	@ 0xe0
 8004f00:	f403 7390 	and.w	r3, r3, #288	@ 0x120
 8004f04:	2b00      	cmp	r3, #0
 8004f06:	f000 80d1 	beq.w	80050ac <HAL_UART_IRQHandler+0x22c>
 8004f0a:	f8d7 30e4 	ldr.w	r3, [r7, #228]	@ 0xe4
 8004f0e:	f003 0301 	and.w	r3, r3, #1
 8004f12:	2b00      	cmp	r3, #0
 8004f14:	d00b      	beq.n	8004f2e <HAL_UART_IRQHandler+0xae>
 8004f16:	f8d7 30e0 	ldr.w	r3, [r7, #224]	@ 0xe0
 8004f1a:	f403 7380 	and.w	r3, r3, #256	@ 0x100
 8004f1e:	2b00      	cmp	r3, #0
 8004f20:	d005      	beq.n	8004f2e <HAL_UART_IRQHandler+0xae>
 8004f22:	687b      	ldr	r3, [r7, #4]
 8004f24:	6c5b      	ldr	r3, [r3, #68]	@ 0x44
 8004f26:	f043 0201 	orr.w	r2, r3, #1
 8004f2a:	687b      	ldr	r3, [r7, #4]
 8004f2c:	645a      	str	r2, [r3, #68]	@ 0x44
 8004f2e:	f8d7 30e4 	ldr.w	r3, [r7, #228]	@ 0xe4
 8004f32:	f003 0304 	and.w	r3, r3, #4
 8004f36:	2b00      	cmp	r3, #0
 8004f38:	d00b      	beq.n	8004f52 <HAL_UART_IRQHandler+0xd2>
 8004f3a:	f8d7 30dc 	ldr.w	r3, [r7, #220]	@ 0xdc
 8004f3e:	f003 0301 	and.w	r3, r3, #1
 8004f42:	2b00      	cmp	r3, #0
 8004f44:	d005      	beq.n	8004f52 <HAL_UART_IRQHandler+0xd2>
 8004f46:	687b      	ldr	r3, [r7, #4]
 8004f48:	6c5b      	ldr	r3, [r3, #68]	@ 0x44
 8004f4a:	f043 0202 	orr.w	r2, r3, #2
 8004f4e:	687b      	ldr	r3, [r7, #4]
 8004f50:	645a      	str	r2, [r3, #68]	@ 0x44
 8004f52:	f8d7 30e4 	ldr.w	r3, [r7, #228]	@ 0xe4
 8004f56:	f003 0302 	and.w	r3, r3, #2
 8004f5a:	2b00      	cmp	r3, #0
 8004f5c:	d00b      	beq.n	8004f76 <HAL_UART_IRQHandler+0xf6>
 8004f5e:	f8d7 30dc 	ldr.w	r3, [r7, #220]	@ 0xdc
 8004f62:	f003 0301 	and.w	r3, r3, #1
 8004f66:	2b00      	cmp	r3, #0
 8004f68:	d005      	beq.n	8004f76 <HAL_UART_IRQHandler+0xf6>
 8004f6a:	687b      	ldr	r3, [r7, #4]
 8004f6c:	6c5b      	ldr	r3, [r3, #68]	@ 0x44
 8004f6e:	f043 0204 	orr.w	r2, r3, #4
 8004f72:	687b      	ldr	r3, [r7, #4]
 8004f74:	645a      	str	r2, [r3, #68]	@ 0x44
 8004f76:	f8d7 30e4 	ldr.w	r3, [r7, #228]	@ 0xe4
 8004f7a:	f003 0308 	and.w	r3, r3, #8
 8004f7e:	2b00      	cmp	r3, #0
 8004f80:	d011      	beq.n	8004fa6 <HAL_UART_IRQHandler+0x126>
 8004f82:	f8d7 30e0 	ldr.w	r3, [r7, #224]	@ 0xe0
 8004f86:	f003 0320 	and.w	r3, r3, #32
 8004f8a:	2b00      	cmp	r3, #0
 8004f8c:	d105      	bne.n	8004f9a <HAL_UART_IRQHandler+0x11a>
 8004f8e:	f8d7 30dc 	ldr.w	r3, [r7, #220]	@ 0xdc
 8004f92:	f003 0301 	and.w	r3, r3, #1
 8004f96:	2b00      	cmp	r3, #0
 8004f98:	d005      	beq.n	8004fa6 <HAL_UART_IRQHandler+0x126>
 8004f9a:	687b      	ldr	r3, [r7, #4]
 8004f9c:	6c5b      	ldr	r3, [r3, #68]	@ 0x44
 8004f9e:	f043 0208 	orr.w	r2, r3, #8
 8004fa2:	687b      	ldr	r3, [r7, #4]
 8004fa4:	645a      	str	r2, [r3, #68]	@ 0x44
 8004fa6:	687b      	ldr	r3, [r7, #4]
 8004fa8:	6c5b      	ldr	r3, [r3, #68]	@ 0x44
 8004faa:	2b00      	cmp	r3, #0
 8004fac:	f000 820a 	beq.w	80053c4 <HAL_UART_IRQHandler+0x544>
 8004fb0:	f8d7 30e4 	ldr.w	r3, [r7, #228]	@ 0xe4
 8004fb4:	f003 0320 	and.w	r3, r3, #32
 8004fb8:	2b00      	cmp	r3, #0
 8004fba:	d008      	beq.n	8004fce <HAL_UART_IRQHandler+0x14e>
 8004fbc:	f8d7 30e0 	ldr.w	r3, [r7, #224]	@ 0xe0
 8004fc0:	f003 0320 	and.w	r3, r3, #32
 8004fc4:	2b00      	cmp	r3, #0
 8004fc6:	d002      	beq.n	8004fce <HAL_UART_IRQHandler+0x14e>
 8004fc8:	6878      	ldr	r0, [r7, #4]
 8004fca:	f000 fb92 	bl	80056f2 <UART_Receive_IT>
 8004fce:	687b      	ldr	r3, [r7, #4]
 8004fd0:	681b      	ldr	r3, [r3, #0]
 8004fd2:	695b      	ldr	r3, [r3, #20]
 8004fd4:	f003 0340 	and.w	r3, r3, #64	@ 0x40
 8004fd8:	2b40      	cmp	r3, #64	@ 0x40
 8004fda:	bf0c      	ite	eq
 8004fdc:	2301      	moveq	r3, #1
 8004fde:	2300      	movne	r3, #0
 8004fe0:	b2db      	uxtb	r3, r3
 8004fe2:	f8c7 30d4 	str.w	r3, [r7, #212]	@ 0xd4
 8004fe6:	687b      	ldr	r3, [r7, #4]
 8004fe8:	6c5b      	ldr	r3, [r3, #68]	@ 0x44
 8004fea:	f003 0308 	and.w	r3, r3, #8
 8004fee:	2b00      	cmp	r3, #0
 8004ff0:	d103      	bne.n	8004ffa <HAL_UART_IRQHandler+0x17a>
 8004ff2:	f8d7 30d4 	ldr.w	r3, [r7, #212]	@ 0xd4
 8004ff6:	2b00      	cmp	r3, #0
 8004ff8:	d04f      	beq.n	800509a <HAL_UART_IRQHandler+0x21a>
 8004ffa:	6878      	ldr	r0, [r7, #4]
 8004ffc:	f000 fa9d 	bl	800553a <UART_EndRxTransfer>
 8005000:	687b      	ldr	r3, [r7, #4]
 8005002:	681b      	ldr	r3, [r3, #0]
 8005004:	695b      	ldr	r3, [r3, #20]
 8005006:	f003 0340 	and.w	r3, r3, #64	@ 0x40
 800500a:	2b40      	cmp	r3, #64	@ 0x40
 800500c:	d141      	bne.n	8005092 <HAL_UART_IRQHandler+0x212>
 800500e:	687b      	ldr	r3, [r7, #4]
 8005010:	681b      	ldr	r3, [r3, #0]
 8005012:	3314      	adds	r3, #20
 8005014:	f8c7 309c 	str.w	r3, [r7, #156]	@ 0x9c
 8005018:	f8d7 309c 	ldr.w	r3, [r7, #156]	@ 0x9c
 800501c:	e853 3f00 	ldrex	r3, [r3]
 8005020:	f8c7 3098 	str.w	r3, [r7, #152]	@ 0x98
 8005024:	f8d7 3098 	ldr.w	r3, [r7, #152]	@ 0x98
 8005028:	f023 0340 	bic.w	r3, r3, #64	@ 0x40
 800502c:	f8c7 30d0 	str.w	r3, [r7, #208]	@ 0xd0
 8005030:	687b      	ldr	r3, [r7, #4]
 8005032:	681b      	ldr	r3, [r3, #0]
 8005034:	3314      	adds	r3, #20
 8005036:	f8d7 20d0 	ldr.w	r2, [r7, #208]	@ 0xd0
 800503a:	f8c7 20a8 	str.w	r2, [r7, #168]	@ 0xa8
 800503e:	f8c7 30a4 	str.w	r3, [r7, #164]	@ 0xa4
 8005042:	f8d7 10a4 	ldr.w	r1, [r7, #164]	@ 0xa4
 8005046:	f8d7 20a8 	ldr.w	r2, [r7, #168]	@ 0xa8
 800504a:	e841 2300 	strex	r3, r2, [r1]
 800504e:	f8c7 30a0 	str.w	r3, [r7, #160]	@ 0xa0
 8005052:	f8d7 30a0 	ldr.w	r3, [r7, #160]	@ 0xa0
 8005056:	2b00      	cmp	r3, #0
 8005058:	d1d9      	bne.n	800500e <HAL_UART_IRQHandler+0x18e>
 800505a:	687b      	ldr	r3, [r7, #4]
 800505c:	6bdb      	ldr	r3, [r3, #60]	@ 0x3c
 800505e:	2b00      	cmp	r3, #0
 8005060:	d013      	beq.n	800508a <HAL_UART_IRQHandler+0x20a>
 8005062:	687b      	ldr	r3, [r7, #4]
 8005064:	6bdb      	ldr	r3, [r3, #60]	@ 0x3c
 8005066:	4a8a      	ldr	r2, [pc, #552]	@ (8005290 <HAL_UART_IRQHandler+0x410>)
 8005068:	651a      	str	r2, [r3, #80]	@ 0x50
 800506a:	687b      	ldr	r3, [r7, #4]
 800506c:	6bdb      	ldr	r3, [r3, #60]	@ 0x3c
 800506e:	4618      	mov	r0, r3
 8005070:	f7fd ff69 	bl	8002f46 <HAL_DMA_Abort_IT>
 8005074:	4603      	mov	r3, r0
 8005076:	2b00      	cmp	r3, #0
 8005078:	d016      	beq.n	80050a8 <HAL_UART_IRQHandler+0x228>
 800507a:	687b      	ldr	r3, [r7, #4]
 800507c:	6bdb      	ldr	r3, [r3, #60]	@ 0x3c
 800507e:	6d1b      	ldr	r3, [r3, #80]	@ 0x50
 8005080:	687a      	ldr	r2, [r7, #4]
 8005082:	6bd2      	ldr	r2, [r2, #60]	@ 0x3c
 8005084:	4610      	mov	r0, r2
 8005086:	4798      	blx	r3
 8005088:	e00e      	b.n	80050a8 <HAL_UART_IRQHandler+0x228>
 800508a:	6878      	ldr	r0, [r7, #4]
 800508c:	f000 f9ac 	bl	80053e8 <HAL_UART_ErrorCallback>
 8005090:	e00a      	b.n	80050a8 <HAL_UART_IRQHandler+0x228>
 8005092:	6878      	ldr	r0, [r7, #4]
 8005094:	f000 f9a8 	bl	80053e8 <HAL_UART_ErrorCallback>
 8005098:	e006      	b.n	80050a8 <HAL_UART_IRQHandler+0x228>
 800509a:	6878      	ldr	r0, [r7, #4]
 800509c:	f000 f9a4 	bl	80053e8 <HAL_UART_ErrorCallback>
 80050a0:	687b      	ldr	r3, [r7, #4]
 80050a2:	2200      	movs	r2, #0
 80050a4:	645a      	str	r2, [r3, #68]	@ 0x44
 80050a6:	e18d      	b.n	80053c4 <HAL_UART_IRQHandler+0x544>
 80050a8:	bf00      	nop
 80050aa:	e18b      	b.n	80053c4 <HAL_UART_IRQHandler+0x544>
 80050ac:	687b      	ldr	r3, [r7, #4]
 80050ae:	6b1b      	ldr	r3, [r3, #48]	@ 0x30
 80050b0:	2b01      	cmp	r3, #1
 80050b2:	f040 8167 	bne.w	8005384 <HAL_UART_IRQHandler+0x504>
 80050b6:	f8d7 30e4 	ldr.w	r3, [r7, #228]	@ 0xe4
 80050ba:	f003 0310 	and.w	r3, r3, #16
 80050be:	2b00      	cmp	r3, #0
 80050c0:	f000 8160 	beq.w	8005384 <HAL_UART_IRQHandler+0x504>
 80050c4:	f8d7 30e0 	ldr.w	r3, [r7, #224]	@ 0xe0
 80050c8:	f003 0310 	and.w	r3, r3, #16
 80050cc:	2b00      	cmp	r3, #0
 80050ce:	f000 8159 	beq.w	8005384 <HAL_UART_IRQHandler+0x504>
 80050d2:	2300      	movs	r3, #0
 80050d4:	60bb      	str	r3, [r7, #8]
 80050d6:	687b      	ldr	r3, [r7, #4]
 80050d8:	681b      	ldr	r3, [r3, #0]
 80050da:	681b      	ldr	r3, [r3, #0]
 80050dc:	60bb      	str	r3, [r7, #8]
 80050de:	687b      	ldr	r3, [r7, #4]
 80050e0:	681b      	ldr	r3, [r3, #0]
 80050e2:	685b      	ldr	r3, [r3, #4]
 80050e4:	60bb      	str	r3, [r7, #8]
 80050e6:	68bb      	ldr	r3, [r7, #8]
 80050e8:	687b      	ldr	r3, [r7, #4]
 80050ea:	681b      	ldr	r3, [r3, #0]
 80050ec:	695b      	ldr	r3, [r3, #20]
 80050ee:	f003 0340 	and.w	r3, r3, #64	@ 0x40
 80050f2:	2b40      	cmp	r3, #64	@ 0x40
 80050f4:	f040 80ce 	bne.w	8005294 <HAL_UART_IRQHandler+0x414>
 80050f8:	687b      	ldr	r3, [r7, #4]
 80050fa:	6bdb      	ldr	r3, [r3, #60]	@ 0x3c
 80050fc:	681b      	ldr	r3, [r3, #0]
 80050fe:	685b      	ldr	r3, [r3, #4]
 8005100:	f8a7 30be 	strh.w	r3, [r7, #190]	@ 0xbe
 8005104:	f8b7 30be 	ldrh.w	r3, [r7, #190]	@ 0xbe
 8005108:	2b00      	cmp	r3, #0
 800510a:	f000 80a9 	beq.w	8005260 <HAL_UART_IRQHandler+0x3e0>
 800510e:	687b      	ldr	r3, [r7, #4]
 8005110:	8d9b      	ldrh	r3, [r3, #44]	@ 0x2c
 8005112:	f8b7 20be 	ldrh.w	r2, [r7, #190]	@ 0xbe
 8005116:	429a      	cmp	r2, r3
 8005118:	f080 80a2 	bcs.w	8005260 <HAL_UART_IRQHandler+0x3e0>
 800511c:	687b      	ldr	r3, [r7, #4]
 800511e:	f8b7 20be 	ldrh.w	r2, [r7, #190]	@ 0xbe
 8005122:	85da      	strh	r2, [r3, #46]	@ 0x2e
 8005124:	687b      	ldr	r3, [r7, #4]
 8005126:	6bdb      	ldr	r3, [r3, #60]	@ 0x3c
 8005128:	69db      	ldr	r3, [r3, #28]
 800512a:	f5b3 7f80 	cmp.w	r3, #256	@ 0x100
 800512e:	f000 8088 	beq.w	8005242 <HAL_UART_IRQHandler+0x3c2>
 8005132:	687b      	ldr	r3, [r7, #4]
 8005134:	681b      	ldr	r3, [r3, #0]
 8005136:	330c      	adds	r3, #12
 8005138:	f8c7 3088 	str.w	r3, [r7, #136]	@ 0x88
 800513c:	f8d7 3088 	ldr.w	r3, [r7, #136]	@ 0x88
 8005140:	e853 3f00 	ldrex	r3, [r3]
 8005144:	f8c7 3084 	str.w	r3, [r7, #132]	@ 0x84
 8005148:	f8d7 3084 	ldr.w	r3, [r7, #132]	@ 0x84
 800514c:	f423 7380 	bic.w	r3, r3, #256	@ 0x100
 8005150:	f8c7 30b8 	str.w	r3, [r7, #184]	@ 0xb8
 8005154:	687b      	ldr	r3, [r7, #4]
 8005156:	681b      	ldr	r3, [r3, #0]
 8005158:	330c      	adds	r3, #12
 800515a:	f8d7 20b8 	ldr.w	r2, [r7, #184]	@ 0xb8
 800515e:	f8c7 2094 	str.w	r2, [r7, #148]	@ 0x94
 8005162:	f8c7 3090 	str.w	r3, [r7, #144]	@ 0x90
 8005166:	f8d7 1090 	ldr.w	r1, [r7, #144]	@ 0x90
 800516a:	f8d7 2094 	ldr.w	r2, [r7, #148]	@ 0x94
 800516e:	e841 2300 	strex	r3, r2, [r1]
 8005172:	f8c7 308c 	str.w	r3, [r7, #140]	@ 0x8c
 8005176:	f8d7 308c 	ldr.w	r3, [r7, #140]	@ 0x8c
 800517a:	2b00      	cmp	r3, #0
 800517c:	d1d9      	bne.n	8005132 <HAL_UART_IRQHandler+0x2b2>
 800517e:	687b      	ldr	r3, [r7, #4]
 8005180:	681b      	ldr	r3, [r3, #0]
 8005182:	3314      	adds	r3, #20
 8005184:	677b      	str	r3, [r7, #116]	@ 0x74
 8005186:	6f7b      	ldr	r3, [r7, #116]	@ 0x74
 8005188:	e853 3f00 	ldrex	r3, [r3]
 800518c:	673b      	str	r3, [r7, #112]	@ 0x70
 800518e:	6f3b      	ldr	r3, [r7, #112]	@ 0x70
 8005190:	f023 0301 	bic.w	r3, r3, #1
 8005194:	f8c7 30b4 	str.w	r3, [r7, #180]	@ 0xb4
 8005198:	687b      	ldr	r3, [r7, #4]
 800519a:	681b      	ldr	r3, [r3, #0]
 800519c:	3314      	adds	r3, #20
 800519e:	f8d7 20b4 	ldr.w	r2, [r7, #180]	@ 0xb4
 80051a2:	f8c7 2080 	str.w	r2, [r7, #128]	@ 0x80
 80051a6:	67fb      	str	r3, [r7, #124]	@ 0x7c
 80051a8:	6ff9      	ldr	r1, [r7, #124]	@ 0x7c
 80051aa:	f8d7 2080 	ldr.w	r2, [r7, #128]	@ 0x80
 80051ae:	e841 2300 	strex	r3, r2, [r1]
 80051b2:	67bb      	str	r3, [r7, #120]	@ 0x78
 80051b4:	6fbb      	ldr	r3, [r7, #120]	@ 0x78
 80051b6:	2b00      	cmp	r3, #0
 80051b8:	d1e1      	bne.n	800517e <HAL_UART_IRQHandler+0x2fe>
 80051ba:	687b      	ldr	r3, [r7, #4]
 80051bc:	681b      	ldr	r3, [r3, #0]
 80051be:	3314      	adds	r3, #20
 80051c0:	663b      	str	r3, [r7, #96]	@ 0x60
 80051c2:	6e3b      	ldr	r3, [r7, #96]	@ 0x60
 80051c4:	e853 3f00 	ldrex	r3, [r3]
 80051c8:	65fb      	str	r3, [r7, #92]	@ 0x5c
 80051ca:	6dfb      	ldr	r3, [r7, #92]	@ 0x5c
 80051cc:	f023 0340 	bic.w	r3, r3, #64	@ 0x40
 80051d0:	f8c7 30b0 	str.w	r3, [r7, #176]	@ 0xb0
 80051d4:	687b      	ldr	r3, [r7, #4]
 80051d6:	681b      	ldr	r3, [r3, #0]
 80051d8:	3314      	adds	r3, #20
 80051da:	f8d7 20b0 	ldr.w	r2, [r7, #176]	@ 0xb0
 80051de:	66fa      	str	r2, [r7, #108]	@ 0x6c
 80051e0:	66bb      	str	r3, [r7, #104]	@ 0x68
 80051e2:	6eb9      	ldr	r1, [r7, #104]	@ 0x68
 80051e4:	6efa      	ldr	r2, [r7, #108]	@ 0x6c
 80051e6:	e841 2300 	strex	r3, r2, [r1]
 80051ea:	667b      	str	r3, [r7, #100]	@ 0x64
 80051ec:	6e7b      	ldr	r3, [r7, #100]	@ 0x64
 80051ee:	2b00      	cmp	r3, #0
 80051f0:	d1e3      	bne.n	80051ba <HAL_UART_IRQHandler+0x33a>
 80051f2:	687b      	ldr	r3, [r7, #4]
 80051f4:	2220      	movs	r2, #32
 80051f6:	f883 2042 	strb.w	r2, [r3, #66]	@ 0x42
 80051fa:	687b      	ldr	r3, [r7, #4]
 80051fc:	2200      	movs	r2, #0
 80051fe:	631a      	str	r2, [r3, #48]	@ 0x30
 8005200:	687b      	ldr	r3, [r7, #4]
 8005202:	681b      	ldr	r3, [r3, #0]
 8005204:	330c      	adds	r3, #12
 8005206:	64fb      	str	r3, [r7, #76]	@ 0x4c
 8005208:	6cfb      	ldr	r3, [r7, #76]	@ 0x4c
 800520a:	e853 3f00 	ldrex	r3, [r3]
 800520e:	64bb      	str	r3, [r7, #72]	@ 0x48
 8005210:	6cbb      	ldr	r3, [r7, #72]	@ 0x48
 8005212:	f023 0310 	bic.w	r3, r3, #16
 8005216:	f8c7 30ac 	str.w	r3, [r7, #172]	@ 0xac
 800521a:	687b      	ldr	r3, [r7, #4]
 800521c:	681b      	ldr	r3, [r3, #0]
 800521e:	330c      	adds	r3, #12
 8005220:	f8d7 20ac 	ldr.w	r2, [r7, #172]	@ 0xac
 8005224:	65ba      	str	r2, [r7, #88]	@ 0x58
 8005226:	657b      	str	r3, [r7, #84]	@ 0x54
 8005228:	6d79      	ldr	r1, [r7, #84]	@ 0x54
 800522a:	6dba      	ldr	r2, [r7, #88]	@ 0x58
 800522c:	e841 2300 	strex	r3, r2, [r1]
 8005230:	653b      	str	r3, [r7, #80]	@ 0x50
 8005232:	6d3b      	ldr	r3, [r7, #80]	@ 0x50
 8005234:	2b00      	cmp	r3, #0
 8005236:	d1e3      	bne.n	8005200 <HAL_UART_IRQHandler+0x380>
 8005238:	687b      	ldr	r3, [r7, #4]
 800523a:	6bdb      	ldr	r3, [r3, #60]	@ 0x3c
 800523c:	4618      	mov	r0, r3
 800523e:	f7fd fe12 	bl	8002e66 <HAL_DMA_Abort>
 8005242:	687b      	ldr	r3, [r7, #4]
 8005244:	2202      	movs	r2, #2
 8005246:	635a      	str	r2, [r3, #52]	@ 0x34
 8005248:	687b      	ldr	r3, [r7, #4]
 800524a:	8d9a      	ldrh	r2, [r3, #44]	@ 0x2c
 800524c:	687b      	ldr	r3, [r7, #4]
 800524e:	8ddb      	ldrh	r3, [r3, #46]	@ 0x2e
 8005250:	b29b      	uxth	r3, r3
 8005252:	1ad3      	subs	r3, r2, r3
 8005254:	b29b      	uxth	r3, r3
 8005256:	4619      	mov	r1, r3
 8005258:	6878      	ldr	r0, [r7, #4]
 800525a:	f000 f8cf 	bl	80053fc <HAL_UARTEx_RxEventCallback>
 800525e:	e0b3      	b.n	80053c8 <HAL_UART_IRQHandler+0x548>
 8005260:	687b      	ldr	r3, [r7, #4]
 8005262:	8d9b      	ldrh	r3, [r3, #44]	@ 0x2c
 8005264:	f8b7 20be 	ldrh.w	r2, [r7, #190]	@ 0xbe
 8005268:	429a      	cmp	r2, r3
 800526a:	f040 80ad 	bne.w	80053c8 <HAL_UART_IRQHandler+0x548>
 800526e:	687b      	ldr	r3, [r7, #4]
 8005270:	6bdb      	ldr	r3, [r3, #60]	@ 0x3c
 8005272:	69db      	ldr	r3, [r3, #28]
 8005274:	f5b3 7f80 	cmp.w	r3, #256	@ 0x100
 8005278:	f040 80a6 	bne.w	80053c8 <HAL_UART_IRQHandler+0x548>
 800527c:	687b      	ldr	r3, [r7, #4]
 800527e:	2202      	movs	r2, #2
 8005280:	635a      	str	r2, [r3, #52]	@ 0x34
 8005282:	687b      	ldr	r3, [r7, #4]
 8005284:	8d9b      	ldrh	r3, [r3, #44]	@ 0x2c
 8005286:	4619      	mov	r1, r3
 8005288:	6878      	ldr	r0, [r7, #4]
 800528a:	f000 f8b7 	bl	80053fc <HAL_UARTEx_RxEventCallback>
 800528e:	e09b      	b.n	80053c8 <HAL_UART_IRQHandler+0x548>
 8005290:	08005601 	.word	0x08005601
 8005294:	687b      	ldr	r3, [r7, #4]
 8005296:	8d9a      	ldrh	r2, [r3, #44]	@ 0x2c
 8005298:	687b      	ldr	r3, [r7, #4]
 800529a:	8ddb      	ldrh	r3, [r3, #46]	@ 0x2e
 800529c:	b29b      	uxth	r3, r3
 800529e:	1ad3      	subs	r3, r2, r3
 80052a0:	f8a7 30ce 	strh.w	r3, [r7, #206]	@ 0xce
 80052a4:	687b      	ldr	r3, [r7, #4]
 80052a6:	8ddb      	ldrh	r3, [r3, #46]	@ 0x2e
 80052a8:	b29b      	uxth	r3, r3
 80052aa:	2b00      	cmp	r3, #0
 80052ac:	f000 808e 	beq.w	80053cc <HAL_UART_IRQHandler+0x54c>
 80052b0:	f8b7 30ce 	ldrh.w	r3, [r7, #206]	@ 0xce
 80052b4:	2b00      	cmp	r3, #0
 80052b6:	f000 8089 	beq.w	80053cc <HAL_UART_IRQHandler+0x54c>
 80052ba:	687b      	ldr	r3, [r7, #4]
 80052bc:	681b      	ldr	r3, [r3, #0]
 80052be:	330c      	adds	r3, #12
 80052c0:	63bb      	str	r3, [r7, #56]	@ 0x38
 80052c2:	6bbb      	ldr	r3, [r7, #56]	@ 0x38
 80052c4:	e853 3f00 	ldrex	r3, [r3]
 80052c8:	637b      	str	r3, [r7, #52]	@ 0x34
 80052ca:	6b7b      	ldr	r3, [r7, #52]	@ 0x34
 80052cc:	f423 7390 	bic.w	r3, r3, #288	@ 0x120
 80052d0:	f8c7 30c8 	str.w	r3, [r7, #200]	@ 0xc8
 80052d4:	687b      	ldr	r3, [r7, #4]
 80052d6:	681b      	ldr	r3, [r3, #0]
 80052d8:	330c      	adds	r3, #12
 80052da:	f8d7 20c8 	ldr.w	r2, [r7, #200]	@ 0xc8
 80052de:	647a      	str	r2, [r7, #68]	@ 0x44
 80052e0:	643b      	str	r3, [r7, #64]	@ 0x40
 80052e2:	6c39      	ldr	r1, [r7, #64]	@ 0x40
 80052e4:	6c7a      	ldr	r2, [r7, #68]	@ 0x44
 80052e6:	e841 2300 	strex	r3, r2, [r1]
 80052ea:	63fb      	str	r3, [r7, #60]	@ 0x3c
 80052ec:	6bfb      	ldr	r3, [r7, #60]	@ 0x3c
 80052ee:	2b00      	cmp	r3, #0
 80052f0:	d1e3      	bne.n	80052ba <HAL_UART_IRQHandler+0x43a>
 80052f2:	687b      	ldr	r3, [r7, #4]
 80052f4:	681b      	ldr	r3, [r3, #0]
 80052f6:	3314      	adds	r3, #20
 80052f8:	627b      	str	r3, [r7, #36]	@ 0x24
 80052fa:	6a7b      	ldr	r3, [r7, #36]	@ 0x24
 80052fc:	e853 3f00 	ldrex	r3, [r3]
 8005300:	623b      	str	r3, [r7, #32]
 8005302:	6a3b      	ldr	r3, [r7, #32]
 8005304:	f023 0301 	bic.w	r3, r3, #1
 8005308:	f8c7 30c4 	str.w	r3, [r7, #196]	@ 0xc4
 800530c:	687b      	ldr	r3, [r7, #4]
 800530e:	681b      	ldr	r3, [r3, #0]
 8005310:	3314      	adds	r3, #20
 8005312:	f8d7 20c4 	ldr.w	r2, [r7, #196]	@ 0xc4
 8005316:	633a      	str	r2, [r7, #48]	@ 0x30
 8005318:	62fb      	str	r3, [r7, #44]	@ 0x2c
 800531a:	6af9      	ldr	r1, [r7, #44]	@ 0x2c
 800531c:	6b3a      	ldr	r2, [r7, #48]	@ 0x30
 800531e:	e841 2300 	strex	r3, r2, [r1]
 8005322:	62bb      	str	r3, [r7, #40]	@ 0x28
 8005324:	6abb      	ldr	r3, [r7, #40]	@ 0x28
 8005326:	2b00      	cmp	r3, #0
 8005328:	d1e3      	bne.n	80052f2 <HAL_UART_IRQHandler+0x472>
 800532a:	687b      	ldr	r3, [r7, #4]
 800532c:	2220      	movs	r2, #32
 800532e:	f883 2042 	strb.w	r2, [r3, #66]	@ 0x42
 8005332:	687b      	ldr	r3, [r7, #4]
 8005334:	2200      	movs	r2, #0
 8005336:	631a      	str	r2, [r3, #48]	@ 0x30
 8005338:	687b      	ldr	r3, [r7, #4]
 800533a:	681b      	ldr	r3, [r3, #0]
 800533c:	330c      	adds	r3, #12
 800533e:	613b      	str	r3, [r7, #16]
 8005340:	693b      	ldr	r3, [r7, #16]
 8005342:	e853 3f00 	ldrex	r3, [r3]
 8005346:	60fb      	str	r3, [r7, #12]
 8005348:	68fb      	ldr	r3, [r7, #12]
 800534a:	f023 0310 	bic.w	r3, r3, #16
 800534e:	f8c7 30c0 	str.w	r3, [r7, #192]	@ 0xc0
 8005352:	687b      	ldr	r3, [r7, #4]
 8005354:	681b      	ldr	r3, [r3, #0]
 8005356:	330c      	adds	r3, #12
 8005358:	f8d7 20c0 	ldr.w	r2, [r7, #192]	@ 0xc0
 800535c:	61fa      	str	r2, [r7, #28]
 800535e:	61bb      	str	r3, [r7, #24]
 8005360:	69b9      	ldr	r1, [r7, #24]
 8005362:	69fa      	ldr	r2, [r7, #28]
 8005364:	e841 2300 	strex	r3, r2, [r1]
 8005368:	617b      	str	r3, [r7, #20]
 800536a:	697b      	ldr	r3, [r7, #20]
 800536c:	2b00      	cmp	r3, #0
 800536e:	d1e3      	bne.n	8005338 <HAL_UART_IRQHandler+0x4b8>
 8005370:	687b      	ldr	r3, [r7, #4]
 8005372:	2202      	movs	r2, #2
 8005374:	635a      	str	r2, [r3, #52]	@ 0x34
 8005376:	f8b7 30ce 	ldrh.w	r3, [r7, #206]	@ 0xce
 800537a:	4619      	mov	r1, r3
 800537c:	6878      	ldr	r0, [r7, #4]
 800537e:	f000 f83d 	bl	80053fc <HAL_UARTEx_RxEventCallback>
 8005382:	e023      	b.n	80053cc <HAL_UART_IRQHandler+0x54c>
 8005384:	f8d7 30e4 	ldr.w	r3, [r7, #228]	@ 0xe4
 8005388:	f003 0380 	and.w	r3, r3, #128	@ 0x80
 800538c:	2b00      	cmp	r3, #0
 800538e:	d009      	beq.n	80053a4 <HAL_UART_IRQHandler+0x524>
 8005390:	f8d7 30e0 	ldr.w	r3, [r7, #224]	@ 0xe0
 8005394:	f003 0380 	and.w	r3, r3, #128	@ 0x80
 8005398:	2b00      	cmp	r3, #0
 800539a:	d003      	beq.n	80053a4 <HAL_UART_IRQHandler+0x524>
 800539c:	6878      	ldr	r0, [r7, #4]
 800539e:	f000 f940 	bl	8005622 <UART_Transmit_IT>
 80053a2:	e014      	b.n	80053ce <HAL_UART_IRQHandler+0x54e>
 80053a4:	f8d7 30e4 	ldr.w	r3, [r7, #228]	@ 0xe4
 80053a8:	f003 0340 	and.w	r3, r3, #64	@ 0x40
 80053ac:	2b00      	cmp	r3, #0
 80053ae:	d00e      	beq.n	80053ce <HAL_UART_IRQHandler+0x54e>
 80053b0:	f8d7 30e0 	ldr.w	r3, [r7, #224]	@ 0xe0
 80053b4:	f003 0340 	and.w	r3, r3, #64	@ 0x40
 80053b8:	2b00      	cmp	r3, #0
 80053ba:	d008      	beq.n	80053ce <HAL_UART_IRQHandler+0x54e>
 80053bc:	6878      	ldr	r0, [r7, #4]
 80053be:	f000 f980 	bl	80056c2 <UART_EndTransmit_IT>
 80053c2:	e004      	b.n	80053ce <HAL_UART_IRQHandler+0x54e>
 80053c4:	bf00      	nop
 80053c6:	e002      	b.n	80053ce <HAL_UART_IRQHandler+0x54e>
 80053c8:	bf00      	nop
 80053ca:	e000      	b.n	80053ce <HAL_UART_IRQHandler+0x54e>
 80053cc:	bf00      	nop
 80053ce:	37e8      	adds	r7, #232	@ 0xe8
 80053d0:	46bd      	mov	sp, r7
 80053d2:	bd80      	pop	{r7, pc}

080053d4 <HAL_UART_TxCpltCallback>:
 80053d4:	b480      	push	{r7}
 80053d6:	b083      	sub	sp, #12
 80053d8:	af00      	add	r7, sp, #0
 80053da:	6078      	str	r0, [r7, #4]
 80053dc:	bf00      	nop
 80053de:	370c      	adds	r7, #12
 80053e0:	46bd      	mov	sp, r7
 80053e2:	f85d 7b04 	ldr.w	r7, [sp], #4
 80053e6:	4770      	bx	lr

080053e8 <HAL_UART_ErrorCallback>:
 80053e8:	b480      	push	{r7}
 80053ea:	b083      	sub	sp, #12
 80053ec:	af00      	add	r7, sp, #0
 80053ee:	6078      	str	r0, [r7, #4]
 80053f0:	bf00      	nop
 80053f2:	370c      	adds	r7, #12
 80053f4:	46bd      	mov	sp, r7
 80053f6:	f85d 7b04 	ldr.w	r7, [sp], #4
 80053fa:	4770      	bx	lr

080053fc <HAL_UARTEx_RxEventCallback>:
 80053fc:	b480      	push	{r7}
 80053fe:	b083      	sub	sp, #12
 8005400:	af00      	add	r7, sp, #0
 8005402:	6078      	str	r0, [r7, #4]
 8005404:	460b      	mov	r3, r1
 8005406:	807b      	strh	r3, [r7, #2]
 8005408:	bf00      	nop
 800540a:	370c      	adds	r7, #12
 800540c:	46bd      	mov	sp, r7
 800540e:	f85d 7b04 	ldr.w	r7, [sp], #4
 8005412:	4770      	bx	lr

08005414 <UART_WaitOnFlagUntilTimeout>:
 8005414:	b580      	push	{r7, lr}
 8005416:	b086      	sub	sp, #24
 8005418:	af00      	add	r7, sp, #0
 800541a:	60f8      	str	r0, [r7, #12]
 800541c:	60b9      	str	r1, [r7, #8]
 800541e:	603b      	str	r3, [r7, #0]
 8005420:	4613      	mov	r3, r2
 8005422:	71fb      	strb	r3, [r7, #7]
 8005424:	e03b      	b.n	800549e <UART_WaitOnFlagUntilTimeout+0x8a>
 8005426:	6a3b      	ldr	r3, [r7, #32]
 8005428:	f1b3 3fff 	cmp.w	r3, #4294967295	@ 0xffffffff
 800542c:	d037      	beq.n	800549e <UART_WaitOnFlagUntilTimeout+0x8a>
 800542e:	f7fd fbfd 	bl	8002c2c <HAL_GetTick>
 8005432:	4602      	mov	r2, r0
 8005434:	683b      	ldr	r3, [r7, #0]
 8005436:	1ad3      	subs	r3, r2, r3
 8005438:	6a3a      	ldr	r2, [r7, #32]
 800543a:	429a      	cmp	r2, r3
 800543c:	d302      	bcc.n	8005444 <UART_WaitOnFlagUntilTimeout+0x30>
 800543e:	6a3b      	ldr	r3, [r7, #32]
 8005440:	2b00      	cmp	r3, #0
 8005442:	d101      	bne.n	8005448 <UART_WaitOnFlagUntilTimeout+0x34>
 8005444:	2303      	movs	r3, #3
 8005446:	e03a      	b.n	80054be <UART_WaitOnFlagUntilTimeout+0xaa>
 8005448:	68fb      	ldr	r3, [r7, #12]
 800544a:	681b      	ldr	r3, [r3, #0]
 800544c:	68db      	ldr	r3, [r3, #12]
 800544e:	f003 0304 	and.w	r3, r3, #4
 8005452:	2b00      	cmp	r3, #0
 8005454:	d023      	beq.n	800549e <UART_WaitOnFlagUntilTimeout+0x8a>
 8005456:	68bb      	ldr	r3, [r7, #8]
 8005458:	2b80      	cmp	r3, #128	@ 0x80
 800545a:	d020      	beq.n	800549e <UART_WaitOnFlagUntilTimeout+0x8a>
 800545c:	68bb      	ldr	r3, [r7, #8]
 800545e:	2b40      	cmp	r3, #64	@ 0x40
 8005460:	d01d      	beq.n	800549e <UART_WaitOnFlagUntilTimeout+0x8a>
 8005462:	68fb      	ldr	r3, [r7, #12]
 8005464:	681b      	ldr	r3, [r3, #0]
 8005466:	681b      	ldr	r3, [r3, #0]
 8005468:	f003 0308 	and.w	r3, r3, #8
 800546c:	2b08      	cmp	r3, #8
 800546e:	d116      	bne.n	800549e <UART_WaitOnFlagUntilTimeout+0x8a>
 8005470:	2300      	movs	r3, #0
 8005472:	617b      	str	r3, [r7, #20]
 8005474:	68fb      	ldr	r3, [r7, #12]
 8005476:	681b      	ldr	r3, [r3, #0]
 8005478:	681b      	ldr	r3, [r3, #0]
 800547a:	617b      	str	r3, [r7, #20]
 800547c:	68fb      	ldr	r3, [r7, #12]
 800547e:	681b      	ldr	r3, [r3, #0]
 8005480:	685b      	ldr	r3, [r3, #4]
 8005482:	617b      	str	r3, [r7, #20]
 8005484:	697b      	ldr	r3, [r7, #20]
 8005486:	68f8      	ldr	r0, [r7, #12]
 8005488:	f000 f857 	bl	800553a <UART_EndRxTransfer>
 800548c:	68fb      	ldr	r3, [r7, #12]
 800548e:	2208      	movs	r2, #8
 8005490:	645a      	str	r2, [r3, #68]	@ 0x44
 8005492:	68fb      	ldr	r3, [r7, #12]
 8005494:	2200      	movs	r2, #0
 8005496:	f883 2040 	strb.w	r2, [r3, #64]	@ 0x40
 800549a:	2301      	movs	r3, #1
 800549c:	e00f      	b.n	80054be <UART_WaitOnFlagUntilTimeout+0xaa>
 800549e:	68fb      	ldr	r3, [r7, #12]
 80054a0:	681b      	ldr	r3, [r3, #0]
 80054a2:	681a      	ldr	r2, [r3, #0]
 80054a4:	68bb      	ldr	r3, [r7, #8]
 80054a6:	4013      	ands	r3, r2
 80054a8:	68ba      	ldr	r2, [r7, #8]
 80054aa:	429a      	cmp	r2, r3
 80054ac:	bf0c      	ite	eq
 80054ae:	2301      	moveq	r3, #1
 80054b0:	2300      	movne	r3, #0
 80054b2:	b2db      	uxtb	r3, r3
 80054b4:	461a      	mov	r2, r3
 80054b6:	79fb      	ldrb	r3, [r7, #7]
 80054b8:	429a      	cmp	r2, r3
 80054ba:	d0b4      	beq.n	8005426 <UART_WaitOnFlagUntilTimeout+0x12>
 80054bc:	2300      	movs	r3, #0
 80054be:	4618      	mov	r0, r3
 80054c0:	3718      	adds	r7, #24
 80054c2:	46bd      	mov	sp, r7
 80054c4:	bd80      	pop	{r7, pc}

080054c6 <UART_Start_Receive_IT>:
 80054c6:	b480      	push	{r7}
 80054c8:	b085      	sub	sp, #20
 80054ca:	af00      	add	r7, sp, #0
 80054cc:	60f8      	str	r0, [r7, #12]
 80054ce:	60b9      	str	r1, [r7, #8]
 80054d0:	4613      	mov	r3, r2
 80054d2:	80fb      	strh	r3, [r7, #6]
 80054d4:	68fb      	ldr	r3, [r7, #12]
 80054d6:	68ba      	ldr	r2, [r7, #8]
 80054d8:	629a      	str	r2, [r3, #40]	@ 0x28
 80054da:	68fb      	ldr	r3, [r7, #12]
 80054dc:	88fa      	ldrh	r2, [r7, #6]
 80054de:	859a      	strh	r2, [r3, #44]	@ 0x2c
 80054e0:	68fb      	ldr	r3, [r7, #12]
 80054e2:	88fa      	ldrh	r2, [r7, #6]
 80054e4:	85da      	strh	r2, [r3, #46]	@ 0x2e
 80054e6:	68fb      	ldr	r3, [r7, #12]
 80054e8:	2200      	movs	r2, #0
 80054ea:	645a      	str	r2, [r3, #68]	@ 0x44
 80054ec:	68fb      	ldr	r3, [r7, #12]
 80054ee:	2222      	movs	r2, #34	@ 0x22
 80054f0:	f883 2042 	strb.w	r2, [r3, #66]	@ 0x42
 80054f4:	68fb      	ldr	r3, [r7, #12]
 80054f6:	691b      	ldr	r3, [r3, #16]
 80054f8:	2b00      	cmp	r3, #0
 80054fa:	d007      	beq.n	800550c <UART_Start_Receive_IT+0x46>
 80054fc:	68fb      	ldr	r3, [r7, #12]
 80054fe:	681b      	ldr	r3, [r3, #0]
 8005500:	68da      	ldr	r2, [r3, #12]
 8005502:	68fb      	ldr	r3, [r7, #12]
 8005504:	681b      	ldr	r3, [r3, #0]
 8005506:	f442 7280 	orr.w	r2, r2, #256	@ 0x100
 800550a:	60da      	str	r2, [r3, #12]
 800550c:	68fb      	ldr	r3, [r7, #12]
 800550e:	681b      	ldr	r3, [r3, #0]
 8005510:	695a      	ldr	r2, [r3, #20]
 8005512:	68fb      	ldr	r3, [r7, #12]
 8005514:	681b      	ldr	r3, [r3, #0]
 8005516:	f042 0201 	orr.w	r2, r2, #1
 800551a:	615a      	str	r2, [r3, #20]
 800551c:	68fb      	ldr	r3, [r7, #12]
 800551e:	681b      	ldr	r3, [r3, #0]
 8005520:	68da      	ldr	r2, [r3, #12]
 8005522:	68fb      	ldr	r3, [r7, #12]
 8005524:	681b      	ldr	r3, [r3, #0]
 8005526:	f042 0220 	orr.w	r2, r2, #32
 800552a:	60da      	str	r2, [r3, #12]
 800552c:	2300      	movs	r3, #0
 800552e:	4618      	mov	r0, r3
 8005530:	3714      	adds	r7, #20
 8005532:	46bd      	mov	sp, r7
 8005534:	f85d 7b04 	ldr.w	r7, [sp], #4
 8005538:	4770      	bx	lr

0800553a <UART_EndRxTransfer>:
 800553a:	b480      	push	{r7}
 800553c:	b095      	sub	sp, #84	@ 0x54
 800553e:	af00      	add	r7, sp, #0
 8005540:	6078      	str	r0, [r7, #4]
 8005542:	687b      	ldr	r3, [r7, #4]
 8005544:	681b      	ldr	r3, [r3, #0]
 8005546:	330c      	adds	r3, #12
 8005548:	637b      	str	r3, [r7, #52]	@ 0x34
 800554a:	6b7b      	ldr	r3, [r7, #52]	@ 0x34
 800554c:	e853 3f00 	ldrex	r3, [r3]
 8005550:	633b      	str	r3, [r7, #48]	@ 0x30
 8005552:	6b3b      	ldr	r3, [r7, #48]	@ 0x30
 8005554:	f423 7390 	bic.w	r3, r3, #288	@ 0x120
 8005558:	64fb      	str	r3, [r7, #76]	@ 0x4c
 800555a:	687b      	ldr	r3, [r7, #4]
 800555c:	681b      	ldr	r3, [r3, #0]
 800555e:	330c      	adds	r3, #12
 8005560:	6cfa      	ldr	r2, [r7, #76]	@ 0x4c
 8005562:	643a      	str	r2, [r7, #64]	@ 0x40
 8005564:	63fb      	str	r3, [r7, #60]	@ 0x3c
 8005566:	6bf9      	ldr	r1, [r7, #60]	@ 0x3c
 8005568:	6c3a      	ldr	r2, [r7, #64]	@ 0x40
 800556a:	e841 2300 	strex	r3, r2, [r1]
 800556e:	63bb      	str	r3, [r7, #56]	@ 0x38
 8005570:	6bbb      	ldr	r3, [r7, #56]	@ 0x38
 8005572:	2b00      	cmp	r3, #0
 8005574:	d1e5      	bne.n	8005542 <UART_EndRxTransfer+0x8>
 8005576:	687b      	ldr	r3, [r7, #4]
 8005578:	681b      	ldr	r3, [r3, #0]
 800557a:	3314      	adds	r3, #20
 800557c:	623b      	str	r3, [r7, #32]
 800557e:	6a3b      	ldr	r3, [r7, #32]
 8005580:	e853 3f00 	ldrex	r3, [r3]
 8005584:	61fb      	str	r3, [r7, #28]
 8005586:	69fb      	ldr	r3, [r7, #28]
 8005588:	f023 0301 	bic.w	r3, r3, #1
 800558c:	64bb      	str	r3, [r7, #72]	@ 0x48
 800558e:	687b      	ldr	r3, [r7, #4]
 8005590:	681b      	ldr	r3, [r3, #0]
 8005592:	3314      	adds	r3, #20
 8005594:	6cba      	ldr	r2, [r7, #72]	@ 0x48
 8005596:	62fa      	str	r2, [r7, #44]	@ 0x2c
 8005598:	62bb      	str	r3, [r7, #40]	@ 0x28
 800559a:	6ab9      	ldr	r1, [r7, #40]	@ 0x28
 800559c:	6afa      	ldr	r2, [r7, #44]	@ 0x2c
 800559e:	e841 2300 	strex	r3, r2, [r1]
 80055a2:	627b      	str	r3, [r7, #36]	@ 0x24
 80055a4:	6a7b      	ldr	r3, [r7, #36]	@ 0x24
 80055a6:	2b00      	cmp	r3, #0
 80055a8:	d1e5      	bne.n	8005576 <UART_EndRxTransfer+0x3c>
 80055aa:	687b      	ldr	r3, [r7, #4]
 80055ac:	6b1b      	ldr	r3, [r3, #48]	@ 0x30
 80055ae:	2b01      	cmp	r3, #1
 80055b0:	d119      	bne.n	80055e6 <UART_EndRxTransfer+0xac>
 80055b2:	687b      	ldr	r3, [r7, #4]
 80055b4:	681b      	ldr	r3, [r3, #0]
 80055b6:	330c      	adds	r3, #12
 80055b8:	60fb      	str	r3, [r7, #12]
 80055ba:	68fb      	ldr	r3, [r7, #12]
 80055bc:	e853 3f00 	ldrex	r3, [r3]
 80055c0:	60bb      	str	r3, [r7, #8]
 80055c2:	68bb      	ldr	r3, [r7, #8]
 80055c4:	f023 0310 	bic.w	r3, r3, #16
 80055c8:	647b      	str	r3, [r7, #68]	@ 0x44
 80055ca:	687b      	ldr	r3, [r7, #4]
 80055cc:	681b      	ldr	r3, [r3, #0]
 80055ce:	330c      	adds	r3, #12
 80055d0:	6c7a      	ldr	r2, [r7, #68]	@ 0x44
 80055d2:	61ba      	str	r2, [r7, #24]
 80055d4:	617b      	str	r3, [r7, #20]
 80055d6:	6979      	ldr	r1, [r7, #20]
 80055d8:	69ba      	ldr	r2, [r7, #24]
 80055da:	e841 2300 	strex	r3, r2, [r1]
 80055de:	613b      	str	r3, [r7, #16]
 80055e0:	693b      	ldr	r3, [r7, #16]
 80055e2:	2b00      	cmp	r3, #0
 80055e4:	d1e5      	bne.n	80055b2 <UART_EndRxTransfer+0x78>
 80055e6:	687b      	ldr	r3, [r7, #4]
 80055e8:	2220      	movs	r2, #32
 80055ea:	f883 2042 	strb.w	r2, [r3, #66]	@ 0x42
 80055ee:	687b      	ldr	r3, [r7, #4]
 80055f0:	2200      	movs	r2, #0
 80055f2:	631a      	str	r2, [r3, #48]	@ 0x30
 80055f4:	bf00      	nop
 80055f6:	3754      	adds	r7, #84	@ 0x54
 80055f8:	46bd      	mov	sp, r7
 80055fa:	f85d 7b04 	ldr.w	r7, [sp], #4
 80055fe:	4770      	bx	lr

08005600 <UART_DMAAbortOnError>:
 8005600:	b580      	push	{r7, lr}
 8005602:	b084      	sub	sp, #16
 8005604:	af00      	add	r7, sp, #0
 8005606:	6078      	str	r0, [r7, #4]
 8005608:	687b      	ldr	r3, [r7, #4]
 800560a:	6b9b      	ldr	r3, [r3, #56]	@ 0x38
 800560c:	60fb      	str	r3, [r7, #12]
 800560e:	68fb      	ldr	r3, [r7, #12]
 8005610:	2200      	movs	r2, #0
 8005612:	85da      	strh	r2, [r3, #46]	@ 0x2e
 8005614:	68f8      	ldr	r0, [r7, #12]
 8005616:	f7ff fee7 	bl	80053e8 <HAL_UART_ErrorCallback>
 800561a:	bf00      	nop
 800561c:	3710      	adds	r7, #16
 800561e:	46bd      	mov	sp, r7
 8005620:	bd80      	pop	{r7, pc}

08005622 <UART_Transmit_IT>:
 8005622:	b480      	push	{r7}
 8005624:	b085      	sub	sp, #20
 8005626:	af00      	add	r7, sp, #0
 8005628:	6078      	str	r0, [r7, #4]
 800562a:	687b      	ldr	r3, [r7, #4]
 800562c:	f893 3041 	ldrb.w	r3, [r3, #65]	@ 0x41
 8005630:	b2db      	uxtb	r3, r3
 8005632:	2b21      	cmp	r3, #33	@ 0x21
 8005634:	d13e      	bne.n	80056b4 <UART_Transmit_IT+0x92>
 8005636:	687b      	ldr	r3, [r7, #4]
 8005638:	689b      	ldr	r3, [r3, #8]
 800563a:	f5b3 5f80 	cmp.w	r3, #4096	@ 0x1000
 800563e:	d114      	bne.n	800566a <UART_Transmit_IT+0x48>
 8005640:	687b      	ldr	r3, [r7, #4]
 8005642:	691b      	ldr	r3, [r3, #16]
 8005644:	2b00      	cmp	r3, #0
 8005646:	d110      	bne.n	800566a <UART_Transmit_IT+0x48>
 8005648:	687b      	ldr	r3, [r7, #4]
 800564a:	6a1b      	ldr	r3, [r3, #32]
 800564c:	60fb      	str	r3, [r7, #12]
 800564e:	68fb      	ldr	r3, [r7, #12]
 8005650:	881b      	ldrh	r3, [r3, #0]
 8005652:	461a      	mov	r2, r3
 8005654:	687b      	ldr	r3, [r7, #4]
 8005656:	681b      	ldr	r3, [r3, #0]
 8005658:	f3c2 0208 	ubfx	r2, r2, #0, #9
 800565c:	605a      	str	r2, [r3, #4]
 800565e:	687b      	ldr	r3, [r7, #4]
 8005660:	6a1b      	ldr	r3, [r3, #32]
 8005662:	1c9a      	adds	r2, r3, #2
 8005664:	687b      	ldr	r3, [r7, #4]
 8005666:	621a      	str	r2, [r3, #32]
 8005668:	e008      	b.n	800567c <UART_Transmit_IT+0x5a>
 800566a:	687b      	ldr	r3, [r7, #4]
 800566c:	6a1b      	ldr	r3, [r3, #32]
 800566e:	1c59      	adds	r1, r3, #1
 8005670:	687a      	ldr	r2, [r7, #4]
 8005672:	6211      	str	r1, [r2, #32]
 8005674:	781a      	ldrb	r2, [r3, #0]
 8005676:	687b      	ldr	r3, [r7, #4]
 8005678:	681b      	ldr	r3, [r3, #0]
 800567a:	605a      	str	r2, [r3, #4]
 800567c:	687b      	ldr	r3, [r7, #4]
 800567e:	8cdb      	ldrh	r3, [r3, #38]	@ 0x26
 8005680:	b29b      	uxth	r3, r3
 8005682:	3b01      	subs	r3, #1
 8005684:	b29b      	uxth	r3, r3
 8005686:	687a      	ldr	r2, [r7, #4]
 8005688:	4619      	mov	r1, r3
 800568a:	84d1      	strh	r1, [r2, #38]	@ 0x26
 800568c:	2b00      	cmp	r3, #0
 800568e:	d10f      	bne.n	80056b0 <UART_Transmit_IT+0x8e>
 8005690:	687b      	ldr	r3, [r7, #4]
 8005692:	681b      	ldr	r3, [r3, #0]
 8005694:	68da      	ldr	r2, [r3, #12]
 8005696:	687b      	ldr	r3, [r7, #4]
 8005698:	681b      	ldr	r3, [r3, #0]
 800569a:	f022 0280 	bic.w	r2, r2, #128	@ 0x80
 800569e:	60da      	str	r2, [r3, #12]
 80056a0:	687b      	ldr	r3, [r7, #4]
 80056a2:	681b      	ldr	r3, [r3, #0]
 80056a4:	68da      	ldr	r2, [r3, #12]
 80056a6:	687b      	ldr	r3, [r7, #4]
 80056a8:	681b      	ldr	r3, [r3, #0]
 80056aa:	f042 0240 	orr.w	r2, r2, #64	@ 0x40
 80056ae:	60da      	str	r2, [r3, #12]
 80056b0:	2300      	movs	r3, #0
 80056b2:	e000      	b.n	80056b6 <UART_Transmit_IT+0x94>
 80056b4:	2302      	movs	r3, #2
 80056b6:	4618      	mov	r0, r3
 80056b8:	3714      	adds	r7, #20
 80056ba:	46bd      	mov	sp, r7
 80056bc:	f85d 7b04 	ldr.w	r7, [sp], #4
 80056c0:	4770      	bx	lr

080056c2 <UART_EndTransmit_IT>:
 80056c2:	b580      	push	{r7, lr}
 80056c4:	b082      	sub	sp, #8
 80056c6:	af00      	add	r7, sp, #0
 80056c8:	6078      	str	r0, [r7, #4]
 80056ca:	687b      	ldr	r3, [r7, #4]
 80056cc:	681b      	ldr	r3, [r3, #0]
 80056ce:	68da      	ldr	r2, [r3, #12]
 80056d0:	687b      	ldr	r3, [r7, #4]
 80056d2:	681b      	ldr	r3, [r3, #0]
 80056d4:	f022 0240 	bic.w	r2, r2, #64	@ 0x40
 80056d8:	60da      	str	r2, [r3, #12]
 80056da:	687b      	ldr	r3, [r7, #4]
 80056dc:	2220      	movs	r2, #32
 80056de:	f883 2041 	strb.w	r2, [r3, #65]	@ 0x41
 80056e2:	6878      	ldr	r0, [r7, #4]
 80056e4:	f7ff fe76 	bl	80053d4 <HAL_UART_TxCpltCallback>
 80056e8:	2300      	movs	r3, #0
 80056ea:	4618      	mov	r0, r3
 80056ec:	3708      	adds	r7, #8
 80056ee:	46bd      	mov	sp, r7
 80056f0:	bd80      	pop	{r7, pc}

080056f2 <UART_Receive_IT>:
 80056f2:	b580      	push	{r7, lr}
 80056f4:	b08c      	sub	sp, #48	@ 0x30
 80056f6:	af00      	add	r7, sp, #0
 80056f8:	6078      	str	r0, [r7, #4]
 80056fa:	2300      	movs	r3, #0
 80056fc:	62fb      	str	r3, [r7, #44]	@ 0x2c
 80056fe:	2300      	movs	r3, #0
 8005700:	62bb      	str	r3, [r7, #40]	@ 0x28
 8005702:	687b      	ldr	r3, [r7, #4]
 8005704:	f893 3042 	ldrb.w	r3, [r3, #66]	@ 0x42
 8005708:	b2db      	uxtb	r3, r3
 800570a:	2b22      	cmp	r3, #34	@ 0x22
 800570c:	f040 80aa 	bne.w	8005864 <UART_Receive_IT+0x172>
 8005710:	687b      	ldr	r3, [r7, #4]
 8005712:	689b      	ldr	r3, [r3, #8]
 8005714:	f5b3 5f80 	cmp.w	r3, #4096	@ 0x1000
 8005718:	d115      	bne.n	8005746 <UART_Receive_IT+0x54>
 800571a:	687b      	ldr	r3, [r7, #4]
 800571c:	691b      	ldr	r3, [r3, #16]
 800571e:	2b00      	cmp	r3, #0
 8005720:	d111      	bne.n	8005746 <UART_Receive_IT+0x54>
 8005722:	687b      	ldr	r3, [r7, #4]
 8005724:	6a9b      	ldr	r3, [r3, #40]	@ 0x28
 8005726:	62bb      	str	r3, [r7, #40]	@ 0x28
 8005728:	687b      	ldr	r3, [r7, #4]
 800572a:	681b      	ldr	r3, [r3, #0]
 800572c:	685b      	ldr	r3, [r3, #4]
 800572e:	b29b      	uxth	r3, r3
 8005730:	f3c3 0308 	ubfx	r3, r3, #0, #9
 8005734:	b29a      	uxth	r2, r3
 8005736:	6abb      	ldr	r3, [r7, #40]	@ 0x28
 8005738:	801a      	strh	r2, [r3, #0]
 800573a:	687b      	ldr	r3, [r7, #4]
 800573c:	6a9b      	ldr	r3, [r3, #40]	@ 0x28
 800573e:	1c9a      	adds	r2, r3, #2
 8005740:	687b      	ldr	r3, [r7, #4]
 8005742:	629a      	str	r2, [r3, #40]	@ 0x28
 8005744:	e024      	b.n	8005790 <UART_Receive_IT+0x9e>
 8005746:	687b      	ldr	r3, [r7, #4]
 8005748:	6a9b      	ldr	r3, [r3, #40]	@ 0x28
 800574a:	62fb      	str	r3, [r7, #44]	@ 0x2c
 800574c:	687b      	ldr	r3, [r7, #4]
 800574e:	689b      	ldr	r3, [r3, #8]
 8005750:	f5b3 5f80 	cmp.w	r3, #4096	@ 0x1000
 8005754:	d007      	beq.n	8005766 <UART_Receive_IT+0x74>
 8005756:	687b      	ldr	r3, [r7, #4]
 8005758:	689b      	ldr	r3, [r3, #8]
 800575a:	2b00      	cmp	r3, #0
 800575c:	d10a      	bne.n	8005774 <UART_Receive_IT+0x82>
 800575e:	687b      	ldr	r3, [r7, #4]
 8005760:	691b      	ldr	r3, [r3, #16]
 8005762:	2b00      	cmp	r3, #0
 8005764:	d106      	bne.n	8005774 <UART_Receive_IT+0x82>
 8005766:	687b      	ldr	r3, [r7, #4]
 8005768:	681b      	ldr	r3, [r3, #0]
 800576a:	685b      	ldr	r3, [r3, #4]
 800576c:	b2da      	uxtb	r2, r3
 800576e:	6afb      	ldr	r3, [r7, #44]	@ 0x2c
 8005770:	701a      	strb	r2, [r3, #0]
 8005772:	e008      	b.n	8005786 <UART_Receive_IT+0x94>
 8005774:	687b      	ldr	r3, [r7, #4]
 8005776:	681b      	ldr	r3, [r3, #0]
 8005778:	685b      	ldr	r3, [r3, #4]
 800577a:	b2db      	uxtb	r3, r3
 800577c:	f003 037f 	and.w	r3, r3, #127	@ 0x7f
 8005780:	b2da      	uxtb	r2, r3
 8005782:	6afb      	ldr	r3, [r7, #44]	@ 0x2c
 8005784:	701a      	strb	r2, [r3, #0]
 8005786:	687b      	ldr	r3, [r7, #4]
 8005788:	6a9b      	ldr	r3, [r3, #40]	@ 0x28
 800578a:	1c5a      	adds	r2, r3, #1
 800578c:	687b      	ldr	r3, [r7, #4]
 800578e:	629a      	str	r2, [r3, #40]	@ 0x28
 8005790:	687b      	ldr	r3, [r7, #4]
 8005792:	8ddb      	ldrh	r3, [r3, #46]	@ 0x2e
 8005794:	b29b      	uxth	r3, r3
 8005796:	3b01      	subs	r3, #1
 8005798:	b29b      	uxth	r3, r3
 800579a:	687a      	ldr	r2, [r7, #4]
 800579c:	4619      	mov	r1, r3
 800579e:	85d1      	strh	r1, [r2, #46]	@ 0x2e
 80057a0:	2b00      	cmp	r3, #0
 80057a2:	d15d      	bne.n	8005860 <UART_Receive_IT+0x16e>
 80057a4:	687b      	ldr	r3, [r7, #4]
 80057a6:	681b      	ldr	r3, [r3, #0]
 80057a8:	68da      	ldr	r2, [r3, #12]
 80057aa:	687b      	ldr	r3, [r7, #4]
 80057ac:	681b      	ldr	r3, [r3, #0]
 80057ae:	f022 0220 	bic.w	r2, r2, #32
 80057b2:	60da      	str	r2, [r3, #12]
 80057b4:	687b      	ldr	r3, [r7, #4]
 80057b6:	681b      	ldr	r3, [r3, #0]
 80057b8:	68da      	ldr	r2, [r3, #12]
 80057ba:	687b      	ldr	r3, [r7, #4]
 80057bc:	681b      	ldr	r3, [r3, #0]
 80057be:	f422 7280 	bic.w	r2, r2, #256	@ 0x100
 80057c2:	60da      	str	r2, [r3, #12]
 80057c4:	687b      	ldr	r3, [r7, #4]
 80057c6:	681b      	ldr	r3, [r3, #0]
 80057c8:	695a      	ldr	r2, [r3, #20]
 80057ca:	687b      	ldr	r3, [r7, #4]
 80057cc:	681b      	ldr	r3, [r3, #0]
 80057ce:	f022 0201 	bic.w	r2, r2, #1
 80057d2:	615a      	str	r2, [r3, #20]
 80057d4:	687b      	ldr	r3, [r7, #4]
 80057d6:	2220      	movs	r2, #32
 80057d8:	f883 2042 	strb.w	r2, [r3, #66]	@ 0x42
 80057dc:	687b      	ldr	r3, [r7, #4]
 80057de:	2200      	movs	r2, #0
 80057e0:	635a      	str	r2, [r3, #52]	@ 0x34
 80057e2:	687b      	ldr	r3, [r7, #4]
 80057e4:	6b1b      	ldr	r3, [r3, #48]	@ 0x30
 80057e6:	2b01      	cmp	r3, #1
 80057e8:	d135      	bne.n	8005856 <UART_Receive_IT+0x164>
 80057ea:	687b      	ldr	r3, [r7, #4]
 80057ec:	2200      	movs	r2, #0
 80057ee:	631a      	str	r2, [r3, #48]	@ 0x30
 80057f0:	687b      	ldr	r3, [r7, #4]
 80057f2:	681b      	ldr	r3, [r3, #0]
 80057f4:	330c      	adds	r3, #12
 80057f6:	617b      	str	r3, [r7, #20]
 80057f8:	697b      	ldr	r3, [r7, #20]
 80057fa:	e853 3f00 	ldrex	r3, [r3]
 80057fe:	613b      	str	r3, [r7, #16]
 8005800:	693b      	ldr	r3, [r7, #16]
 8005802:	f023 0310 	bic.w	r3, r3, #16
 8005806:	627b      	str	r3, [r7, #36]	@ 0x24
 8005808:	687b      	ldr	r3, [r7, #4]
 800580a:	681b      	ldr	r3, [r3, #0]
 800580c:	330c      	adds	r3, #12
 800580e:	6a7a      	ldr	r2, [r7, #36]	@ 0x24
 8005810:	623a      	str	r2, [r7, #32]
 8005812:	61fb      	str	r3, [r7, #28]
 8005814:	69f9      	ldr	r1, [r7, #28]
 8005816:	6a3a      	ldr	r2, [r7, #32]
 8005818:	e841 2300 	strex	r3, r2, [r1]
 800581c:	61bb      	str	r3, [r7, #24]
 800581e:	69bb      	ldr	r3, [r7, #24]
 8005820:	2b00      	cmp	r3, #0
 8005822:	d1e5      	bne.n	80057f0 <UART_Receive_IT+0xfe>
 8005824:	687b      	ldr	r3, [r7, #4]
 8005826:	681b      	ldr	r3, [r3, #0]
 8005828:	681b      	ldr	r3, [r3, #0]
 800582a:	f003 0310 	and.w	r3, r3, #16
 800582e:	2b10      	cmp	r3, #16
 8005830:	d10a      	bne.n	8005848 <UART_Receive_IT+0x156>
 8005832:	2300      	movs	r3, #0
 8005834:	60fb      	str	r3, [r7, #12]
 8005836:	687b      	ldr	r3, [r7, #4]
 8005838:	681b      	ldr	r3, [r3, #0]
 800583a:	681b      	ldr	r3, [r3, #0]
 800583c:	60fb      	str	r3, [r7, #12]
 800583e:	687b      	ldr	r3, [r7, #4]
 8005840:	681b      	ldr	r3, [r3, #0]
 8005842:	685b      	ldr	r3, [r3, #4]
 8005844:	60fb      	str	r3, [r7, #12]
 8005846:	68fb      	ldr	r3, [r7, #12]
 8005848:	687b      	ldr	r3, [r7, #4]
 800584a:	8d9b      	ldrh	r3, [r3, #44]	@ 0x2c
 800584c:	4619      	mov	r1, r3
 800584e:	6878      	ldr	r0, [r7, #4]
 8005850:	f7ff fdd4 	bl	80053fc <HAL_UARTEx_RxEventCallback>
 8005854:	e002      	b.n	800585c <UART_Receive_IT+0x16a>
 8005856:	6878      	ldr	r0, [r7, #4]
 8005858:	f7fc fd2a 	bl	80022b0 <HAL_UART_RxCpltCallback>
 800585c:	2300      	movs	r3, #0
 800585e:	e002      	b.n	8005866 <UART_Receive_IT+0x174>
 8005860:	2300      	movs	r3, #0
 8005862:	e000      	b.n	8005866 <UART_Receive_IT+0x174>
 8005864:	2302      	movs	r3, #2
 8005866:	4618      	mov	r0, r3
 8005868:	3730      	adds	r7, #48	@ 0x30
 800586a:	46bd      	mov	sp, r7
 800586c:	bd80      	pop	{r7, pc}
	...

08005870 <UART_SetConfig>:
 8005870:	e92d 4fb0 	stmdb	sp!, {r4, r5, r7, r8, r9, sl, fp, lr}
 8005874:	b0c0      	sub	sp, #256	@ 0x100
 8005876:	af00      	add	r7, sp, #0
 8005878:	f8c7 00f4 	str.w	r0, [r7, #244]	@ 0xf4
 800587c:	f8d7 30f4 	ldr.w	r3, [r7, #244]	@ 0xf4
 8005880:	681b      	ldr	r3, [r3, #0]
 8005882:	691b      	ldr	r3, [r3, #16]
 8005884:	f423 5040 	bic.w	r0, r3, #12288	@ 0x3000
 8005888:	f8d7 30f4 	ldr.w	r3, [r7, #244]	@ 0xf4
 800588c:	68d9      	ldr	r1, [r3, #12]
 800588e:	f8d7 30f4 	ldr.w	r3, [r7, #244]	@ 0xf4
 8005892:	681a      	ldr	r2, [r3, #0]
 8005894:	ea40 0301 	orr.w	r3, r0, r1
 8005898:	6113      	str	r3, [r2, #16]
 800589a:	f8d7 30f4 	ldr.w	r3, [r7, #244]	@ 0xf4
 800589e:	689a      	ldr	r2, [r3, #8]
 80058a0:	f8d7 30f4 	ldr.w	r3, [r7, #244]	@ 0xf4
 80058a4:	691b      	ldr	r3, [r3, #16]
 80058a6:	431a      	orrs	r2, r3
 80058a8:	f8d7 30f4 	ldr.w	r3, [r7, #244]	@ 0xf4
 80058ac:	695b      	ldr	r3, [r3, #20]
 80058ae:	431a      	orrs	r2, r3
 80058b0:	f8d7 30f4 	ldr.w	r3, [r7, #244]	@ 0xf4
 80058b4:	69db      	ldr	r3, [r3, #28]
 80058b6:	4313      	orrs	r3, r2
 80058b8:	f8c7 30f8 	str.w	r3, [r7, #248]	@ 0xf8
 80058bc:	f8d7 30f4 	ldr.w	r3, [r7, #244]	@ 0xf4
 80058c0:	681b      	ldr	r3, [r3, #0]
 80058c2:	68db      	ldr	r3, [r3, #12]
 80058c4:	f423 4116 	bic.w	r1, r3, #38400	@ 0x9600
 80058c8:	f021 010c 	bic.w	r1, r1, #12
 80058cc:	f8d7 30f4 	ldr.w	r3, [r7, #244]	@ 0xf4
 80058d0:	681a      	ldr	r2, [r3, #0]
 80058d2:	f8d7 30f8 	ldr.w	r3, [r7, #248]	@ 0xf8
 80058d6:	430b      	orrs	r3, r1
 80058d8:	60d3      	str	r3, [r2, #12]
 80058da:	f8d7 30f4 	ldr.w	r3, [r7, #244]	@ 0xf4
 80058de:	681b      	ldr	r3, [r3, #0]
 80058e0:	695b      	ldr	r3, [r3, #20]
 80058e2:	f423 7040 	bic.w	r0, r3, #768	@ 0x300
 80058e6:	f8d7 30f4 	ldr.w	r3, [r7, #244]	@ 0xf4
 80058ea:	6999      	ldr	r1, [r3, #24]
 80058ec:	f8d7 30f4 	ldr.w	r3, [r7, #244]	@ 0xf4
 80058f0:	681a      	ldr	r2, [r3, #0]
 80058f2:	ea40 0301 	orr.w	r3, r0, r1
 80058f6:	6153      	str	r3, [r2, #20]
 80058f8:	f8d7 30f4 	ldr.w	r3, [r7, #244]	@ 0xf4
 80058fc:	681a      	ldr	r2, [r3, #0]
 80058fe:	4b8f      	ldr	r3, [pc, #572]	@ (8005b3c <UART_SetConfig+0x2cc>)
 8005900:	429a      	cmp	r2, r3
 8005902:	d005      	beq.n	8005910 <UART_SetConfig+0xa0>
 8005904:	f8d7 30f4 	ldr.w	r3, [r7, #244]	@ 0xf4
 8005908:	681a      	ldr	r2, [r3, #0]
 800590a:	4b8d      	ldr	r3, [pc, #564]	@ (8005b40 <UART_SetConfig+0x2d0>)
 800590c:	429a      	cmp	r2, r3
 800590e:	d104      	bne.n	800591a <UART_SetConfig+0xaa>
 8005910:	f7fe fad2 	bl	8003eb8 <HAL_RCC_GetPCLK2Freq>
 8005914:	f8c7 00fc 	str.w	r0, [r7, #252]	@ 0xfc
 8005918:	e003      	b.n	8005922 <UART_SetConfig+0xb2>
 800591a:	f7fe fab9 	bl	8003e90 <HAL_RCC_GetPCLK1Freq>
 800591e:	f8c7 00fc 	str.w	r0, [r7, #252]	@ 0xfc
 8005922:	f8d7 30f4 	ldr.w	r3, [r7, #244]	@ 0xf4
 8005926:	69db      	ldr	r3, [r3, #28]
 8005928:	f5b3 4f00 	cmp.w	r3, #32768	@ 0x8000
 800592c:	f040 810c 	bne.w	8005b48 <UART_SetConfig+0x2d8>
 8005930:	f8d7 30fc 	ldr.w	r3, [r7, #252]	@ 0xfc
 8005934:	2200      	movs	r2, #0
 8005936:	f8c7 30e8 	str.w	r3, [r7, #232]	@ 0xe8
 800593a:	f8c7 20ec 	str.w	r2, [r7, #236]	@ 0xec
 800593e:	e9d7 453a 	ldrd	r4, r5, [r7, #232]	@ 0xe8
 8005942:	4622      	mov	r2, r4
 8005944:	462b      	mov	r3, r5
 8005946:	1891      	adds	r1, r2, r2
 8005948:	65b9      	str	r1, [r7, #88]	@ 0x58
 800594a:	415b      	adcs	r3, r3
 800594c:	65fb      	str	r3, [r7, #92]	@ 0x5c
 800594e:	e9d7 2316 	ldrd	r2, r3, [r7, #88]	@ 0x58
 8005952:	4621      	mov	r1, r4
 8005954:	eb12 0801 	adds.w	r8, r2, r1
 8005958:	4629      	mov	r1, r5
 800595a:	eb43 0901 	adc.w	r9, r3, r1
 800595e:	f04f 0200 	mov.w	r2, #0
 8005962:	f04f 0300 	mov.w	r3, #0
 8005966:	ea4f 03c9 	mov.w	r3, r9, lsl #3
 800596a:	ea43 7358 	orr.w	r3, r3, r8, lsr #29
 800596e:	ea4f 02c8 	mov.w	r2, r8, lsl #3
 8005972:	4690      	mov	r8, r2
 8005974:	4699      	mov	r9, r3
 8005976:	4623      	mov	r3, r4
 8005978:	eb18 0303 	adds.w	r3, r8, r3
 800597c:	f8c7 30e0 	str.w	r3, [r7, #224]	@ 0xe0
 8005980:	462b      	mov	r3, r5
 8005982:	eb49 0303 	adc.w	r3, r9, r3
 8005986:	f8c7 30e4 	str.w	r3, [r7, #228]	@ 0xe4
 800598a:	f8d7 30f4 	ldr.w	r3, [r7, #244]	@ 0xf4
 800598e:	685b      	ldr	r3, [r3, #4]
 8005990:	2200      	movs	r2, #0
 8005992:	f8c7 30d8 	str.w	r3, [r7, #216]	@ 0xd8
 8005996:	f8c7 20dc 	str.w	r2, [r7, #220]	@ 0xdc
 800599a:	e9d7 1236 	ldrd	r1, r2, [r7, #216]	@ 0xd8
 800599e:	460b      	mov	r3, r1
 80059a0:	18db      	adds	r3, r3, r3
 80059a2:	653b      	str	r3, [r7, #80]	@ 0x50
 80059a4:	4613      	mov	r3, r2
 80059a6:	eb42 0303 	adc.w	r3, r2, r3
 80059aa:	657b      	str	r3, [r7, #84]	@ 0x54
 80059ac:	e9d7 2314 	ldrd	r2, r3, [r7, #80]	@ 0x50
 80059b0:	e9d7 0138 	ldrd	r0, r1, [r7, #224]	@ 0xe0
 80059b4:	f7fa fc64 	bl	8000280 <__aeabi_uldivmod>
 80059b8:	4602      	mov	r2, r0
 80059ba:	460b      	mov	r3, r1
 80059bc:	4b61      	ldr	r3, [pc, #388]	@ (8005b44 <UART_SetConfig+0x2d4>)
 80059be:	fba3 2302 	umull	r2, r3, r3, r2
 80059c2:	095b      	lsrs	r3, r3, #5
 80059c4:	011c      	lsls	r4, r3, #4
 80059c6:	f8d7 30fc 	ldr.w	r3, [r7, #252]	@ 0xfc
 80059ca:	2200      	movs	r2, #0
 80059cc:	f8c7 30d0 	str.w	r3, [r7, #208]	@ 0xd0
 80059d0:	f8c7 20d4 	str.w	r2, [r7, #212]	@ 0xd4
 80059d4:	e9d7 8934 	ldrd	r8, r9, [r7, #208]	@ 0xd0
 80059d8:	4642      	mov	r2, r8
 80059da:	464b      	mov	r3, r9
 80059dc:	1891      	adds	r1, r2, r2
 80059de:	64b9      	str	r1, [r7, #72]	@ 0x48
 80059e0:	415b      	adcs	r3, r3
 80059e2:	64fb      	str	r3, [r7, #76]	@ 0x4c
 80059e4:	e9d7 2312 	ldrd	r2, r3, [r7, #72]	@ 0x48
 80059e8:	4641      	mov	r1, r8
 80059ea:	eb12 0a01 	adds.w	sl, r2, r1
 80059ee:	4649      	mov	r1, r9
 80059f0:	eb43 0b01 	adc.w	fp, r3, r1
 80059f4:	f04f 0200 	mov.w	r2, #0
 80059f8:	f04f 0300 	mov.w	r3, #0
 80059fc:	ea4f 03cb 	mov.w	r3, fp, lsl #3
 8005a00:	ea43 735a 	orr.w	r3, r3, sl, lsr #29
 8005a04:	ea4f 02ca 	mov.w	r2, sl, lsl #3
 8005a08:	4692      	mov	sl, r2
 8005a0a:	469b      	mov	fp, r3
 8005a0c:	4643      	mov	r3, r8
 8005a0e:	eb1a 0303 	adds.w	r3, sl, r3
 8005a12:	f8c7 30c8 	str.w	r3, [r7, #200]	@ 0xc8
 8005a16:	464b      	mov	r3, r9
 8005a18:	eb4b 0303 	adc.w	r3, fp, r3
 8005a1c:	f8c7 30cc 	str.w	r3, [r7, #204]	@ 0xcc
 8005a20:	f8d7 30f4 	ldr.w	r3, [r7, #244]	@ 0xf4
 8005a24:	685b      	ldr	r3, [r3, #4]
 8005a26:	2200      	movs	r2, #0
 8005a28:	f8c7 30c0 	str.w	r3, [r7, #192]	@ 0xc0
 8005a2c:	f8c7 20c4 	str.w	r2, [r7, #196]	@ 0xc4
 8005a30:	e9d7 1230 	ldrd	r1, r2, [r7, #192]	@ 0xc0
 8005a34:	460b      	mov	r3, r1
 8005a36:	18db      	adds	r3, r3, r3
 8005a38:	643b      	str	r3, [r7, #64]	@ 0x40
 8005a3a:	4613      	mov	r3, r2
 8005a3c:	eb42 0303 	adc.w	r3, r2, r3
 8005a40:	647b      	str	r3, [r7, #68]	@ 0x44
 8005a42:	e9d7 2310 	ldrd	r2, r3, [r7, #64]	@ 0x40
 8005a46:	e9d7 0132 	ldrd	r0, r1, [r7, #200]	@ 0xc8
 8005a4a:	f7fa fc19 	bl	8000280 <__aeabi_uldivmod>
 8005a4e:	4602      	mov	r2, r0
 8005a50:	460b      	mov	r3, r1
 8005a52:	4611      	mov	r1, r2
 8005a54:	4b3b      	ldr	r3, [pc, #236]	@ (8005b44 <UART_SetConfig+0x2d4>)
 8005a56:	fba3 2301 	umull	r2, r3, r3, r1
 8005a5a:	095b      	lsrs	r3, r3, #5
 8005a5c:	2264      	movs	r2, #100	@ 0x64
 8005a5e:	fb02 f303 	mul.w	r3, r2, r3
 8005a62:	1acb      	subs	r3, r1, r3
 8005a64:	00db      	lsls	r3, r3, #3
 8005a66:	f103 0232 	add.w	r2, r3, #50	@ 0x32
 8005a6a:	4b36      	ldr	r3, [pc, #216]	@ (8005b44 <UART_SetConfig+0x2d4>)
 8005a6c:	fba3 2302 	umull	r2, r3, r3, r2
 8005a70:	095b      	lsrs	r3, r3, #5
 8005a72:	005b      	lsls	r3, r3, #1
 8005a74:	f403 73f8 	and.w	r3, r3, #496	@ 0x1f0
 8005a78:	441c      	add	r4, r3
 8005a7a:	f8d7 30fc 	ldr.w	r3, [r7, #252]	@ 0xfc
 8005a7e:	2200      	movs	r2, #0
 8005a80:	f8c7 30b8 	str.w	r3, [r7, #184]	@ 0xb8
 8005a84:	f8c7 20bc 	str.w	r2, [r7, #188]	@ 0xbc
 8005a88:	e9d7 892e 	ldrd	r8, r9, [r7, #184]	@ 0xb8
 8005a8c:	4642      	mov	r2, r8
 8005a8e:	464b      	mov	r3, r9
 8005a90:	1891      	adds	r1, r2, r2
 8005a92:	63b9      	str	r1, [r7, #56]	@ 0x38
 8005a94:	415b      	adcs	r3, r3
 8005a96:	63fb      	str	r3, [r7, #60]	@ 0x3c
 8005a98:	e9d7 230e 	ldrd	r2, r3, [r7, #56]	@ 0x38
 8005a9c:	4641      	mov	r1, r8
 8005a9e:	1851      	adds	r1, r2, r1
 8005aa0:	6339      	str	r1, [r7, #48]	@ 0x30
 8005aa2:	4649      	mov	r1, r9
 8005aa4:	414b      	adcs	r3, r1
 8005aa6:	637b      	str	r3, [r7, #52]	@ 0x34
 8005aa8:	f04f 0200 	mov.w	r2, #0
 8005aac:	f04f 0300 	mov.w	r3, #0
 8005ab0:	e9d7 ab0c 	ldrd	sl, fp, [r7, #48]	@ 0x30
 8005ab4:	4659      	mov	r1, fp
 8005ab6:	00cb      	lsls	r3, r1, #3
 8005ab8:	4651      	mov	r1, sl
 8005aba:	ea43 7351 	orr.w	r3, r3, r1, lsr #29
 8005abe:	4651      	mov	r1, sl
 8005ac0:	00ca      	lsls	r2, r1, #3
 8005ac2:	4610      	mov	r0, r2
 8005ac4:	4619      	mov	r1, r3
 8005ac6:	4603      	mov	r3, r0
 8005ac8:	4642      	mov	r2, r8
 8005aca:	189b      	adds	r3, r3, r2
 8005acc:	f8c7 30b0 	str.w	r3, [r7, #176]	@ 0xb0
 8005ad0:	464b      	mov	r3, r9
 8005ad2:	460a      	mov	r2, r1
 8005ad4:	eb42 0303 	adc.w	r3, r2, r3
 8005ad8:	f8c7 30b4 	str.w	r3, [r7, #180]	@ 0xb4
 8005adc:	f8d7 30f4 	ldr.w	r3, [r7, #244]	@ 0xf4
 8005ae0:	685b      	ldr	r3, [r3, #4]
 8005ae2:	2200      	movs	r2, #0
 8005ae4:	f8c7 30a8 	str.w	r3, [r7, #168]	@ 0xa8
 8005ae8:	f8c7 20ac 	str.w	r2, [r7, #172]	@ 0xac
 8005aec:	e9d7 122a 	ldrd	r1, r2, [r7, #168]	@ 0xa8
 8005af0:	460b      	mov	r3, r1
 8005af2:	18db      	adds	r3, r3, r3
 8005af4:	62bb      	str	r3, [r7, #40]	@ 0x28
 8005af6:	4613      	mov	r3, r2
 8005af8:	eb42 0303 	adc.w	r3, r2, r3
 8005afc:	62fb      	str	r3, [r7, #44]	@ 0x2c
 8005afe:	e9d7 230a 	ldrd	r2, r3, [r7, #40]	@ 0x28
 8005b02:	e9d7 012c 	ldrd	r0, r1, [r7, #176]	@ 0xb0
 8005b06:	f7fa fbbb 	bl	8000280 <__aeabi_uldivmod>
 8005b0a:	4602      	mov	r2, r0
 8005b0c:	460b      	mov	r3, r1
 8005b0e:	4b0d      	ldr	r3, [pc, #52]	@ (8005b44 <UART_SetConfig+0x2d4>)
 8005b10:	fba3 1302 	umull	r1, r3, r3, r2
 8005b14:	095b      	lsrs	r3, r3, #5
 8005b16:	2164      	movs	r1, #100	@ 0x64
 8005b18:	fb01 f303 	mul.w	r3, r1, r3
 8005b1c:	1ad3      	subs	r3, r2, r3
 8005b1e:	00db      	lsls	r3, r3, #3
 8005b20:	3332      	adds	r3, #50	@ 0x32
 8005b22:	4a08      	ldr	r2, [pc, #32]	@ (8005b44 <UART_SetConfig+0x2d4>)
 8005b24:	fba2 2303 	umull	r2, r3, r2, r3
 8005b28:	095b      	lsrs	r3, r3, #5
 8005b2a:	f003 0207 	and.w	r2, r3, #7
 8005b2e:	f8d7 30f4 	ldr.w	r3, [r7, #244]	@ 0xf4
 8005b32:	681b      	ldr	r3, [r3, #0]
 8005b34:	4422      	add	r2, r4
 8005b36:	609a      	str	r2, [r3, #8]
 8005b38:	e106      	b.n	8005d48 <UART_SetConfig+0x4d8>
 8005b3a:	bf00      	nop
 8005b3c:	40011000 	.word	0x40011000
 8005b40:	40011400 	.word	0x40011400
 8005b44:	51eb851f 	.word	0x51eb851f
 8005b48:	f8d7 30fc 	ldr.w	r3, [r7, #252]	@ 0xfc
 8005b4c:	2200      	movs	r2, #0
 8005b4e:	f8c7 30a0 	str.w	r3, [r7, #160]	@ 0xa0
 8005b52:	f8c7 20a4 	str.w	r2, [r7, #164]	@ 0xa4
 8005b56:	e9d7 8928 	ldrd	r8, r9, [r7, #160]	@ 0xa0
 8005b5a:	4642      	mov	r2, r8
 8005b5c:	464b      	mov	r3, r9
 8005b5e:	1891      	adds	r1, r2, r2
 8005b60:	6239      	str	r1, [r7, #32]
 8005b62:	415b      	adcs	r3, r3
 8005b64:	627b      	str	r3, [r7, #36]	@ 0x24
 8005b66:	e9d7 2308 	ldrd	r2, r3, [r7, #32]
 8005b6a:	4641      	mov	r1, r8
 8005b6c:	1854      	adds	r4, r2, r1
 8005b6e:	4649      	mov	r1, r9
 8005b70:	eb43 0501 	adc.w	r5, r3, r1
 8005b74:	f04f 0200 	mov.w	r2, #0
 8005b78:	f04f 0300 	mov.w	r3, #0
 8005b7c:	00eb      	lsls	r3, r5, #3
 8005b7e:	ea43 7354 	orr.w	r3, r3, r4, lsr #29
 8005b82:	00e2      	lsls	r2, r4, #3
 8005b84:	4614      	mov	r4, r2
 8005b86:	461d      	mov	r5, r3
 8005b88:	4643      	mov	r3, r8
 8005b8a:	18e3      	adds	r3, r4, r3
 8005b8c:	f8c7 3098 	str.w	r3, [r7, #152]	@ 0x98
 8005b90:	464b      	mov	r3, r9
 8005b92:	eb45 0303 	adc.w	r3, r5, r3
 8005b96:	f8c7 309c 	str.w	r3, [r7, #156]	@ 0x9c
 8005b9a:	f8d7 30f4 	ldr.w	r3, [r7, #244]	@ 0xf4
 8005b9e:	685b      	ldr	r3, [r3, #4]
 8005ba0:	2200      	movs	r2, #0
 8005ba2:	f8c7 3090 	str.w	r3, [r7, #144]	@ 0x90
 8005ba6:	f8c7 2094 	str.w	r2, [r7, #148]	@ 0x94
 8005baa:	f04f 0200 	mov.w	r2, #0
 8005bae:	f04f 0300 	mov.w	r3, #0
 8005bb2:	e9d7 4524 	ldrd	r4, r5, [r7, #144]	@ 0x90
 8005bb6:	4629      	mov	r1, r5
 8005bb8:	008b      	lsls	r3, r1, #2
 8005bba:	4621      	mov	r1, r4
 8005bbc:	ea43 7391 	orr.w	r3, r3, r1, lsr #30
 8005bc0:	4621      	mov	r1, r4
 8005bc2:	008a      	lsls	r2, r1, #2
 8005bc4:	e9d7 0126 	ldrd	r0, r1, [r7, #152]	@ 0x98
 8005bc8:	f7fa fb5a 	bl	8000280 <__aeabi_uldivmod>
 8005bcc:	4602      	mov	r2, r0
 8005bce:	460b      	mov	r3, r1
 8005bd0:	4b60      	ldr	r3, [pc, #384]	@ (8005d54 <UART_SetConfig+0x4e4>)
 8005bd2:	fba3 2302 	umull	r2, r3, r3, r2
 8005bd6:	095b      	lsrs	r3, r3, #5
 8005bd8:	011c      	lsls	r4, r3, #4
 8005bda:	f8d7 30fc 	ldr.w	r3, [r7, #252]	@ 0xfc
 8005bde:	2200      	movs	r2, #0
 8005be0:	f8c7 3088 	str.w	r3, [r7, #136]	@ 0x88
 8005be4:	f8c7 208c 	str.w	r2, [r7, #140]	@ 0x8c
 8005be8:	e9d7 8922 	ldrd	r8, r9, [r7, #136]	@ 0x88
 8005bec:	4642      	mov	r2, r8
 8005bee:	464b      	mov	r3, r9
 8005bf0:	1891      	adds	r1, r2, r2
 8005bf2:	61b9      	str	r1, [r7, #24]
 8005bf4:	415b      	adcs	r3, r3
 8005bf6:	61fb      	str	r3, [r7, #28]
 8005bf8:	e9d7 2306 	ldrd	r2, r3, [r7, #24]
 8005bfc:	4641      	mov	r1, r8
 8005bfe:	1851      	adds	r1, r2, r1
 8005c00:	6139      	str	r1, [r7, #16]
 8005c02:	4649      	mov	r1, r9
 8005c04:	414b      	adcs	r3, r1
 8005c06:	617b      	str	r3, [r7, #20]
 8005c08:	f04f 0200 	mov.w	r2, #0
 8005c0c:	f04f 0300 	mov.w	r3, #0
 8005c10:	e9d7 ab04 	ldrd	sl, fp, [r7, #16]
 8005c14:	4659      	mov	r1, fp
 8005c16:	00cb      	lsls	r3, r1, #3
 8005c18:	4651      	mov	r1, sl
 8005c1a:	ea43 7351 	orr.w	r3, r3, r1, lsr #29
 8005c1e:	4651      	mov	r1, sl
 8005c20:	00ca      	lsls	r2, r1, #3
 8005c22:	4610      	mov	r0, r2
 8005c24:	4619      	mov	r1, r3
 8005c26:	4603      	mov	r3, r0
 8005c28:	4642      	mov	r2, r8
 8005c2a:	189b      	adds	r3, r3, r2
 8005c2c:	f8c7 3080 	str.w	r3, [r7, #128]	@ 0x80
 8005c30:	464b      	mov	r3, r9
 8005c32:	460a      	mov	r2, r1
 8005c34:	eb42 0303 	adc.w	r3, r2, r3
 8005c38:	f8c7 3084 	str.w	r3, [r7, #132]	@ 0x84
 8005c3c:	f8d7 30f4 	ldr.w	r3, [r7, #244]	@ 0xf4
 8005c40:	685b      	ldr	r3, [r3, #4]
 8005c42:	2200      	movs	r2, #0
 8005c44:	67bb      	str	r3, [r7, #120]	@ 0x78
 8005c46:	67fa      	str	r2, [r7, #124]	@ 0x7c
 8005c48:	f04f 0200 	mov.w	r2, #0
 8005c4c:	f04f 0300 	mov.w	r3, #0
 8005c50:	e9d7 891e 	ldrd	r8, r9, [r7, #120]	@ 0x78
 8005c54:	4649      	mov	r1, r9
 8005c56:	008b      	lsls	r3, r1, #2
 8005c58:	4641      	mov	r1, r8
 8005c5a:	ea43 7391 	orr.w	r3, r3, r1, lsr #30
 8005c5e:	4641      	mov	r1, r8
 8005c60:	008a      	lsls	r2, r1, #2
 8005c62:	e9d7 0120 	ldrd	r0, r1, [r7, #128]	@ 0x80
 8005c66:	f7fa fb0b 	bl	8000280 <__aeabi_uldivmod>
 8005c6a:	4602      	mov	r2, r0
 8005c6c:	460b      	mov	r3, r1
 8005c6e:	4611      	mov	r1, r2
 8005c70:	4b38      	ldr	r3, [pc, #224]	@ (8005d54 <UART_SetConfig+0x4e4>)
 8005c72:	fba3 2301 	umull	r2, r3, r3, r1
 8005c76:	095b      	lsrs	r3, r3, #5
 8005c78:	2264      	movs	r2, #100	@ 0x64
 8005c7a:	fb02 f303 	mul.w	r3, r2, r3
 8005c7e:	1acb      	subs	r3, r1, r3
 8005c80:	011b      	lsls	r3, r3, #4
 8005c82:	3332      	adds	r3, #50	@ 0x32
 8005c84:	4a33      	ldr	r2, [pc, #204]	@ (8005d54 <UART_SetConfig+0x4e4>)
 8005c86:	fba2 2303 	umull	r2, r3, r2, r3
 8005c8a:	095b      	lsrs	r3, r3, #5
 8005c8c:	f003 03f0 	and.w	r3, r3, #240	@ 0xf0
 8005c90:	441c      	add	r4, r3
 8005c92:	f8d7 30fc 	ldr.w	r3, [r7, #252]	@ 0xfc
 8005c96:	2200      	movs	r2, #0
 8005c98:	673b      	str	r3, [r7, #112]	@ 0x70
 8005c9a:	677a      	str	r2, [r7, #116]	@ 0x74
 8005c9c:	e9d7 891c 	ldrd	r8, r9, [r7, #112]	@ 0x70
 8005ca0:	4642      	mov	r2, r8
 8005ca2:	464b      	mov	r3, r9
 8005ca4:	1891      	adds	r1, r2, r2
 8005ca6:	60b9      	str	r1, [r7, #8]
 8005ca8:	415b      	adcs	r3, r3
 8005caa:	60fb      	str	r3, [r7, #12]
 8005cac:	e9d7 2302 	ldrd	r2, r3, [r7, #8]
 8005cb0:	4641      	mov	r1, r8
 8005cb2:	1851      	adds	r1, r2, r1
 8005cb4:	6039      	str	r1, [r7, #0]
 8005cb6:	4649      	mov	r1, r9
 8005cb8:	414b      	adcs	r3, r1
 8005cba:	607b      	str	r3, [r7, #4]
 8005cbc:	f04f 0200 	mov.w	r2, #0
 8005cc0:	f04f 0300 	mov.w	r3, #0
 8005cc4:	e9d7 ab00 	ldrd	sl, fp, [r7]
 8005cc8:	4659      	mov	r1, fp
 8005cca:	00cb      	lsls	r3, r1, #3
 8005ccc:	4651      	mov	r1, sl
 8005cce:	ea43 7351 	orr.w	r3, r3, r1, lsr #29
 8005cd2:	4651      	mov	r1, sl
 8005cd4:	00ca      	lsls	r2, r1, #3
 8005cd6:	4610      	mov	r0, r2
 8005cd8:	4619      	mov	r1, r3
 8005cda:	4603      	mov	r3, r0
 8005cdc:	4642      	mov	r2, r8
 8005cde:	189b      	adds	r3, r3, r2
 8005ce0:	66bb      	str	r3, [r7, #104]	@ 0x68
 8005ce2:	464b      	mov	r3, r9
 8005ce4:	460a      	mov	r2, r1
 8005ce6:	eb42 0303 	adc.w	r3, r2, r3
 8005cea:	66fb      	str	r3, [r7, #108]	@ 0x6c
 8005cec:	f8d7 30f4 	ldr.w	r3, [r7, #244]	@ 0xf4
 8005cf0:	685b      	ldr	r3, [r3, #4]
 8005cf2:	2200      	movs	r2, #0
 8005cf4:	663b      	str	r3, [r7, #96]	@ 0x60
 8005cf6:	667a      	str	r2, [r7, #100]	@ 0x64
 8005cf8:	f04f 0200 	mov.w	r2, #0
 8005cfc:	f04f 0300 	mov.w	r3, #0
 8005d00:	e9d7 8918 	ldrd	r8, r9, [r7, #96]	@ 0x60
 8005d04:	4649      	mov	r1, r9
 8005d06:	008b      	lsls	r3, r1, #2
 8005d08:	4641      	mov	r1, r8
 8005d0a:	ea43 7391 	orr.w	r3, r3, r1, lsr #30
 8005d0e:	4641      	mov	r1, r8
 8005d10:	008a      	lsls	r2, r1, #2
 8005d12:	e9d7 011a 	ldrd	r0, r1, [r7, #104]	@ 0x68
 8005d16:	f7fa fab3 	bl	8000280 <__aeabi_uldivmod>
 8005d1a:	4602      	mov	r2, r0
 8005d1c:	460b      	mov	r3, r1
 8005d1e:	4b0d      	ldr	r3, [pc, #52]	@ (8005d54 <UART_SetConfig+0x4e4>)
 8005d20:	fba3 1302 	umull	r1, r3, r3, r2
 8005d24:	095b      	lsrs	r3, r3, #5
 8005d26:	2164      	movs	r1, #100	@ 0x64
 8005d28:	fb01 f303 	mul.w	r3, r1, r3
 8005d2c:	1ad3      	subs	r3, r2, r3
 8005d2e:	011b      	lsls	r3, r3, #4
 8005d30:	3332      	adds	r3, #50	@ 0x32
 8005d32:	4a08      	ldr	r2, [pc, #32]	@ (8005d54 <UART_SetConfig+0x4e4>)
 8005d34:	fba2 2303 	umull	r2, r3, r2, r3
 8005d38:	095b      	lsrs	r3, r3, #5
 8005d3a:	f003 020f 	and.w	r2, r3, #15
 8005d3e:	f8d7 30f4 	ldr.w	r3, [r7, #244]	@ 0xf4
 8005d42:	681b      	ldr	r3, [r3, #0]
 8005d44:	4422      	add	r2, r4
 8005d46:	609a      	str	r2, [r3, #8]
 8005d48:	bf00      	nop
 8005d4a:	f507 7780 	add.w	r7, r7, #256	@ 0x100
 8005d4e:	46bd      	mov	sp, r7
 8005d50:	e8bd 8fb0 	ldmia.w	sp!, {r4, r5, r7, r8, r9, sl, fp, pc}
 8005d54:	51eb851f 	.word	0x51eb851f

08005d58 <atoi>:
 8005d58:	220a      	movs	r2, #10
 8005d5a:	2100      	movs	r1, #0
 8005d5c:	f000 b87a 	b.w	8005e54 <strtol>

08005d60 <_strtol_l.isra.0>:
 8005d60:	2b24      	cmp	r3, #36	@ 0x24
 8005d62:	e92d 47f0 	stmdb	sp!, {r4, r5, r6, r7, r8, r9, sl, lr}
 8005d66:	4686      	mov	lr, r0
 8005d68:	4690      	mov	r8, r2
 8005d6a:	d801      	bhi.n	8005d70 <_strtol_l.isra.0+0x10>
 8005d6c:	2b01      	cmp	r3, #1
 8005d6e:	d106      	bne.n	8005d7e <_strtol_l.isra.0+0x1e>
 8005d70:	f000 f91a 	bl	8005fa8 <__errno>
 8005d74:	2316      	movs	r3, #22
 8005d76:	6003      	str	r3, [r0, #0]
 8005d78:	2000      	movs	r0, #0
 8005d7a:	e8bd 87f0 	ldmia.w	sp!, {r4, r5, r6, r7, r8, r9, sl, pc}
 8005d7e:	4834      	ldr	r0, [pc, #208]	@ (8005e50 <_strtol_l.isra.0+0xf0>)
 8005d80:	460d      	mov	r5, r1
 8005d82:	462a      	mov	r2, r5
 8005d84:	f815 4b01 	ldrb.w	r4, [r5], #1
 8005d88:	5d06      	ldrb	r6, [r0, r4]
 8005d8a:	f016 0608 	ands.w	r6, r6, #8
 8005d8e:	d1f8      	bne.n	8005d82 <_strtol_l.isra.0+0x22>
 8005d90:	2c2d      	cmp	r4, #45	@ 0x2d
 8005d92:	d110      	bne.n	8005db6 <_strtol_l.isra.0+0x56>
 8005d94:	782c      	ldrb	r4, [r5, #0]
 8005d96:	2601      	movs	r6, #1
 8005d98:	1c95      	adds	r5, r2, #2
 8005d9a:	f033 0210 	bics.w	r2, r3, #16
 8005d9e:	d115      	bne.n	8005dcc <_strtol_l.isra.0+0x6c>
 8005da0:	2c30      	cmp	r4, #48	@ 0x30
 8005da2:	d10d      	bne.n	8005dc0 <_strtol_l.isra.0+0x60>
 8005da4:	782a      	ldrb	r2, [r5, #0]
 8005da6:	f002 02df 	and.w	r2, r2, #223	@ 0xdf
 8005daa:	2a58      	cmp	r2, #88	@ 0x58
 8005dac:	d108      	bne.n	8005dc0 <_strtol_l.isra.0+0x60>
 8005dae:	786c      	ldrb	r4, [r5, #1]
 8005db0:	3502      	adds	r5, #2
 8005db2:	2310      	movs	r3, #16
 8005db4:	e00a      	b.n	8005dcc <_strtol_l.isra.0+0x6c>
 8005db6:	2c2b      	cmp	r4, #43	@ 0x2b
 8005db8:	bf04      	itt	eq
 8005dba:	782c      	ldrbeq	r4, [r5, #0]
 8005dbc:	1c95      	addeq	r5, r2, #2
 8005dbe:	e7ec      	b.n	8005d9a <_strtol_l.isra.0+0x3a>
 8005dc0:	2b00      	cmp	r3, #0
 8005dc2:	d1f6      	bne.n	8005db2 <_strtol_l.isra.0+0x52>
 8005dc4:	2c30      	cmp	r4, #48	@ 0x30
 8005dc6:	bf14      	ite	ne
 8005dc8:	230a      	movne	r3, #10
 8005dca:	2308      	moveq	r3, #8
 8005dcc:	f106 4c00 	add.w	ip, r6, #2147483648	@ 0x80000000
 8005dd0:	f10c 3cff 	add.w	ip, ip, #4294967295	@ 0xffffffff
 8005dd4:	2200      	movs	r2, #0
 8005dd6:	fbbc f9f3 	udiv	r9, ip, r3
 8005dda:	4610      	mov	r0, r2
 8005ddc:	fb03 ca19 	mls	sl, r3, r9, ip
 8005de0:	f1a4 0730 	sub.w	r7, r4, #48	@ 0x30
 8005de4:	2f09      	cmp	r7, #9
 8005de6:	d80f      	bhi.n	8005e08 <_strtol_l.isra.0+0xa8>
 8005de8:	463c      	mov	r4, r7
 8005dea:	42a3      	cmp	r3, r4
 8005dec:	dd1b      	ble.n	8005e26 <_strtol_l.isra.0+0xc6>
 8005dee:	1c57      	adds	r7, r2, #1
 8005df0:	d007      	beq.n	8005e02 <_strtol_l.isra.0+0xa2>
 8005df2:	4581      	cmp	r9, r0
 8005df4:	d314      	bcc.n	8005e20 <_strtol_l.isra.0+0xc0>
 8005df6:	d101      	bne.n	8005dfc <_strtol_l.isra.0+0x9c>
 8005df8:	45a2      	cmp	sl, r4
 8005dfa:	db11      	blt.n	8005e20 <_strtol_l.isra.0+0xc0>
 8005dfc:	fb00 4003 	mla	r0, r0, r3, r4
 8005e00:	2201      	movs	r2, #1
 8005e02:	f815 4b01 	ldrb.w	r4, [r5], #1
 8005e06:	e7eb      	b.n	8005de0 <_strtol_l.isra.0+0x80>
 8005e08:	f1a4 0741 	sub.w	r7, r4, #65	@ 0x41
 8005e0c:	2f19      	cmp	r7, #25
 8005e0e:	d801      	bhi.n	8005e14 <_strtol_l.isra.0+0xb4>
 8005e10:	3c37      	subs	r4, #55	@ 0x37
 8005e12:	e7ea      	b.n	8005dea <_strtol_l.isra.0+0x8a>
 8005e14:	f1a4 0761 	sub.w	r7, r4, #97	@ 0x61
 8005e18:	2f19      	cmp	r7, #25
 8005e1a:	d804      	bhi.n	8005e26 <_strtol_l.isra.0+0xc6>
 8005e1c:	3c57      	subs	r4, #87	@ 0x57
 8005e1e:	e7e4      	b.n	8005dea <_strtol_l.isra.0+0x8a>
 8005e20:	f04f 32ff 	mov.w	r2, #4294967295	@ 0xffffffff
 8005e24:	e7ed      	b.n	8005e02 <_strtol_l.isra.0+0xa2>
 8005e26:	1c53      	adds	r3, r2, #1
 8005e28:	d108      	bne.n	8005e3c <_strtol_l.isra.0+0xdc>
 8005e2a:	2322      	movs	r3, #34	@ 0x22
 8005e2c:	f8ce 3000 	str.w	r3, [lr]
 8005e30:	4660      	mov	r0, ip
 8005e32:	f1b8 0f00 	cmp.w	r8, #0
 8005e36:	d0a0      	beq.n	8005d7a <_strtol_l.isra.0+0x1a>
 8005e38:	1e69      	subs	r1, r5, #1
 8005e3a:	e006      	b.n	8005e4a <_strtol_l.isra.0+0xea>
 8005e3c:	b106      	cbz	r6, 8005e40 <_strtol_l.isra.0+0xe0>
 8005e3e:	4240      	negs	r0, r0
 8005e40:	f1b8 0f00 	cmp.w	r8, #0
 8005e44:	d099      	beq.n	8005d7a <_strtol_l.isra.0+0x1a>
 8005e46:	2a00      	cmp	r2, #0
 8005e48:	d1f6      	bne.n	8005e38 <_strtol_l.isra.0+0xd8>
 8005e4a:	f8c8 1000 	str.w	r1, [r8]
 8005e4e:	e794      	b.n	8005d7a <_strtol_l.isra.0+0x1a>
 8005e50:	08006bad 	.word	0x08006bad

08005e54 <strtol>:
 8005e54:	4613      	mov	r3, r2
 8005e56:	460a      	mov	r2, r1
 8005e58:	4601      	mov	r1, r0
 8005e5a:	4802      	ldr	r0, [pc, #8]	@ (8005e64 <strtol+0x10>)
 8005e5c:	6800      	ldr	r0, [r0, #0]
 8005e5e:	f7ff bf7f 	b.w	8005d60 <_strtol_l.isra.0>
 8005e62:	bf00      	nop
 8005e64:	200000b0 	.word	0x200000b0

08005e68 <sniprintf>:
 8005e68:	b40c      	push	{r2, r3}
 8005e6a:	b530      	push	{r4, r5, lr}
 8005e6c:	4b18      	ldr	r3, [pc, #96]	@ (8005ed0 <sniprintf+0x68>)
 8005e6e:	1e0c      	subs	r4, r1, #0
 8005e70:	681d      	ldr	r5, [r3, #0]
 8005e72:	b09d      	sub	sp, #116	@ 0x74
 8005e74:	da08      	bge.n	8005e88 <sniprintf+0x20>
 8005e76:	238b      	movs	r3, #139	@ 0x8b
 8005e78:	602b      	str	r3, [r5, #0]
 8005e7a:	f04f 30ff 	mov.w	r0, #4294967295	@ 0xffffffff
 8005e7e:	b01d      	add	sp, #116	@ 0x74
 8005e80:	e8bd 4030 	ldmia.w	sp!, {r4, r5, lr}
 8005e84:	b002      	add	sp, #8
 8005e86:	4770      	bx	lr
 8005e88:	f44f 7302 	mov.w	r3, #520	@ 0x208
 8005e8c:	f8ad 3014 	strh.w	r3, [sp, #20]
 8005e90:	f04f 0300 	mov.w	r3, #0
 8005e94:	931b      	str	r3, [sp, #108]	@ 0x6c
 8005e96:	bf14      	ite	ne
 8005e98:	f104 33ff 	addne.w	r3, r4, #4294967295	@ 0xffffffff
 8005e9c:	4623      	moveq	r3, r4
 8005e9e:	9304      	str	r3, [sp, #16]
 8005ea0:	9307      	str	r3, [sp, #28]
 8005ea2:	f64f 73ff 	movw	r3, #65535	@ 0xffff
 8005ea6:	9002      	str	r0, [sp, #8]
 8005ea8:	9006      	str	r0, [sp, #24]
 8005eaa:	f8ad 3016 	strh.w	r3, [sp, #22]
 8005eae:	9a20      	ldr	r2, [sp, #128]	@ 0x80
 8005eb0:	ab21      	add	r3, sp, #132	@ 0x84
 8005eb2:	a902      	add	r1, sp, #8
 8005eb4:	4628      	mov	r0, r5
 8005eb6:	9301      	str	r3, [sp, #4]
 8005eb8:	f000 f9f6 	bl	80062a8 <_svfiprintf_r>
 8005ebc:	1c43      	adds	r3, r0, #1
 8005ebe:	bfbc      	itt	lt
 8005ec0:	238b      	movlt	r3, #139	@ 0x8b
 8005ec2:	602b      	strlt	r3, [r5, #0]
 8005ec4:	2c00      	cmp	r4, #0
 8005ec6:	d0da      	beq.n	8005e7e <sniprintf+0x16>
 8005ec8:	9b02      	ldr	r3, [sp, #8]
 8005eca:	2200      	movs	r2, #0
 8005ecc:	701a      	strb	r2, [r3, #0]
 8005ece:	e7d6      	b.n	8005e7e <sniprintf+0x16>
 8005ed0:	200000b0 	.word	0x200000b0

08005ed4 <_vsniprintf_r>:
 8005ed4:	b530      	push	{r4, r5, lr}
 8005ed6:	4614      	mov	r4, r2
 8005ed8:	2c00      	cmp	r4, #0
 8005eda:	b09b      	sub	sp, #108	@ 0x6c
 8005edc:	4605      	mov	r5, r0
 8005ede:	461a      	mov	r2, r3
 8005ee0:	da05      	bge.n	8005eee <_vsniprintf_r+0x1a>
 8005ee2:	238b      	movs	r3, #139	@ 0x8b
 8005ee4:	6003      	str	r3, [r0, #0]
 8005ee6:	f04f 30ff 	mov.w	r0, #4294967295	@ 0xffffffff
 8005eea:	b01b      	add	sp, #108	@ 0x6c
 8005eec:	bd30      	pop	{r4, r5, pc}
 8005eee:	f44f 7302 	mov.w	r3, #520	@ 0x208
 8005ef2:	f8ad 300c 	strh.w	r3, [sp, #12]
 8005ef6:	f04f 0300 	mov.w	r3, #0
 8005efa:	9319      	str	r3, [sp, #100]	@ 0x64
 8005efc:	bf14      	ite	ne
 8005efe:	f104 33ff 	addne.w	r3, r4, #4294967295	@ 0xffffffff
 8005f02:	4623      	moveq	r3, r4
 8005f04:	9302      	str	r3, [sp, #8]
 8005f06:	9305      	str	r3, [sp, #20]
 8005f08:	f64f 73ff 	movw	r3, #65535	@ 0xffff
 8005f0c:	9100      	str	r1, [sp, #0]
 8005f0e:	9104      	str	r1, [sp, #16]
 8005f10:	f8ad 300e 	strh.w	r3, [sp, #14]
 8005f14:	4669      	mov	r1, sp
 8005f16:	9b1e      	ldr	r3, [sp, #120]	@ 0x78
 8005f18:	f000 f9c6 	bl	80062a8 <_svfiprintf_r>
 8005f1c:	1c43      	adds	r3, r0, #1
 8005f1e:	bfbc      	itt	lt
 8005f20:	238b      	movlt	r3, #139	@ 0x8b
 8005f22:	602b      	strlt	r3, [r5, #0]
 8005f24:	2c00      	cmp	r4, #0
 8005f26:	d0e0      	beq.n	8005eea <_vsniprintf_r+0x16>
 8005f28:	9b00      	ldr	r3, [sp, #0]
 8005f2a:	2200      	movs	r2, #0
 8005f2c:	701a      	strb	r2, [r3, #0]
 8005f2e:	e7dc      	b.n	8005eea <_vsniprintf_r+0x16>

08005f30 <vsniprintf>:
 8005f30:	b507      	push	{r0, r1, r2, lr}
 8005f32:	9300      	str	r3, [sp, #0]
 8005f34:	4613      	mov	r3, r2
 8005f36:	460a      	mov	r2, r1
 8005f38:	4601      	mov	r1, r0
 8005f3a:	4803      	ldr	r0, [pc, #12]	@ (8005f48 <vsniprintf+0x18>)
 8005f3c:	6800      	ldr	r0, [r0, #0]
 8005f3e:	f7ff ffc9 	bl	8005ed4 <_vsniprintf_r>
 8005f42:	b003      	add	sp, #12
 8005f44:	f85d fb04 	ldr.w	pc, [sp], #4
 8005f48:	200000b0 	.word	0x200000b0

08005f4c <memset>:
 8005f4c:	4402      	add	r2, r0
 8005f4e:	4603      	mov	r3, r0
 8005f50:	4293      	cmp	r3, r2
 8005f52:	d100      	bne.n	8005f56 <memset+0xa>
 8005f54:	4770      	bx	lr
 8005f56:	f803 1b01 	strb.w	r1, [r3], #1
 8005f5a:	e7f9      	b.n	8005f50 <memset+0x4>

08005f5c <strncmp>:
 8005f5c:	b510      	push	{r4, lr}
 8005f5e:	b16a      	cbz	r2, 8005f7c <strncmp+0x20>
 8005f60:	3901      	subs	r1, #1
 8005f62:	1884      	adds	r4, r0, r2
 8005f64:	f810 2b01 	ldrb.w	r2, [r0], #1
 8005f68:	f811 3f01 	ldrb.w	r3, [r1, #1]!
 8005f6c:	429a      	cmp	r2, r3
 8005f6e:	d103      	bne.n	8005f78 <strncmp+0x1c>
 8005f70:	42a0      	cmp	r0, r4
 8005f72:	d001      	beq.n	8005f78 <strncmp+0x1c>
 8005f74:	2a00      	cmp	r2, #0
 8005f76:	d1f5      	bne.n	8005f64 <strncmp+0x8>
 8005f78:	1ad0      	subs	r0, r2, r3
 8005f7a:	bd10      	pop	{r4, pc}
 8005f7c:	4610      	mov	r0, r2
 8005f7e:	e7fc      	b.n	8005f7a <strncmp+0x1e>

08005f80 <strncpy>:
 8005f80:	b510      	push	{r4, lr}
 8005f82:	3901      	subs	r1, #1
 8005f84:	4603      	mov	r3, r0
 8005f86:	b132      	cbz	r2, 8005f96 <strncpy+0x16>
 8005f88:	f811 4f01 	ldrb.w	r4, [r1, #1]!
 8005f8c:	f803 4b01 	strb.w	r4, [r3], #1
 8005f90:	3a01      	subs	r2, #1
 8005f92:	2c00      	cmp	r4, #0
 8005f94:	d1f7      	bne.n	8005f86 <strncpy+0x6>
 8005f96:	441a      	add	r2, r3
 8005f98:	2100      	movs	r1, #0
 8005f9a:	4293      	cmp	r3, r2
 8005f9c:	d100      	bne.n	8005fa0 <strncpy+0x20>
 8005f9e:	bd10      	pop	{r4, pc}
 8005fa0:	f803 1b01 	strb.w	r1, [r3], #1
 8005fa4:	e7f9      	b.n	8005f9a <strncpy+0x1a>
	...

08005fa8 <__errno>:
 8005fa8:	4b01      	ldr	r3, [pc, #4]	@ (8005fb0 <__errno+0x8>)
 8005faa:	6818      	ldr	r0, [r3, #0]
 8005fac:	4770      	bx	lr
 8005fae:	bf00      	nop
 8005fb0:	200000b0 	.word	0x200000b0

08005fb4 <__libc_init_array>:
 8005fb4:	b570      	push	{r4, r5, r6, lr}
 8005fb6:	4d0d      	ldr	r5, [pc, #52]	@ (8005fec <__libc_init_array+0x38>)
 8005fb8:	4c0d      	ldr	r4, [pc, #52]	@ (8005ff0 <__libc_init_array+0x3c>)
 8005fba:	1b64      	subs	r4, r4, r5
 8005fbc:	10a4      	asrs	r4, r4, #2
 8005fbe:	2600      	movs	r6, #0
 8005fc0:	42a6      	cmp	r6, r4
 8005fc2:	d109      	bne.n	8005fd8 <__libc_init_array+0x24>
 8005fc4:	4d0b      	ldr	r5, [pc, #44]	@ (8005ff4 <__libc_init_array+0x40>)
 8005fc6:	4c0c      	ldr	r4, [pc, #48]	@ (8005ff8 <__libc_init_array+0x44>)
 8005fc8:	f000 fc64 	bl	8006894 <_init>
 8005fcc:	1b64      	subs	r4, r4, r5
 8005fce:	10a4      	asrs	r4, r4, #2
 8005fd0:	2600      	movs	r6, #0
 8005fd2:	42a6      	cmp	r6, r4
 8005fd4:	d105      	bne.n	8005fe2 <__libc_init_array+0x2e>
 8005fd6:	bd70      	pop	{r4, r5, r6, pc}
 8005fd8:	f855 3b04 	ldr.w	r3, [r5], #4
 8005fdc:	4798      	blx	r3
 8005fde:	3601      	adds	r6, #1
 8005fe0:	e7ee      	b.n	8005fc0 <__libc_init_array+0xc>
 8005fe2:	f855 3b04 	ldr.w	r3, [r5], #4
 8005fe6:	4798      	blx	r3
 8005fe8:	3601      	adds	r6, #1
 8005fea:	e7f2      	b.n	8005fd2 <__libc_init_array+0x1e>
 8005fec:	08006ce8 	.word	0x08006ce8
 8005ff0:	08006ce8 	.word	0x08006ce8
 8005ff4:	08006ce8 	.word	0x08006ce8
 8005ff8:	08006cec 	.word	0x08006cec

08005ffc <__retarget_lock_acquire_recursive>:
 8005ffc:	4770      	bx	lr

08005ffe <__retarget_lock_release_recursive>:
 8005ffe:	4770      	bx	lr

08006000 <_free_r>:
 8006000:	b538      	push	{r3, r4, r5, lr}
 8006002:	4605      	mov	r5, r0
 8006004:	2900      	cmp	r1, #0
 8006006:	d041      	beq.n	800608c <_free_r+0x8c>
 8006008:	f851 3c04 	ldr.w	r3, [r1, #-4]
 800600c:	1f0c      	subs	r4, r1, #4
 800600e:	2b00      	cmp	r3, #0
 8006010:	bfb8      	it	lt
 8006012:	18e4      	addlt	r4, r4, r3
 8006014:	f000 f8e0 	bl	80061d8 <__malloc_lock>
 8006018:	4a1d      	ldr	r2, [pc, #116]	@ (8006090 <_free_r+0x90>)
 800601a:	6813      	ldr	r3, [r2, #0]
 800601c:	b933      	cbnz	r3, 800602c <_free_r+0x2c>
 800601e:	6063      	str	r3, [r4, #4]
 8006020:	6014      	str	r4, [r2, #0]
 8006022:	4628      	mov	r0, r5
 8006024:	e8bd 4038 	ldmia.w	sp!, {r3, r4, r5, lr}
 8006028:	f000 b8dc 	b.w	80061e4 <__malloc_unlock>
 800602c:	42a3      	cmp	r3, r4
 800602e:	d908      	bls.n	8006042 <_free_r+0x42>
 8006030:	6820      	ldr	r0, [r4, #0]
 8006032:	1821      	adds	r1, r4, r0
 8006034:	428b      	cmp	r3, r1
 8006036:	bf01      	itttt	eq
 8006038:	6819      	ldreq	r1, [r3, #0]
 800603a:	685b      	ldreq	r3, [r3, #4]
 800603c:	1809      	addeq	r1, r1, r0
 800603e:	6021      	streq	r1, [r4, #0]
 8006040:	e7ed      	b.n	800601e <_free_r+0x1e>
 8006042:	461a      	mov	r2, r3
 8006044:	685b      	ldr	r3, [r3, #4]
 8006046:	b10b      	cbz	r3, 800604c <_free_r+0x4c>
 8006048:	42a3      	cmp	r3, r4
 800604a:	d9fa      	bls.n	8006042 <_free_r+0x42>
 800604c:	6811      	ldr	r1, [r2, #0]
 800604e:	1850      	adds	r0, r2, r1
 8006050:	42a0      	cmp	r0, r4
 8006052:	d10b      	bne.n	800606c <_free_r+0x6c>
 8006054:	6820      	ldr	r0, [r4, #0]
 8006056:	4401      	add	r1, r0
 8006058:	1850      	adds	r0, r2, r1
 800605a:	4283      	cmp	r3, r0
 800605c:	6011      	str	r1, [r2, #0]
 800605e:	d1e0      	bne.n	8006022 <_free_r+0x22>
 8006060:	6818      	ldr	r0, [r3, #0]
 8006062:	685b      	ldr	r3, [r3, #4]
 8006064:	6053      	str	r3, [r2, #4]
 8006066:	4408      	add	r0, r1
 8006068:	6010      	str	r0, [r2, #0]
 800606a:	e7da      	b.n	8006022 <_free_r+0x22>
 800606c:	d902      	bls.n	8006074 <_free_r+0x74>
 800606e:	230c      	movs	r3, #12
 8006070:	602b      	str	r3, [r5, #0]
 8006072:	e7d6      	b.n	8006022 <_free_r+0x22>
 8006074:	6820      	ldr	r0, [r4, #0]
 8006076:	1821      	adds	r1, r4, r0
 8006078:	428b      	cmp	r3, r1
 800607a:	bf04      	itt	eq
 800607c:	6819      	ldreq	r1, [r3, #0]
 800607e:	685b      	ldreq	r3, [r3, #4]
 8006080:	6063      	str	r3, [r4, #4]
 8006082:	bf04      	itt	eq
 8006084:	1809      	addeq	r1, r1, r0
 8006086:	6021      	streq	r1, [r4, #0]
 8006088:	6054      	str	r4, [r2, #4]
 800608a:	e7ca      	b.n	8006022 <_free_r+0x22>
 800608c:	bd38      	pop	{r3, r4, r5, pc}
 800608e:	bf00      	nop
 8006090:	20000434 	.word	0x20000434

08006094 <sbrk_aligned>:
 8006094:	b570      	push	{r4, r5, r6, lr}
 8006096:	4e0f      	ldr	r6, [pc, #60]	@ (80060d4 <sbrk_aligned+0x40>)
 8006098:	460c      	mov	r4, r1
 800609a:	6831      	ldr	r1, [r6, #0]
 800609c:	4605      	mov	r5, r0
 800609e:	b911      	cbnz	r1, 80060a6 <sbrk_aligned+0x12>
 80060a0:	f000 fba4 	bl	80067ec <_sbrk_r>
 80060a4:	6030      	str	r0, [r6, #0]
 80060a6:	4621      	mov	r1, r4
 80060a8:	4628      	mov	r0, r5
 80060aa:	f000 fb9f 	bl	80067ec <_sbrk_r>
 80060ae:	1c43      	adds	r3, r0, #1
 80060b0:	d103      	bne.n	80060ba <sbrk_aligned+0x26>
 80060b2:	f04f 34ff 	mov.w	r4, #4294967295	@ 0xffffffff
 80060b6:	4620      	mov	r0, r4
 80060b8:	bd70      	pop	{r4, r5, r6, pc}
 80060ba:	1cc4      	adds	r4, r0, #3
 80060bc:	f024 0403 	bic.w	r4, r4, #3
 80060c0:	42a0      	cmp	r0, r4
 80060c2:	d0f8      	beq.n	80060b6 <sbrk_aligned+0x22>
 80060c4:	1a21      	subs	r1, r4, r0
 80060c6:	4628      	mov	r0, r5
 80060c8:	f000 fb90 	bl	80067ec <_sbrk_r>
 80060cc:	3001      	adds	r0, #1
 80060ce:	d1f2      	bne.n	80060b6 <sbrk_aligned+0x22>
 80060d0:	e7ef      	b.n	80060b2 <sbrk_aligned+0x1e>
 80060d2:	bf00      	nop
 80060d4:	20000430 	.word	0x20000430

080060d8 <_malloc_r>:
 80060d8:	e92d 43f8 	stmdb	sp!, {r3, r4, r5, r6, r7, r8, r9, lr}
 80060dc:	1ccd      	adds	r5, r1, #3
 80060de:	f025 0503 	bic.w	r5, r5, #3
 80060e2:	3508      	adds	r5, #8
 80060e4:	2d0c      	cmp	r5, #12
 80060e6:	bf38      	it	cc
 80060e8:	250c      	movcc	r5, #12
 80060ea:	2d00      	cmp	r5, #0
 80060ec:	4606      	mov	r6, r0
 80060ee:	db01      	blt.n	80060f4 <_malloc_r+0x1c>
 80060f0:	42a9      	cmp	r1, r5
 80060f2:	d904      	bls.n	80060fe <_malloc_r+0x26>
 80060f4:	230c      	movs	r3, #12
 80060f6:	6033      	str	r3, [r6, #0]
 80060f8:	2000      	movs	r0, #0
 80060fa:	e8bd 83f8 	ldmia.w	sp!, {r3, r4, r5, r6, r7, r8, r9, pc}
 80060fe:	f8df 80d4 	ldr.w	r8, [pc, #212]	@ 80061d4 <_malloc_r+0xfc>
 8006102:	f000 f869 	bl	80061d8 <__malloc_lock>
 8006106:	f8d8 3000 	ldr.w	r3, [r8]
 800610a:	461c      	mov	r4, r3
 800610c:	bb44      	cbnz	r4, 8006160 <_malloc_r+0x88>
 800610e:	4629      	mov	r1, r5
 8006110:	4630      	mov	r0, r6
 8006112:	f7ff ffbf 	bl	8006094 <sbrk_aligned>
 8006116:	1c43      	adds	r3, r0, #1
 8006118:	4604      	mov	r4, r0
 800611a:	d158      	bne.n	80061ce <_malloc_r+0xf6>
 800611c:	f8d8 4000 	ldr.w	r4, [r8]
 8006120:	4627      	mov	r7, r4
 8006122:	2f00      	cmp	r7, #0
 8006124:	d143      	bne.n	80061ae <_malloc_r+0xd6>
 8006126:	2c00      	cmp	r4, #0
 8006128:	d04b      	beq.n	80061c2 <_malloc_r+0xea>
 800612a:	6823      	ldr	r3, [r4, #0]
 800612c:	4639      	mov	r1, r7
 800612e:	4630      	mov	r0, r6
 8006130:	eb04 0903 	add.w	r9, r4, r3
 8006134:	f000 fb5a 	bl	80067ec <_sbrk_r>
 8006138:	4581      	cmp	r9, r0
 800613a:	d142      	bne.n	80061c2 <_malloc_r+0xea>
 800613c:	6821      	ldr	r1, [r4, #0]
 800613e:	1a6d      	subs	r5, r5, r1
 8006140:	4629      	mov	r1, r5
 8006142:	4630      	mov	r0, r6
 8006144:	f7ff ffa6 	bl	8006094 <sbrk_aligned>
 8006148:	3001      	adds	r0, #1
 800614a:	d03a      	beq.n	80061c2 <_malloc_r+0xea>
 800614c:	6823      	ldr	r3, [r4, #0]
 800614e:	442b      	add	r3, r5
 8006150:	6023      	str	r3, [r4, #0]
 8006152:	f8d8 3000 	ldr.w	r3, [r8]
 8006156:	685a      	ldr	r2, [r3, #4]
 8006158:	bb62      	cbnz	r2, 80061b4 <_malloc_r+0xdc>
 800615a:	f8c8 7000 	str.w	r7, [r8]
 800615e:	e00f      	b.n	8006180 <_malloc_r+0xa8>
 8006160:	6822      	ldr	r2, [r4, #0]
 8006162:	1b52      	subs	r2, r2, r5
 8006164:	d420      	bmi.n	80061a8 <_malloc_r+0xd0>
 8006166:	2a0b      	cmp	r2, #11
 8006168:	d917      	bls.n	800619a <_malloc_r+0xc2>
 800616a:	1961      	adds	r1, r4, r5
 800616c:	42a3      	cmp	r3, r4
 800616e:	6025      	str	r5, [r4, #0]
 8006170:	bf18      	it	ne
 8006172:	6059      	strne	r1, [r3, #4]
 8006174:	6863      	ldr	r3, [r4, #4]
 8006176:	bf08      	it	eq
 8006178:	f8c8 1000 	streq.w	r1, [r8]
 800617c:	5162      	str	r2, [r4, r5]
 800617e:	604b      	str	r3, [r1, #4]
 8006180:	4630      	mov	r0, r6
 8006182:	f000 f82f 	bl	80061e4 <__malloc_unlock>
 8006186:	f104 000b 	add.w	r0, r4, #11
 800618a:	1d23      	adds	r3, r4, #4
 800618c:	f020 0007 	bic.w	r0, r0, #7
 8006190:	1ac2      	subs	r2, r0, r3
 8006192:	bf1c      	itt	ne
 8006194:	1a1b      	subne	r3, r3, r0
 8006196:	50a3      	strne	r3, [r4, r2]
 8006198:	e7af      	b.n	80060fa <_malloc_r+0x22>
 800619a:	6862      	ldr	r2, [r4, #4]
 800619c:	42a3      	cmp	r3, r4
 800619e:	bf0c      	ite	eq
 80061a0:	f8c8 2000 	streq.w	r2, [r8]
 80061a4:	605a      	strne	r2, [r3, #4]
 80061a6:	e7eb      	b.n	8006180 <_malloc_r+0xa8>
 80061a8:	4623      	mov	r3, r4
 80061aa:	6864      	ldr	r4, [r4, #4]
 80061ac:	e7ae      	b.n	800610c <_malloc_r+0x34>
 80061ae:	463c      	mov	r4, r7
 80061b0:	687f      	ldr	r7, [r7, #4]
 80061b2:	e7b6      	b.n	8006122 <_malloc_r+0x4a>
 80061b4:	461a      	mov	r2, r3
 80061b6:	685b      	ldr	r3, [r3, #4]
 80061b8:	42a3      	cmp	r3, r4
 80061ba:	d1fb      	bne.n	80061b4 <_malloc_r+0xdc>
 80061bc:	2300      	movs	r3, #0
 80061be:	6053      	str	r3, [r2, #4]
 80061c0:	e7de      	b.n	8006180 <_malloc_r+0xa8>
 80061c2:	230c      	movs	r3, #12
 80061c4:	6033      	str	r3, [r6, #0]
 80061c6:	4630      	mov	r0, r6
 80061c8:	f000 f80c 	bl	80061e4 <__malloc_unlock>
 80061cc:	e794      	b.n	80060f8 <_malloc_r+0x20>
 80061ce:	6005      	str	r5, [r0, #0]
 80061d0:	e7d6      	b.n	8006180 <_malloc_r+0xa8>
 80061d2:	bf00      	nop
 80061d4:	20000434 	.word	0x20000434

080061d8 <__malloc_lock>:
 80061d8:	4801      	ldr	r0, [pc, #4]	@ (80061e0 <__malloc_lock+0x8>)
 80061da:	f7ff bf0f 	b.w	8005ffc <__retarget_lock_acquire_recursive>
 80061de:	bf00      	nop
 80061e0:	2000042c 	.word	0x2000042c

080061e4 <__malloc_unlock>:
 80061e4:	4801      	ldr	r0, [pc, #4]	@ (80061ec <__malloc_unlock+0x8>)
 80061e6:	f7ff bf0a 	b.w	8005ffe <__retarget_lock_release_recursive>
 80061ea:	bf00      	nop
 80061ec:	2000042c 	.word	0x2000042c

080061f0 <__ssputs_r>:
 80061f0:	e92d 47f0 	stmdb	sp!, {r4, r5, r6, r7, r8, r9, sl, lr}
 80061f4:	688e      	ldr	r6, [r1, #8]
 80061f6:	461f      	mov	r7, r3
 80061f8:	42be      	cmp	r6, r7
 80061fa:	680b      	ldr	r3, [r1, #0]
 80061fc:	4682      	mov	sl, r0
 80061fe:	460c      	mov	r4, r1
 8006200:	4690      	mov	r8, r2
 8006202:	d82d      	bhi.n	8006260 <__ssputs_r+0x70>
 8006204:	f9b1 200c 	ldrsh.w	r2, [r1, #12]
 8006208:	f412 6f90 	tst.w	r2, #1152	@ 0x480
 800620c:	d026      	beq.n	800625c <__ssputs_r+0x6c>
 800620e:	6965      	ldr	r5, [r4, #20]
 8006210:	6909      	ldr	r1, [r1, #16]
 8006212:	eb05 0545 	add.w	r5, r5, r5, lsl #1
 8006216:	eba3 0901 	sub.w	r9, r3, r1
 800621a:	eb05 75d5 	add.w	r5, r5, r5, lsr #31
 800621e:	1c7b      	adds	r3, r7, #1
 8006220:	444b      	add	r3, r9
 8006222:	106d      	asrs	r5, r5, #1
 8006224:	429d      	cmp	r5, r3
 8006226:	bf38      	it	cc
 8006228:	461d      	movcc	r5, r3
 800622a:	0553      	lsls	r3, r2, #21
 800622c:	d527      	bpl.n	800627e <__ssputs_r+0x8e>
 800622e:	4629      	mov	r1, r5
 8006230:	f7ff ff52 	bl	80060d8 <_malloc_r>
 8006234:	4606      	mov	r6, r0
 8006236:	b360      	cbz	r0, 8006292 <__ssputs_r+0xa2>
 8006238:	6921      	ldr	r1, [r4, #16]
 800623a:	464a      	mov	r2, r9
 800623c:	f000 fae6 	bl	800680c <memcpy>
 8006240:	89a3      	ldrh	r3, [r4, #12]
 8006242:	f423 6390 	bic.w	r3, r3, #1152	@ 0x480
 8006246:	f043 0380 	orr.w	r3, r3, #128	@ 0x80
 800624a:	81a3      	strh	r3, [r4, #12]
 800624c:	6126      	str	r6, [r4, #16]
 800624e:	6165      	str	r5, [r4, #20]
 8006250:	444e      	add	r6, r9
 8006252:	eba5 0509 	sub.w	r5, r5, r9
 8006256:	6026      	str	r6, [r4, #0]
 8006258:	60a5      	str	r5, [r4, #8]
 800625a:	463e      	mov	r6, r7
 800625c:	42be      	cmp	r6, r7
 800625e:	d900      	bls.n	8006262 <__ssputs_r+0x72>
 8006260:	463e      	mov	r6, r7
 8006262:	6820      	ldr	r0, [r4, #0]
 8006264:	4632      	mov	r2, r6
 8006266:	4641      	mov	r1, r8
 8006268:	f000 faa6 	bl	80067b8 <memmove>
 800626c:	68a3      	ldr	r3, [r4, #8]
 800626e:	1b9b      	subs	r3, r3, r6
 8006270:	60a3      	str	r3, [r4, #8]
 8006272:	6823      	ldr	r3, [r4, #0]
 8006274:	4433      	add	r3, r6
 8006276:	6023      	str	r3, [r4, #0]
 8006278:	2000      	movs	r0, #0
 800627a:	e8bd 87f0 	ldmia.w	sp!, {r4, r5, r6, r7, r8, r9, sl, pc}
 800627e:	462a      	mov	r2, r5
 8006280:	f000 fad2 	bl	8006828 <_realloc_r>
 8006284:	4606      	mov	r6, r0
 8006286:	2800      	cmp	r0, #0
 8006288:	d1e0      	bne.n	800624c <__ssputs_r+0x5c>
 800628a:	6921      	ldr	r1, [r4, #16]
 800628c:	4650      	mov	r0, sl
 800628e:	f7ff feb7 	bl	8006000 <_free_r>
 8006292:	230c      	movs	r3, #12
 8006294:	f8ca 3000 	str.w	r3, [sl]
 8006298:	89a3      	ldrh	r3, [r4, #12]
 800629a:	f043 0340 	orr.w	r3, r3, #64	@ 0x40
 800629e:	81a3      	strh	r3, [r4, #12]
 80062a0:	f04f 30ff 	mov.w	r0, #4294967295	@ 0xffffffff
 80062a4:	e7e9      	b.n	800627a <__ssputs_r+0x8a>
	...

080062a8 <_svfiprintf_r>:
 80062a8:	e92d 4ff0 	stmdb	sp!, {r4, r5, r6, r7, r8, r9, sl, fp, lr}
 80062ac:	4698      	mov	r8, r3
 80062ae:	898b      	ldrh	r3, [r1, #12]
 80062b0:	061b      	lsls	r3, r3, #24
 80062b2:	b09d      	sub	sp, #116	@ 0x74
 80062b4:	4607      	mov	r7, r0
 80062b6:	460d      	mov	r5, r1
 80062b8:	4614      	mov	r4, r2
 80062ba:	d510      	bpl.n	80062de <_svfiprintf_r+0x36>
 80062bc:	690b      	ldr	r3, [r1, #16]
 80062be:	b973      	cbnz	r3, 80062de <_svfiprintf_r+0x36>
 80062c0:	2140      	movs	r1, #64	@ 0x40
 80062c2:	f7ff ff09 	bl	80060d8 <_malloc_r>
 80062c6:	6028      	str	r0, [r5, #0]
 80062c8:	6128      	str	r0, [r5, #16]
 80062ca:	b930      	cbnz	r0, 80062da <_svfiprintf_r+0x32>
 80062cc:	230c      	movs	r3, #12
 80062ce:	603b      	str	r3, [r7, #0]
 80062d0:	f04f 30ff 	mov.w	r0, #4294967295	@ 0xffffffff
 80062d4:	b01d      	add	sp, #116	@ 0x74
 80062d6:	e8bd 8ff0 	ldmia.w	sp!, {r4, r5, r6, r7, r8, r9, sl, fp, pc}
 80062da:	2340      	movs	r3, #64	@ 0x40
 80062dc:	616b      	str	r3, [r5, #20]
 80062de:	2300      	movs	r3, #0
 80062e0:	9309      	str	r3, [sp, #36]	@ 0x24
 80062e2:	2320      	movs	r3, #32
 80062e4:	f88d 3029 	strb.w	r3, [sp, #41]	@ 0x29
 80062e8:	f8cd 800c 	str.w	r8, [sp, #12]
 80062ec:	2330      	movs	r3, #48	@ 0x30
 80062ee:	f8df 819c 	ldr.w	r8, [pc, #412]	@ 800648c <_svfiprintf_r+0x1e4>
 80062f2:	f88d 302a 	strb.w	r3, [sp, #42]	@ 0x2a
 80062f6:	f04f 0901 	mov.w	r9, #1
 80062fa:	4623      	mov	r3, r4
 80062fc:	469a      	mov	sl, r3
 80062fe:	f813 2b01 	ldrb.w	r2, [r3], #1
 8006302:	b10a      	cbz	r2, 8006308 <_svfiprintf_r+0x60>
 8006304:	2a25      	cmp	r2, #37	@ 0x25
 8006306:	d1f9      	bne.n	80062fc <_svfiprintf_r+0x54>
 8006308:	ebba 0b04 	subs.w	fp, sl, r4
 800630c:	d00b      	beq.n	8006326 <_svfiprintf_r+0x7e>
 800630e:	465b      	mov	r3, fp
 8006310:	4622      	mov	r2, r4
 8006312:	4629      	mov	r1, r5
 8006314:	4638      	mov	r0, r7
 8006316:	f7ff ff6b 	bl	80061f0 <__ssputs_r>
 800631a:	3001      	adds	r0, #1
 800631c:	f000 80a7 	beq.w	800646e <_svfiprintf_r+0x1c6>
 8006320:	9a09      	ldr	r2, [sp, #36]	@ 0x24
 8006322:	445a      	add	r2, fp
 8006324:	9209      	str	r2, [sp, #36]	@ 0x24
 8006326:	f89a 3000 	ldrb.w	r3, [sl]
 800632a:	2b00      	cmp	r3, #0
 800632c:	f000 809f 	beq.w	800646e <_svfiprintf_r+0x1c6>
 8006330:	2300      	movs	r3, #0
 8006332:	f04f 32ff 	mov.w	r2, #4294967295	@ 0xffffffff
 8006336:	e9cd 2305 	strd	r2, r3, [sp, #20]
 800633a:	f10a 0a01 	add.w	sl, sl, #1
 800633e:	9304      	str	r3, [sp, #16]
 8006340:	9307      	str	r3, [sp, #28]
 8006342:	f88d 3053 	strb.w	r3, [sp, #83]	@ 0x53
 8006346:	931a      	str	r3, [sp, #104]	@ 0x68
 8006348:	4654      	mov	r4, sl
 800634a:	2205      	movs	r2, #5
 800634c:	f814 1b01 	ldrb.w	r1, [r4], #1
 8006350:	484e      	ldr	r0, [pc, #312]	@ (800648c <_svfiprintf_r+0x1e4>)
 8006352:	f7f9 ff45 	bl	80001e0 <memchr>
 8006356:	9a04      	ldr	r2, [sp, #16]
 8006358:	b9d8      	cbnz	r0, 8006392 <_svfiprintf_r+0xea>
 800635a:	06d0      	lsls	r0, r2, #27
 800635c:	bf44      	itt	mi
 800635e:	2320      	movmi	r3, #32
 8006360:	f88d 3053 	strbmi.w	r3, [sp, #83]	@ 0x53
 8006364:	0711      	lsls	r1, r2, #28
 8006366:	bf44      	itt	mi
 8006368:	232b      	movmi	r3, #43	@ 0x2b
 800636a:	f88d 3053 	strbmi.w	r3, [sp, #83]	@ 0x53
 800636e:	f89a 3000 	ldrb.w	r3, [sl]
 8006372:	2b2a      	cmp	r3, #42	@ 0x2a
 8006374:	d015      	beq.n	80063a2 <_svfiprintf_r+0xfa>
 8006376:	9a07      	ldr	r2, [sp, #28]
 8006378:	4654      	mov	r4, sl
 800637a:	2000      	movs	r0, #0
 800637c:	f04f 0c0a 	mov.w	ip, #10
 8006380:	4621      	mov	r1, r4
 8006382:	f811 3b01 	ldrb.w	r3, [r1], #1
 8006386:	3b30      	subs	r3, #48	@ 0x30
 8006388:	2b09      	cmp	r3, #9
 800638a:	d94b      	bls.n	8006424 <_svfiprintf_r+0x17c>
 800638c:	b1b0      	cbz	r0, 80063bc <_svfiprintf_r+0x114>
 800638e:	9207      	str	r2, [sp, #28]
 8006390:	e014      	b.n	80063bc <_svfiprintf_r+0x114>
 8006392:	eba0 0308 	sub.w	r3, r0, r8
 8006396:	fa09 f303 	lsl.w	r3, r9, r3
 800639a:	4313      	orrs	r3, r2
 800639c:	9304      	str	r3, [sp, #16]
 800639e:	46a2      	mov	sl, r4
 80063a0:	e7d2      	b.n	8006348 <_svfiprintf_r+0xa0>
 80063a2:	9b03      	ldr	r3, [sp, #12]
 80063a4:	1d19      	adds	r1, r3, #4
 80063a6:	681b      	ldr	r3, [r3, #0]
 80063a8:	9103      	str	r1, [sp, #12]
 80063aa:	2b00      	cmp	r3, #0
 80063ac:	bfbb      	ittet	lt
 80063ae:	425b      	neglt	r3, r3
 80063b0:	f042 0202 	orrlt.w	r2, r2, #2
 80063b4:	9307      	strge	r3, [sp, #28]
 80063b6:	9307      	strlt	r3, [sp, #28]
 80063b8:	bfb8      	it	lt
 80063ba:	9204      	strlt	r2, [sp, #16]
 80063bc:	7823      	ldrb	r3, [r4, #0]
 80063be:	2b2e      	cmp	r3, #46	@ 0x2e
 80063c0:	d10a      	bne.n	80063d8 <_svfiprintf_r+0x130>
 80063c2:	7863      	ldrb	r3, [r4, #1]
 80063c4:	2b2a      	cmp	r3, #42	@ 0x2a
 80063c6:	d132      	bne.n	800642e <_svfiprintf_r+0x186>
 80063c8:	9b03      	ldr	r3, [sp, #12]
 80063ca:	1d1a      	adds	r2, r3, #4
 80063cc:	681b      	ldr	r3, [r3, #0]
 80063ce:	9203      	str	r2, [sp, #12]
 80063d0:	ea43 73e3 	orr.w	r3, r3, r3, asr #31
 80063d4:	3402      	adds	r4, #2
 80063d6:	9305      	str	r3, [sp, #20]
 80063d8:	f8df a0c0 	ldr.w	sl, [pc, #192]	@ 800649c <_svfiprintf_r+0x1f4>
 80063dc:	7821      	ldrb	r1, [r4, #0]
 80063de:	2203      	movs	r2, #3
 80063e0:	4650      	mov	r0, sl
 80063e2:	f7f9 fefd 	bl	80001e0 <memchr>
 80063e6:	b138      	cbz	r0, 80063f8 <_svfiprintf_r+0x150>
 80063e8:	9b04      	ldr	r3, [sp, #16]
 80063ea:	eba0 000a 	sub.w	r0, r0, sl
 80063ee:	2240      	movs	r2, #64	@ 0x40
 80063f0:	4082      	lsls	r2, r0
 80063f2:	4313      	orrs	r3, r2
 80063f4:	3401      	adds	r4, #1
 80063f6:	9304      	str	r3, [sp, #16]
 80063f8:	f814 1b01 	ldrb.w	r1, [r4], #1
 80063fc:	4824      	ldr	r0, [pc, #144]	@ (8006490 <_svfiprintf_r+0x1e8>)
 80063fe:	f88d 1028 	strb.w	r1, [sp, #40]	@ 0x28
 8006402:	2206      	movs	r2, #6
 8006404:	f7f9 feec 	bl	80001e0 <memchr>
 8006408:	2800      	cmp	r0, #0
 800640a:	d036      	beq.n	800647a <_svfiprintf_r+0x1d2>
 800640c:	4b21      	ldr	r3, [pc, #132]	@ (8006494 <_svfiprintf_r+0x1ec>)
 800640e:	bb1b      	cbnz	r3, 8006458 <_svfiprintf_r+0x1b0>
 8006410:	9b03      	ldr	r3, [sp, #12]
 8006412:	3307      	adds	r3, #7
 8006414:	f023 0307 	bic.w	r3, r3, #7
 8006418:	3308      	adds	r3, #8
 800641a:	9303      	str	r3, [sp, #12]
 800641c:	9b09      	ldr	r3, [sp, #36]	@ 0x24
 800641e:	4433      	add	r3, r6
 8006420:	9309      	str	r3, [sp, #36]	@ 0x24
 8006422:	e76a      	b.n	80062fa <_svfiprintf_r+0x52>
 8006424:	fb0c 3202 	mla	r2, ip, r2, r3
 8006428:	460c      	mov	r4, r1
 800642a:	2001      	movs	r0, #1
 800642c:	e7a8      	b.n	8006380 <_svfiprintf_r+0xd8>
 800642e:	2300      	movs	r3, #0
 8006430:	3401      	adds	r4, #1
 8006432:	9305      	str	r3, [sp, #20]
 8006434:	4619      	mov	r1, r3
 8006436:	f04f 0c0a 	mov.w	ip, #10
 800643a:	4620      	mov	r0, r4
 800643c:	f810 2b01 	ldrb.w	r2, [r0], #1
 8006440:	3a30      	subs	r2, #48	@ 0x30
 8006442:	2a09      	cmp	r2, #9
 8006444:	d903      	bls.n	800644e <_svfiprintf_r+0x1a6>
 8006446:	2b00      	cmp	r3, #0
 8006448:	d0c6      	beq.n	80063d8 <_svfiprintf_r+0x130>
 800644a:	9105      	str	r1, [sp, #20]
 800644c:	e7c4      	b.n	80063d8 <_svfiprintf_r+0x130>
 800644e:	fb0c 2101 	mla	r1, ip, r1, r2
 8006452:	4604      	mov	r4, r0
 8006454:	2301      	movs	r3, #1
 8006456:	e7f0      	b.n	800643a <_svfiprintf_r+0x192>
 8006458:	ab03      	add	r3, sp, #12
 800645a:	9300      	str	r3, [sp, #0]
 800645c:	462a      	mov	r2, r5
 800645e:	4b0e      	ldr	r3, [pc, #56]	@ (8006498 <_svfiprintf_r+0x1f0>)
 8006460:	a904      	add	r1, sp, #16
 8006462:	4638      	mov	r0, r7
 8006464:	f3af 8000 	nop.w
 8006468:	1c42      	adds	r2, r0, #1
 800646a:	4606      	mov	r6, r0
 800646c:	d1d6      	bne.n	800641c <_svfiprintf_r+0x174>
 800646e:	89ab      	ldrh	r3, [r5, #12]
 8006470:	065b      	lsls	r3, r3, #25
 8006472:	f53f af2d 	bmi.w	80062d0 <_svfiprintf_r+0x28>
 8006476:	9809      	ldr	r0, [sp, #36]	@ 0x24
 8006478:	e72c      	b.n	80062d4 <_svfiprintf_r+0x2c>
 800647a:	ab03      	add	r3, sp, #12
 800647c:	9300      	str	r3, [sp, #0]
 800647e:	462a      	mov	r2, r5
 8006480:	4b05      	ldr	r3, [pc, #20]	@ (8006498 <_svfiprintf_r+0x1f0>)
 8006482:	a904      	add	r1, sp, #16
 8006484:	4638      	mov	r0, r7
 8006486:	f000 f879 	bl	800657c <_printf_i>
 800648a:	e7ed      	b.n	8006468 <_svfiprintf_r+0x1c0>
 800648c:	08006cad 	.word	0x08006cad
 8006490:	08006cb7 	.word	0x08006cb7
 8006494:	00000000 	.word	0x00000000
 8006498:	080061f1 	.word	0x080061f1
 800649c:	08006cb3 	.word	0x08006cb3

080064a0 <_printf_common>:
 80064a0:	e92d 47f0 	stmdb	sp!, {r4, r5, r6, r7, r8, r9, sl, lr}
 80064a4:	4616      	mov	r6, r2
 80064a6:	4698      	mov	r8, r3
 80064a8:	688a      	ldr	r2, [r1, #8]
 80064aa:	690b      	ldr	r3, [r1, #16]
 80064ac:	f8dd 9020 	ldr.w	r9, [sp, #32]
 80064b0:	4293      	cmp	r3, r2
 80064b2:	bfb8      	it	lt
 80064b4:	4613      	movlt	r3, r2
 80064b6:	6033      	str	r3, [r6, #0]
 80064b8:	f891 2043 	ldrb.w	r2, [r1, #67]	@ 0x43
 80064bc:	4607      	mov	r7, r0
 80064be:	460c      	mov	r4, r1
 80064c0:	b10a      	cbz	r2, 80064c6 <_printf_common+0x26>
 80064c2:	3301      	adds	r3, #1
 80064c4:	6033      	str	r3, [r6, #0]
 80064c6:	6823      	ldr	r3, [r4, #0]
 80064c8:	0699      	lsls	r1, r3, #26
 80064ca:	bf42      	ittt	mi
 80064cc:	6833      	ldrmi	r3, [r6, #0]
 80064ce:	3302      	addmi	r3, #2
 80064d0:	6033      	strmi	r3, [r6, #0]
 80064d2:	6825      	ldr	r5, [r4, #0]
 80064d4:	f015 0506 	ands.w	r5, r5, #6
 80064d8:	d106      	bne.n	80064e8 <_printf_common+0x48>
 80064da:	f104 0a19 	add.w	sl, r4, #25
 80064de:	68e3      	ldr	r3, [r4, #12]
 80064e0:	6832      	ldr	r2, [r6, #0]
 80064e2:	1a9b      	subs	r3, r3, r2
 80064e4:	42ab      	cmp	r3, r5
 80064e6:	dc26      	bgt.n	8006536 <_printf_common+0x96>
 80064e8:	f894 3043 	ldrb.w	r3, [r4, #67]	@ 0x43
 80064ec:	6822      	ldr	r2, [r4, #0]
 80064ee:	3b00      	subs	r3, #0
 80064f0:	bf18      	it	ne
 80064f2:	2301      	movne	r3, #1
 80064f4:	0692      	lsls	r2, r2, #26
 80064f6:	d42b      	bmi.n	8006550 <_printf_common+0xb0>
 80064f8:	f104 0243 	add.w	r2, r4, #67	@ 0x43
 80064fc:	4641      	mov	r1, r8
 80064fe:	4638      	mov	r0, r7
 8006500:	47c8      	blx	r9
 8006502:	3001      	adds	r0, #1
 8006504:	d01e      	beq.n	8006544 <_printf_common+0xa4>
 8006506:	6823      	ldr	r3, [r4, #0]
 8006508:	6922      	ldr	r2, [r4, #16]
 800650a:	f003 0306 	and.w	r3, r3, #6
 800650e:	2b04      	cmp	r3, #4
 8006510:	bf02      	ittt	eq
 8006512:	68e5      	ldreq	r5, [r4, #12]
 8006514:	6833      	ldreq	r3, [r6, #0]
 8006516:	1aed      	subeq	r5, r5, r3
 8006518:	68a3      	ldr	r3, [r4, #8]
 800651a:	bf0c      	ite	eq
 800651c:	ea25 75e5 	biceq.w	r5, r5, r5, asr #31
 8006520:	2500      	movne	r5, #0
 8006522:	4293      	cmp	r3, r2
 8006524:	bfc4      	itt	gt
 8006526:	1a9b      	subgt	r3, r3, r2
 8006528:	18ed      	addgt	r5, r5, r3
 800652a:	2600      	movs	r6, #0
 800652c:	341a      	adds	r4, #26
 800652e:	42b5      	cmp	r5, r6
 8006530:	d11a      	bne.n	8006568 <_printf_common+0xc8>
 8006532:	2000      	movs	r0, #0
 8006534:	e008      	b.n	8006548 <_printf_common+0xa8>
 8006536:	2301      	movs	r3, #1
 8006538:	4652      	mov	r2, sl
 800653a:	4641      	mov	r1, r8
 800653c:	4638      	mov	r0, r7
 800653e:	47c8      	blx	r9
 8006540:	3001      	adds	r0, #1
 8006542:	d103      	bne.n	800654c <_printf_common+0xac>
 8006544:	f04f 30ff 	mov.w	r0, #4294967295	@ 0xffffffff
 8006548:	e8bd 87f0 	ldmia.w	sp!, {r4, r5, r6, r7, r8, r9, sl, pc}
 800654c:	3501      	adds	r5, #1
 800654e:	e7c6      	b.n	80064de <_printf_common+0x3e>
 8006550:	18e1      	adds	r1, r4, r3
 8006552:	1c5a      	adds	r2, r3, #1
 8006554:	2030      	movs	r0, #48	@ 0x30
 8006556:	f881 0043 	strb.w	r0, [r1, #67]	@ 0x43
 800655a:	4422      	add	r2, r4
 800655c:	f894 1045 	ldrb.w	r1, [r4, #69]	@ 0x45
 8006560:	f882 1043 	strb.w	r1, [r2, #67]	@ 0x43
 8006564:	3302      	adds	r3, #2
 8006566:	e7c7      	b.n	80064f8 <_printf_common+0x58>
 8006568:	2301      	movs	r3, #1
 800656a:	4622      	mov	r2, r4
 800656c:	4641      	mov	r1, r8
 800656e:	4638      	mov	r0, r7
 8006570:	47c8      	blx	r9
 8006572:	3001      	adds	r0, #1
 8006574:	d0e6      	beq.n	8006544 <_printf_common+0xa4>
 8006576:	3601      	adds	r6, #1
 8006578:	e7d9      	b.n	800652e <_printf_common+0x8e>
	...

0800657c <_printf_i>:
 800657c:	e92d 47ff 	stmdb	sp!, {r0, r1, r2, r3, r4, r5, r6, r7, r8, r9, sl, lr}
 8006580:	7e0f      	ldrb	r7, [r1, #24]
 8006582:	9e0c      	ldr	r6, [sp, #48]	@ 0x30
 8006584:	2f78      	cmp	r7, #120	@ 0x78
 8006586:	4691      	mov	r9, r2
 8006588:	4680      	mov	r8, r0
 800658a:	460c      	mov	r4, r1
 800658c:	469a      	mov	sl, r3
 800658e:	f101 0243 	add.w	r2, r1, #67	@ 0x43
 8006592:	d807      	bhi.n	80065a4 <_printf_i+0x28>
 8006594:	2f62      	cmp	r7, #98	@ 0x62
 8006596:	d80a      	bhi.n	80065ae <_printf_i+0x32>
 8006598:	2f00      	cmp	r7, #0
 800659a:	f000 80d1 	beq.w	8006740 <_printf_i+0x1c4>
 800659e:	2f58      	cmp	r7, #88	@ 0x58
 80065a0:	f000 80b8 	beq.w	8006714 <_printf_i+0x198>
 80065a4:	f104 0642 	add.w	r6, r4, #66	@ 0x42
 80065a8:	f884 7042 	strb.w	r7, [r4, #66]	@ 0x42
 80065ac:	e03a      	b.n	8006624 <_printf_i+0xa8>
 80065ae:	f1a7 0363 	sub.w	r3, r7, #99	@ 0x63
 80065b2:	2b15      	cmp	r3, #21
 80065b4:	d8f6      	bhi.n	80065a4 <_printf_i+0x28>
 80065b6:	a101      	add	r1, pc, #4	@ (adr r1, 80065bc <_printf_i+0x40>)
 80065b8:	f851 f023 	ldr.w	pc, [r1, r3, lsl #2]
 80065bc:	08006615 	.word	0x08006615
 80065c0:	08006629 	.word	0x08006629
 80065c4:	080065a5 	.word	0x080065a5
 80065c8:	080065a5 	.word	0x080065a5
 80065cc:	080065a5 	.word	0x080065a5
 80065d0:	080065a5 	.word	0x080065a5
 80065d4:	08006629 	.word	0x08006629
 80065d8:	080065a5 	.word	0x080065a5
 80065dc:	080065a5 	.word	0x080065a5
 80065e0:	080065a5 	.word	0x080065a5
 80065e4:	080065a5 	.word	0x080065a5
 80065e8:	08006727 	.word	0x08006727
 80065ec:	08006653 	.word	0x08006653
 80065f0:	080066e1 	.word	0x080066e1
 80065f4:	080065a5 	.word	0x080065a5
 80065f8:	080065a5 	.word	0x080065a5
 80065fc:	08006749 	.word	0x08006749
 8006600:	080065a5 	.word	0x080065a5
 8006604:	08006653 	.word	0x08006653
 8006608:	080065a5 	.word	0x080065a5
 800660c:	080065a5 	.word	0x080065a5
 8006610:	080066e9 	.word	0x080066e9
 8006614:	6833      	ldr	r3, [r6, #0]
 8006616:	1d1a      	adds	r2, r3, #4
 8006618:	681b      	ldr	r3, [r3, #0]
 800661a:	6032      	str	r2, [r6, #0]
 800661c:	f104 0642 	add.w	r6, r4, #66	@ 0x42
 8006620:	f884 3042 	strb.w	r3, [r4, #66]	@ 0x42
 8006624:	2301      	movs	r3, #1
 8006626:	e09c      	b.n	8006762 <_printf_i+0x1e6>
 8006628:	6833      	ldr	r3, [r6, #0]
 800662a:	6820      	ldr	r0, [r4, #0]
 800662c:	1d19      	adds	r1, r3, #4
 800662e:	6031      	str	r1, [r6, #0]
 8006630:	0606      	lsls	r6, r0, #24
 8006632:	d501      	bpl.n	8006638 <_printf_i+0xbc>
 8006634:	681d      	ldr	r5, [r3, #0]
 8006636:	e003      	b.n	8006640 <_printf_i+0xc4>
 8006638:	0645      	lsls	r5, r0, #25
 800663a:	d5fb      	bpl.n	8006634 <_printf_i+0xb8>
 800663c:	f9b3 5000 	ldrsh.w	r5, [r3]
 8006640:	2d00      	cmp	r5, #0
 8006642:	da03      	bge.n	800664c <_printf_i+0xd0>
 8006644:	232d      	movs	r3, #45	@ 0x2d
 8006646:	426d      	negs	r5, r5
 8006648:	f884 3043 	strb.w	r3, [r4, #67]	@ 0x43
 800664c:	4858      	ldr	r0, [pc, #352]	@ (80067b0 <_printf_i+0x234>)
 800664e:	230a      	movs	r3, #10
 8006650:	e011      	b.n	8006676 <_printf_i+0xfa>
 8006652:	6821      	ldr	r1, [r4, #0]
 8006654:	6833      	ldr	r3, [r6, #0]
 8006656:	0608      	lsls	r0, r1, #24
 8006658:	f853 5b04 	ldr.w	r5, [r3], #4
 800665c:	d402      	bmi.n	8006664 <_printf_i+0xe8>
 800665e:	0649      	lsls	r1, r1, #25
 8006660:	bf48      	it	mi
 8006662:	b2ad      	uxthmi	r5, r5
 8006664:	2f6f      	cmp	r7, #111	@ 0x6f
 8006666:	4852      	ldr	r0, [pc, #328]	@ (80067b0 <_printf_i+0x234>)
 8006668:	6033      	str	r3, [r6, #0]
 800666a:	bf14      	ite	ne
 800666c:	230a      	movne	r3, #10
 800666e:	2308      	moveq	r3, #8
 8006670:	2100      	movs	r1, #0
 8006672:	f884 1043 	strb.w	r1, [r4, #67]	@ 0x43
 8006676:	6866      	ldr	r6, [r4, #4]
 8006678:	60a6      	str	r6, [r4, #8]
 800667a:	2e00      	cmp	r6, #0
 800667c:	db05      	blt.n	800668a <_printf_i+0x10e>
 800667e:	6821      	ldr	r1, [r4, #0]
 8006680:	432e      	orrs	r6, r5
 8006682:	f021 0104 	bic.w	r1, r1, #4
 8006686:	6021      	str	r1, [r4, #0]
 8006688:	d04b      	beq.n	8006722 <_printf_i+0x1a6>
 800668a:	4616      	mov	r6, r2
 800668c:	fbb5 f1f3 	udiv	r1, r5, r3
 8006690:	fb03 5711 	mls	r7, r3, r1, r5
 8006694:	5dc7      	ldrb	r7, [r0, r7]
 8006696:	f806 7d01 	strb.w	r7, [r6, #-1]!
 800669a:	462f      	mov	r7, r5
 800669c:	42bb      	cmp	r3, r7
 800669e:	460d      	mov	r5, r1
 80066a0:	d9f4      	bls.n	800668c <_printf_i+0x110>
 80066a2:	2b08      	cmp	r3, #8
 80066a4:	d10b      	bne.n	80066be <_printf_i+0x142>
 80066a6:	6823      	ldr	r3, [r4, #0]
 80066a8:	07df      	lsls	r7, r3, #31
 80066aa:	d508      	bpl.n	80066be <_printf_i+0x142>
 80066ac:	6923      	ldr	r3, [r4, #16]
 80066ae:	6861      	ldr	r1, [r4, #4]
 80066b0:	4299      	cmp	r1, r3
 80066b2:	bfde      	ittt	le
 80066b4:	2330      	movle	r3, #48	@ 0x30
 80066b6:	f806 3c01 	strble.w	r3, [r6, #-1]
 80066ba:	f106 36ff 	addle.w	r6, r6, #4294967295	@ 0xffffffff
 80066be:	1b92      	subs	r2, r2, r6
 80066c0:	6122      	str	r2, [r4, #16]
 80066c2:	f8cd a000 	str.w	sl, [sp]
 80066c6:	464b      	mov	r3, r9
 80066c8:	aa03      	add	r2, sp, #12
 80066ca:	4621      	mov	r1, r4
 80066cc:	4640      	mov	r0, r8
 80066ce:	f7ff fee7 	bl	80064a0 <_printf_common>
 80066d2:	3001      	adds	r0, #1
 80066d4:	d14a      	bne.n	800676c <_printf_i+0x1f0>
 80066d6:	f04f 30ff 	mov.w	r0, #4294967295	@ 0xffffffff
 80066da:	b004      	add	sp, #16
 80066dc:	e8bd 87f0 	ldmia.w	sp!, {r4, r5, r6, r7, r8, r9, sl, pc}
 80066e0:	6823      	ldr	r3, [r4, #0]
 80066e2:	f043 0320 	orr.w	r3, r3, #32
 80066e6:	6023      	str	r3, [r4, #0]
 80066e8:	4832      	ldr	r0, [pc, #200]	@ (80067b4 <_printf_i+0x238>)
 80066ea:	2778      	movs	r7, #120	@ 0x78
 80066ec:	f884 7045 	strb.w	r7, [r4, #69]	@ 0x45
 80066f0:	6823      	ldr	r3, [r4, #0]
 80066f2:	6831      	ldr	r1, [r6, #0]
 80066f4:	061f      	lsls	r7, r3, #24
 80066f6:	f851 5b04 	ldr.w	r5, [r1], #4
 80066fa:	d402      	bmi.n	8006702 <_printf_i+0x186>
 80066fc:	065f      	lsls	r7, r3, #25
 80066fe:	bf48      	it	mi
 8006700:	b2ad      	uxthmi	r5, r5
 8006702:	6031      	str	r1, [r6, #0]
 8006704:	07d9      	lsls	r1, r3, #31
 8006706:	bf44      	itt	mi
 8006708:	f043 0320 	orrmi.w	r3, r3, #32
 800670c:	6023      	strmi	r3, [r4, #0]
 800670e:	b11d      	cbz	r5, 8006718 <_printf_i+0x19c>
 8006710:	2310      	movs	r3, #16
 8006712:	e7ad      	b.n	8006670 <_printf_i+0xf4>
 8006714:	4826      	ldr	r0, [pc, #152]	@ (80067b0 <_printf_i+0x234>)
 8006716:	e7e9      	b.n	80066ec <_printf_i+0x170>
 8006718:	6823      	ldr	r3, [r4, #0]
 800671a:	f023 0320 	bic.w	r3, r3, #32
 800671e:	6023      	str	r3, [r4, #0]
 8006720:	e7f6      	b.n	8006710 <_printf_i+0x194>
 8006722:	4616      	mov	r6, r2
 8006724:	e7bd      	b.n	80066a2 <_printf_i+0x126>
 8006726:	6833      	ldr	r3, [r6, #0]
 8006728:	6825      	ldr	r5, [r4, #0]
 800672a:	6961      	ldr	r1, [r4, #20]
 800672c:	1d18      	adds	r0, r3, #4
 800672e:	6030      	str	r0, [r6, #0]
 8006730:	062e      	lsls	r6, r5, #24
 8006732:	681b      	ldr	r3, [r3, #0]
 8006734:	d501      	bpl.n	800673a <_printf_i+0x1be>
 8006736:	6019      	str	r1, [r3, #0]
 8006738:	e002      	b.n	8006740 <_printf_i+0x1c4>
 800673a:	0668      	lsls	r0, r5, #25
 800673c:	d5fb      	bpl.n	8006736 <_printf_i+0x1ba>
 800673e:	8019      	strh	r1, [r3, #0]
 8006740:	2300      	movs	r3, #0
 8006742:	6123      	str	r3, [r4, #16]
 8006744:	4616      	mov	r6, r2
 8006746:	e7bc      	b.n	80066c2 <_printf_i+0x146>
 8006748:	6833      	ldr	r3, [r6, #0]
 800674a:	1d1a      	adds	r2, r3, #4
 800674c:	6032      	str	r2, [r6, #0]
 800674e:	681e      	ldr	r6, [r3, #0]
 8006750:	6862      	ldr	r2, [r4, #4]
 8006752:	2100      	movs	r1, #0
 8006754:	4630      	mov	r0, r6
 8006756:	f7f9 fd43 	bl	80001e0 <memchr>
 800675a:	b108      	cbz	r0, 8006760 <_printf_i+0x1e4>
 800675c:	1b80      	subs	r0, r0, r6
 800675e:	6060      	str	r0, [r4, #4]
 8006760:	6863      	ldr	r3, [r4, #4]
 8006762:	6123      	str	r3, [r4, #16]
 8006764:	2300      	movs	r3, #0
 8006766:	f884 3043 	strb.w	r3, [r4, #67]	@ 0x43
 800676a:	e7aa      	b.n	80066c2 <_printf_i+0x146>
 800676c:	6923      	ldr	r3, [r4, #16]
 800676e:	4632      	mov	r2, r6
 8006770:	4649      	mov	r1, r9
 8006772:	4640      	mov	r0, r8
 8006774:	47d0      	blx	sl
 8006776:	3001      	adds	r0, #1
 8006778:	d0ad      	beq.n	80066d6 <_printf_i+0x15a>
 800677a:	6823      	ldr	r3, [r4, #0]
 800677c:	079b      	lsls	r3, r3, #30
 800677e:	d413      	bmi.n	80067a8 <_printf_i+0x22c>
 8006780:	68e0      	ldr	r0, [r4, #12]
 8006782:	9b03      	ldr	r3, [sp, #12]
 8006784:	4298      	cmp	r0, r3
 8006786:	bfb8      	it	lt
 8006788:	4618      	movlt	r0, r3
 800678a:	e7a6      	b.n	80066da <_printf_i+0x15e>
 800678c:	2301      	movs	r3, #1
 800678e:	4632      	mov	r2, r6
 8006790:	4649      	mov	r1, r9
 8006792:	4640      	mov	r0, r8
 8006794:	47d0      	blx	sl
 8006796:	3001      	adds	r0, #1
 8006798:	d09d      	beq.n	80066d6 <_printf_i+0x15a>
 800679a:	3501      	adds	r5, #1
 800679c:	68e3      	ldr	r3, [r4, #12]
 800679e:	9903      	ldr	r1, [sp, #12]
 80067a0:	1a5b      	subs	r3, r3, r1
 80067a2:	42ab      	cmp	r3, r5
 80067a4:	dcf2      	bgt.n	800678c <_printf_i+0x210>
 80067a6:	e7eb      	b.n	8006780 <_printf_i+0x204>
 80067a8:	2500      	movs	r5, #0
 80067aa:	f104 0619 	add.w	r6, r4, #25
 80067ae:	e7f5      	b.n	800679c <_printf_i+0x220>
 80067b0:	08006cbe 	.word	0x08006cbe
 80067b4:	08006ccf 	.word	0x08006ccf

080067b8 <memmove>:
 80067b8:	4288      	cmp	r0, r1
 80067ba:	b510      	push	{r4, lr}
 80067bc:	eb01 0402 	add.w	r4, r1, r2
 80067c0:	d902      	bls.n	80067c8 <memmove+0x10>
 80067c2:	4284      	cmp	r4, r0
 80067c4:	4623      	mov	r3, r4
 80067c6:	d807      	bhi.n	80067d8 <memmove+0x20>
 80067c8:	1e43      	subs	r3, r0, #1
 80067ca:	42a1      	cmp	r1, r4
 80067cc:	d008      	beq.n	80067e0 <memmove+0x28>
 80067ce:	f811 2b01 	ldrb.w	r2, [r1], #1
 80067d2:	f803 2f01 	strb.w	r2, [r3, #1]!
 80067d6:	e7f8      	b.n	80067ca <memmove+0x12>
 80067d8:	4402      	add	r2, r0
 80067da:	4601      	mov	r1, r0
 80067dc:	428a      	cmp	r2, r1
 80067de:	d100      	bne.n	80067e2 <memmove+0x2a>
 80067e0:	bd10      	pop	{r4, pc}
 80067e2:	f813 4d01 	ldrb.w	r4, [r3, #-1]!
 80067e6:	f802 4d01 	strb.w	r4, [r2, #-1]!
 80067ea:	e7f7      	b.n	80067dc <memmove+0x24>

080067ec <_sbrk_r>:
 80067ec:	b538      	push	{r3, r4, r5, lr}
 80067ee:	4d06      	ldr	r5, [pc, #24]	@ (8006808 <_sbrk_r+0x1c>)
 80067f0:	2300      	movs	r3, #0
 80067f2:	4604      	mov	r4, r0
 80067f4:	4608      	mov	r0, r1
 80067f6:	602b      	str	r3, [r5, #0]
 80067f8:	f7fb ff8e 	bl	8002718 <_sbrk>
 80067fc:	1c43      	adds	r3, r0, #1
 80067fe:	d102      	bne.n	8006806 <_sbrk_r+0x1a>
 8006800:	682b      	ldr	r3, [r5, #0]
 8006802:	b103      	cbz	r3, 8006806 <_sbrk_r+0x1a>
 8006804:	6023      	str	r3, [r4, #0]
 8006806:	bd38      	pop	{r3, r4, r5, pc}
 8006808:	20000428 	.word	0x20000428

0800680c <memcpy>:
 800680c:	440a      	add	r2, r1
 800680e:	4291      	cmp	r1, r2
 8006810:	f100 33ff 	add.w	r3, r0, #4294967295	@ 0xffffffff
 8006814:	d100      	bne.n	8006818 <memcpy+0xc>
 8006816:	4770      	bx	lr
 8006818:	b510      	push	{r4, lr}
 800681a:	f811 4b01 	ldrb.w	r4, [r1], #1
 800681e:	f803 4f01 	strb.w	r4, [r3, #1]!
 8006822:	4291      	cmp	r1, r2
 8006824:	d1f9      	bne.n	800681a <memcpy+0xe>
 8006826:	bd10      	pop	{r4, pc}

08006828 <_realloc_r>:
 8006828:	e92d 41f0 	stmdb	sp!, {r4, r5, r6, r7, r8, lr}
 800682c:	4607      	mov	r7, r0
 800682e:	4614      	mov	r4, r2
 8006830:	460d      	mov	r5, r1
 8006832:	b921      	cbnz	r1, 800683e <_realloc_r+0x16>
 8006834:	e8bd 41f0 	ldmia.w	sp!, {r4, r5, r6, r7, r8, lr}
 8006838:	4611      	mov	r1, r2
 800683a:	f7ff bc4d 	b.w	80060d8 <_malloc_r>
 800683e:	b92a      	cbnz	r2, 800684c <_realloc_r+0x24>
 8006840:	f7ff fbde 	bl	8006000 <_free_r>
 8006844:	4625      	mov	r5, r4
 8006846:	4628      	mov	r0, r5
 8006848:	e8bd 81f0 	ldmia.w	sp!, {r4, r5, r6, r7, r8, pc}
 800684c:	f000 f81a 	bl	8006884 <_malloc_usable_size_r>
 8006850:	4284      	cmp	r4, r0
 8006852:	4606      	mov	r6, r0
 8006854:	d802      	bhi.n	800685c <_realloc_r+0x34>
 8006856:	ebb4 0f50 	cmp.w	r4, r0, lsr #1
 800685a:	d8f4      	bhi.n	8006846 <_realloc_r+0x1e>
 800685c:	4621      	mov	r1, r4
 800685e:	4638      	mov	r0, r7
 8006860:	f7ff fc3a 	bl	80060d8 <_malloc_r>
 8006864:	4680      	mov	r8, r0
 8006866:	b908      	cbnz	r0, 800686c <_realloc_r+0x44>
 8006868:	4645      	mov	r5, r8
 800686a:	e7ec      	b.n	8006846 <_realloc_r+0x1e>
 800686c:	42b4      	cmp	r4, r6
 800686e:	4622      	mov	r2, r4
 8006870:	4629      	mov	r1, r5
 8006872:	bf28      	it	cs
 8006874:	4632      	movcs	r2, r6
 8006876:	f7ff ffc9 	bl	800680c <memcpy>
 800687a:	4629      	mov	r1, r5
 800687c:	4638      	mov	r0, r7
 800687e:	f7ff fbbf 	bl	8006000 <_free_r>
 8006882:	e7f1      	b.n	8006868 <_realloc_r+0x40>

08006884 <_malloc_usable_size_r>:
 8006884:	f851 3c04 	ldr.w	r3, [r1, #-4]
 8006888:	1f18      	subs	r0, r3, #4
 800688a:	2b00      	cmp	r3, #0
 800688c:	bfbc      	itt	lt
 800688e:	580b      	ldrlt	r3, [r1, r0]
 8006890:	18c0      	addlt	r0, r0, r3
 8006892:	4770      	bx	lr

08006894 <_init>:
 8006894:	b5f8      	push	{r3, r4, r5, r6, r7, lr}
 8006896:	bf00      	nop
 8006898:	bcf8      	pop	{r3, r4, r5, r6, r7}
 800689a:	bc08      	pop	{r3}
 800689c:	469e      	mov	lr, r3
 800689e:	4770      	bx	lr

080068a0 <_fini>:
 80068a0:	b5f8      	push	{r3, r4, r5, r6, r7, lr}
 80068a2:	bf00      	nop
 80068a4:	bcf8      	pop	{r3, r4, r5, r6, r7}
 80068a6:	bc08      	pop	{r3}
 80068a8:	469e      	mov	lr, r3
 80068aa:	4770      	bx	lr
